ARM GAS  1.s 			page 1


   1              		@@ 单片机stm32f030f4p6
   2              		@@ 电桥						
   3              		@作者：yjmwxwx
   4              		@时间：2020-08-08
   5              		@编译器：ARM-NONE-EABI
   6              		.thumb
   7              		.syntax unified
   8              		.section .data
   9              		.align 4
  10              	zheng_xian_200khz:	@20*10
  11 0000 07000900 		.short 7,9,10,12,13,13,13,12,10,9,7,4,3,1,0,0,0,1,3,4,7,9,10,12,13,13,13,12,10,9,7,4,3,1,0,0,0,1,3
  11      0A000C00 
  11      0D000D00 
  11      0D000C00 
  11      0A000900 
  12              		.align 4
  13              	xuan_zhuan_yin_zi:
  14 0190 00800000 		.int 0x8000,0x0000,0x4B3C,0xFFFF9873,0xFFFFD873,0xFFFF8644,0xFFFF8644,0xFFFFD873,0xFFFF9873,0x4B3C
  14      00000000 
  14      3C4B0000 
  14      7398FFFF 
  14      73D8FFFF 
  15              		.align 4
  16              	cordic_yong_cos_sin:
  17 07d0 00000000 		.int 0x0000,0x4000,0x2D41,0x2D41,0x3B20,0x187D,0x3EC5,0x0C7C,0x3FB1,0x0645,0x3FEC,0x0323,0x3FFB,0x
  17      00400000 
  17      412D0000 
  17      412D0000 
  17      203B0000 
  18              		.align 4
  19              	
  20              	yjmwxwx:
  21 0850 796A6D77 		.ascii "yjmwxwx-20200808"
  21      7877782D 
  21      32303230 
  21      30383038 
  22              		.align 4
  23              	kong:
  24 0860 20202020 		.int 0x20202020
  25              	_fu:
  26 0864 2D       		.ascii "-"
  27              	ou:
  28 0865 F4000000 	        .int    0xf4
  29              	kai_lu_jiao_zhun:
  30 0869 6B616920 		.ascii "kai lu jiao zhun"
  30      6C75206A 
  30      69616F20 
  30      7A68756E 
  31              	duan_lu_jiao_zhun:
  32 0879 6475616E 		.ascii "duan lu jiaozhun"
  32      206C7520 
  32      6A69616F 
  32      7A68756E 
  33              	pi_pei_jiao_zhun:
  34 0889 70692070 		.ascii "pi pei jiao zhun"
  34      6569206A 
  34      69616F20 
ARM GAS  1.s 			page 2


  34      7A68756E 
  35 0899 00000000 		.align 4
  35      000000
  36              	cai_dan_biao:
  37 08a0 DD020000 		.word __cai_dan_0 +1
  38 08a4 DF020000 		.word __cai_dan_1 +1
  39 08a8 E1020000 		.word __cai_dan_2 +1
  40 08ac E3020000 		.word __cai_dan_3 +1
  41 08b0 E3020000 		.word __cai_dan_4 +1
  42 08b4 E3020000 		.word __cai_dan_5 +1
  43 08b8 E3020000 		.word __cai_dan_6 +1
  44              		
  45              		.equ STACKINIT,        	        0x20001000
  46              		.equ asciimabiao,		0x20000000
  47              		.equ fanshe_r,			0x200000dc
  48              		.equ fanshe_i,			0x200000e0
  49              		.equ rushe_r,			0x200000e4
  50              		.equ rushe_i,			0x200000e8
  51              		.equ liangcheng,		0x200000ec
  52              		.equ fuhao,			0x200000f0
  53              		.equ dmawan,			0x200000f4
  54              		.equ jishu2,			0x200000f8
  55              		.equ jishu,			0x200000fc
  56              		.equ dianzu,			0x20000100
  57              		.equ p_shibu,			0x20000104
  58              		.equ swr_shibu,			0x20000108
  59              		.equ bingliandianzu,		0x2000010c
  60              		.equ jiedianchangshushibu,	0x20000110
  61              		.equ diankang,			0x20000114
  62              		.equ p_xubu,			0x20000118
  63              		.equ swr_xubu,			0x2000011c
  64              		.equ bingliandiankang,		0x20000120
  65              		.equ jiedianchangshuxubu,	0x20000124
  66              		.equ fan_she_shi_bu,		0x20000128
  67              		.equ fan_she_xu_bu,		0x20000130
  68              		.equ ru_she_shi_bu,		0x20000138
  69              		.equ ru_she_xu_bu,		0x2000013c
  70              	        .equ zukangqiehuan,             0x20000140
  71              	        .equ caidan,                    0x20000144
  72              	        .equ an_jian_yan_shi,           0x20000148
  73              	        .equ tou_fan_qie_huan,          0x2000014c
  74              		.equ dianrongzhi,		0x20000150
  75              		.equ jiaodu,			0x20000154
  76              		.equ anjian,			0x20000158
  77              		.equ pm1,			0x2000015c
  78              		.equ pm1i,			0x20000160
  79              		.equ pm2,			0x20000164
  80              		.equ pm2i,			0x20000168
  81              		.equ pm3,			0x2000016c
  82              		.equ pm3i,			0x20000170
  83              		.equ kailu_r,			0x20000174
  84              		.equ kailu_i,			0x20000178
  85              		.equ duanlu_r,			0x2000017c
  86              		.equ duanlu_i,			0x20000180
  87              		.equ pipei_r,			0x20000184
  88              		.equ pipei_i,			0x20000188
  89              		.equ caidanzhizhen,		0x2000018c
ARM GAS  1.s 			page 3


  90              		.equ caidanyanshi,		0x20000190
  91              		.equ jiaozhunkaiguan,		0x20000194
  92              	        .equ dianyabiaozhizhen,         0x200001f8
  93              	        .equ dianyabiaoman,             0x200001fc
  94              		.equ dianyabiao,		0x20000200
  95              		.equ zhengxiangbiao,		0x20000390
  96              		.equ fanxiangbiao,		0x20000520
  97              	        .equ lvboqizhizhen,             0x20000a00
  98              	        .equ lvboqihuanchong,           0x20000a04
  99              	        .equ lvboqizhizhen1,            0x20000b08
 100              	        .equ lvboqihuanchong1,          0x20000b0c
 101              	        .equ lvboqizhizhen2,            0x20000c20
 102              	        .equ lvboqihuanchong2,          0x20000c24
 103              		.equ lvboqizhizhen3,            0x20000d30
 104              	        .equ lvboqihuanchong3,          0x20000d34
 105              		.equ kai_lu_r,			0x08002000
 106              		.equ kai_lu_i,			0x08002004
 107              		.equ duan_lu_r,			0x08002008
 108              		.equ duan_lu_i,			0x0800200c
 109              		.equ pi_pei_r,			0x08002010
 110              		.equ pi_pei_i,			0x08002014
 111              		.section .text
 112              	vectors:
 113 0000 00100020 		.word STACKINIT
 114 0004 B1000000 		.word _start + 1
 115 0008 950D0000 		.word _nmi_handler + 1
 116 000c 970D0000 		.word _hard_fault  + 1
 117 0010 00000000 		.word 0
 118 0014 00000000 		.word 0
 119 0018 00000000 		.word 0
 120 001c 00000000 		.word 0
 121 0020 00000000 		.word 0
 122 0024 00000000 		.word 0
 123 0028 00000000 		.word 0
 124 002c 990D0000 		.word _svc_handler +1
 125 0030 00000000 		.word 0
 126 0034 00000000 		.word 0
 127 0038 9B0D0000 		.word _pendsv_handler +1
 128 003c 9D0D0000 		.word _systickzhongduan +1           @ 15
 129 0040 9D0D0000 		.word aaa +1     @ _wwdg +1          @ 0
 130 0044 9D0D0000 		.word aaa +1     @_pvd +1            @ 1
 131 0048 9D0D0000 		.word aaa +1     @_rtc +1            @ 2
 132 004c 9D0D0000 		.word aaa +1     @_flash +1          @ 3
 133 0050 9D0D0000 		.word aaa +1	@ _rcc + 1           @ 4
 134 0054 9D0D0000 		.word aaa +1      @_exti0_1  +1      @ 5
 135 0058 9D0D0000 		.word aaa +1      @ _exti2_3 +1      @ 6
 136 005c 9D0D0000 		.word aaa +1       @_exti4_15 +1     @ 7
 137 0060 9D0D0000 		.word aaa +1                         @ 8
 138 0064 9D0D0000 		.word aaa +1	@__dma_wan  +1	     @ 9
 139 0068 9D0D0000 		.word aaa +1    @_dma1_2_3 +1        @ 10
 140 006c 9D0D0000 		.word aaa +1       @_dma1_4_5 +1     @ 11
 141 0070 9D0D0000 		.word aaa +1	 @_adc1 +1           @ 12
 142 0074 9D0D0000 		.word aaa +1       @_tim1_brk_up +1  @ 13
 143 0078 9D0D0000 		.word aaa +1        @ _tim1_cc +1    @ 14
 144 007c 9D0D0000 		.word aaa +1         @_tim2 +1       @ 15
 145 0080 9D0D0000 		.word aaa +1          @_tim3 +1      @ 16
 146 0084 9D0D0000 		.word aaa +1                         @ 17
ARM GAS  1.s 			page 4


 147 0088 9D0D0000 		.word aaa +1		             @ 18
 148 008c 9D0D0000 		.word aaa +1	@_tim14 +1           @ 19
 149 0090 9D0D0000 		.word aaa +1                         @ 20
 150 0094 9D0D0000 		.word aaa +1         @_tim16 +1      @ 21
 151 0098 9D0D0000 		.word aaa +1         @_tim17 +1      @ 22
 152 009c 9D0D0000 		.word aaa +1          @_i2c   +1     @ 23
 153 00a0 9D0D0000 		.word aaa +1                         @ 24
 154 00a4 9D0D0000 		.word aaa +1           @_spi   +1    @ 25
 155 00a8 9D0D0000 		.word aaa +1                         @ 26
 156 00ac 9D0D0000 		.word aaa +1         @_usart1 +1     @ 27
 157              		.align 2
 158              	_start:
 159              	shizhong:
 160 00b0 CF4A     	        ldr r2, = 0x40022000   @FLASH访问控制
 161 00b2 3221     	        movs r1, # 0x32
 162 00b4 1160     	        str r1, [r2]           @FLASH缓冲 缓冲开启
 163 00b6 CF48     	        ldr r0, = 0x40021000 @ rcc
 164 00b8 CF49     		ldr r1, = 0x10001
 165 00ba 0160     	        str r1, [r0]
 166              	denghse:
 167 00bc 0168     	        ldr r1, [r0]
 168 00be 8903     	        lsls r1, r1, # 14
 169 00c0 FCD5     	        bpl denghse
 170              	dengpllguan:
 171 00c2 0168     	        ldr r1, [r0]
 172 00c4 8901     		lsls r1, r1, # 6
 173 00c6 FCD4     		bmi dengpllguan
 174 00c8 CC49     		ldr r1, = 0x150002
 175 00ca 0046     		mov r0, r0
 176 00cc 4160     		str r1, [r0, # 0x04]
 177 00ce 0046     		mov r0, r0
 178 00d0 CB49     		ldr r1, = 0x1010000
 179 00d2 0046     		mov r0, r0
 180 00d4 0160     		str r1, [r0]
 181              	
 182              	dengpll:
 183 00d6 0168     	        ldr r1, [r0]
 184 00d8 8901     		lsls r1, # 6
 185 00da FCD5     		bpl dengpll
 186              	
 187              	
 188 00dc C949     		ldr r1, = 100
 189 00de 0163     		str r1, [r0, # 0x30]
 190              	_waisheshizhong:                         @ 外设时钟
 191              	        @+0x14=RCC_AHBENR
 192              		@ 0=DMA @ 2=SRAM @ 4=FLITF@ 6=CRC @ 17=PA @ 18=PB @ 19=PC @ 20=PD @ 22=PF
 193 00e0 C448     		ldr r0, = 0x40021000
 194 00e2 C949     		ldr r1, = 0x60001
 195 00e4 4161     	        str r1, [r0, # 0x14]
 196              	
 197              	        @+0x18外设时钟使能寄存器 (RCC_APB2ENR)
 198              	        @0=SYSCFG @5=USART6EN @9=ADC @11=TIM1 @12=SPI1 @14=USART1 @16=TIM15 @17=TIM16 @18=TIM17 @22
 199 00e6 C949     	        ldr r1, = 0xa00
 200 00e8 8161     		str r1, [r0, # 0x18]
 201              		@+0X1C=RCC_APB1ENR
 202              		@ 1=TIM3 @ 4=TIM6 @ 5=TIM7 @ 8=TIM14 @ 11=WWDG @ 14=SPI @ 17=USRT2 @ 18=USART3 @ 20=USART5 @ 21=I2
 203              		@ 22=I2C2 @ 23=USB @ 28=PWR
ARM GAS  1.s 			page 5


 204 00ea C94A     	        ldr r2, = 0x902
 205 00ec C261     	        str r2, [r0, # 0x1c]
 206              	
 207              	_neicunqingling:
 208 00ee C948     		ldr r0, = 0x20000000
 209 00f0 0021     		movs r1, # 0
 210 00f2 C94B     		ldr r3, = 0x1000
 211              	_neicunqinglingxunhuan:
 212 00f4 043B     		subs r3, # 4
 213 00f6 C150     		str r1, [r0, r3]
 214 00f8 FCD1     		bne _neicunqinglingxunhuan
 215              	_waishezhongduan:				@外设中断
 216              		@0xE000E100    0-31  写1开，写0没效
 217              		@0XE000E180    0-31 写1关，写0没效
 218              		@0XE000E200    0-31 挂起，写0没效
 219              		@0XE000E280    0-31 清除， 写0没效
 220 00fa C848     		ldr r0, =  0xe000e100
 221 00fc C849     		ldr r1, = 0x200 @0x10200  @ 0x10000
 222 00fe 0160     		str r1, [r0]
 223              	@_kanmengou:
 224              	@	ldr r0, = 0x40003000
 225              	@	ldr r1, = 0x5555
 226              	@	str r1, [r0]
 227              	@	movs r1, # 7
 228              	@	str r1, [r0, # 4]
 229              	@	ldr r1, = 0xfff
 230              	@	str r1, [r0, # 8]
 231              	@	ldr r1, = 0xaaaa
 232              	@	str r1, [r0]
 233              	@	ldr r1, = 0xcccc
 234              	@	str r1, [r0]
 235              	
 236              	
 237              	@_systick:				@ systick定时器初始化
 238              	@
 239              	@	ldr r0, = 0xe000e010
 240              	@	ldr r1, = 0xffffff
 241              	@	str r1, [r0, # 4]
 242              	@	str r1, [r0, # 8]	
 243              	@	movs r1, # 0x07
 244              	@	str r1, [r0]
 245              		
 246              	io_she_zhi:
 247              		@@@@@@@@@@@@@@@@@@@@@@@@@@@@@@@@@@@@@@@@@@@@@@@@@@@@@@@@@@@@@@@@@@@@@@@@@@@@@@@@@@@@@@@@@@@@@@
 248              		@a(0x48000000)b(0x48000400)c(0x48000800)d(0x48000c00)f(0x48001400)
 249              		@ 输入（00），通用输出（01），复用功能（10），模拟（11）
 250              		@偏移0x4 = 端口输出类型 @ （0 推挽），（ 1 开漏）
 251              		@偏移0x8 = 输出速度  00低速， 01中速， 11高速
 252              		@偏移0xC = 上拉下拉 (00无上下拉，  01 上拉， 10下拉)
 253              		@偏移0x10 = 输入数据寄存器
 254              		@偏移0x14 = 输出数据寄存器
 255              		@偏移0x18 = 端口开  0-15置位
 256              		@偏移0x28 = 端口关
 257              		@0X20 = 复用低
 258              		@GPIO口0（0-3位）每个IO口占用4位
 259              		@ AF0 = 0X0000, AF1 = 0X0001, AF2 = 0X0010 AF3 = 0X0011, AF4 = 0X0100
 260              		@ AF5 = 0X0101, AF6 = 0X0111, AF7 = 0X1000
ARM GAS  1.s 			page 6


 261              		@0x24 = 复用高
 262              		@GPIO口8 （0-3位）每个IO口占用4位
 263              		@ AF0 = 0X0000, AF1 = 0X0001, AF2 = 0X0010 AF3 = 0X0011, AF4 = 0X0100
 264              		@ AF5 = 0X0101, AF6 = 0X0111, AF7 = 0X1000
 265              		@@@@@@@@@@@@@@@@@@@@@@@@@@@@@@@@@@@@@@@@@@@@@@@@@@@@@@@@@@@@@@@@@@@@@@@@@@@@@@@@@@@@@@@@@@@@@@
 266              	
 267 0100 C848     		ldr r0, = 0x48000000
 268 0102 C949     		ldr r1, = 0x2824555f
 269 0104 0160     		str r1, [r0]
 270 0106 C949     		ldr r1, =  0x2fc
 271 0108 4160     		str r1, [r0, # 0x04]
 272 010a C549     		ldr r1, = 0x200
 273 010c 4162     		str r1, [r0, # 0x24]
 274              		
 275 010e C848     		ldr r0, = 0x48000400
 276 0110 0221     		movs r1, # 0x02
 277 0112 4160     		str r1, [r0, # 0x04]
 278 0114 0421     		movs r1, # 0x04
 279 0116 C160     		str r1, [r0, # 0x0c]
 280              	_lcdchushihua:
 281 0118 3320     		movs r0, # 0x33
 282 011a 0021     		movs r1, # 0
 283 011c 00F06DFC 		bl _xielcd
 284 0120 00F066FC 		bl _lcdyanshi
 285              	
 286 0124 3220     		movs r0, # 0x32
 287 0126 0021     		movs r1, # 0
 288 0128 00F067FC 		bl _xielcd
 289 012c 00F060FC 		bl _lcdyanshi
 290 0130 2820     		movs r0, # 0x28
 291 0132 0021     		movs r1, # 0
 292 0134 00F061FC 		bl _xielcd
 293 0138 00F05AFC 		bl _lcdyanshi
 294 013c 0C20     		movs r0, # 0x0c
 295 013e 0021     		movs r1, # 0
 296 0140 00F05BFC 		bl _xielcd
 297 0144 00F054FC 		bl _lcdyanshi
 298 0148 0120     		movs r0, # 0x01
 299 014a 0021     		movs r1, # 0
 300 014c 00F055FC 		bl _xielcd
 301 0150 00F04EFC 		bl _lcdyanshi
 302              	
 303 0154 8020     	        movs r0, # 0x80
 304 0156 B749     	        ldr r1, = yjmwxwx
 305 0158 1022     		movs r2, # 16
 306 015a 00F03BFC 	        bl _lcdxianshi
 307 015e B648     		ldr r0, = 0xffff
 308              	yjmwxwx_yanshi:
 309 0160 0138     		subs r0, r0, # 1
 310 0162 FDD1     		bne yjmwxwx_yanshi
 311              	
 312              	_adcchushihua:
 313 0164 B548     	        ldr r0, = 0x40012400  @ adc基地址
 314 0166 B649     	        ldr r1, = 0x80000000
 315 0168 8160     	        str r1, [r0, # 0x08]  @ ADC 控制寄存器 (ADC_CR)  @adc校准
 316              	_dengadcjiaozhun:
 317 016a 8168     	        ldr r1, [r0, # 0x08]
ARM GAS  1.s 			page 7


 318 016c 0900     	        movs r1, r1
 319 016e FCD4     	        bmi _dengadcjiaozhun   @ 等ADC校准
 320 0170 0121     		movs r1, # 1
 321 0172 0160     		str r1, [r0]
 322              	_kaiadc:
 323 0174 8168     	        ldr r1, [r0, # 0x08]
 324 0176 0122     	        movs r2, # 0x01
 325 0178 1143     	        orrs r1, r1, r2
 326 017a 8160     	        str r1, [r0, # 0x08]
 327              	_deng_adc_wen_ding:
 328 017c 0168     	        ldr r1, [r0]
 329 017e C907     	        lsls r1, r1, # 31
 330 0180 FCD5     	        bpl _deng_adc_wen_ding @ 等ADC稳定
 331              	_tongdaoxuanze:
 332 0182 B049     	        ldr r1, = 0x40000000
 333 0184 0161     	        str r1, [r0, # 0x10]
 334 0186 B049     	        ldr r1, = 0x02
 335 0188 8162     	        str r1, [r0, # 0x28]    @ 通道选择寄存器 (ADC_CHSELR)
 336 018a B049     	        ldr r1, = 0xc03 @ 0xc43		@TIM3 0x8c3 @0x2003 @0x8c3
 337 018c C160     	        str r1, [r0, # 0x0c]    @ 配置寄存器 1 (ADC_CFGR1)
 338 018e 0021     	        movs r1, # 0
 339 0190 4161     		str r1, [r0, # 0x14]    @ ADC 采样时间寄存器 (ADC_SMPR)
 340 0192 8168     	        ldr r1, [r0, # 0x08]
 341 0194 AE4A     	        ldr r2, = 0x04         @ 开始转换
 342 0196 1143     		orrs r1, r1, r2
 343 0198 8160     	        str r1, [r0, # 0x08]    @ 控制寄存器 (ADC_CR)
 344              	dmachushihua:
 345              	        @+0=LSR,+4=IFCR,
 346              	        @+8=CCR1,+c=CNDTR1,+10=CPAR1+14=CMAR1,
 347              	        @+1c=CCR2,+20=CNDTR2,+24=CPAR2,+28=CMAR2
 348              	        @+30=CCR3,+34=CNDTR3,+38=CPAR2,+3c=CMAR3
 349              	        @+44=CCR4,+48=CNDTR4,+4c=CPAR4,+50=CMAR4
 350              	        @+58=CCR5,+5c=CNDTR5,+60=CPAR5,+64=CMAR5
 351              	        @+6C=CCR6,+70=CNDTR6,+74=CPAR6,+78=CMAR6
 352              	        @+80=CCR7,+84=CNDTR7,+88=CPAR7,+8c=CMAR7
 353              	        @tim1ch3DMA
 354              	
 355              	        @tim1ch3DMA
 356 019a AE48     	        ldr r0, = 0x40020000
 357 019c AE49     	        ldr r1, = 0x40012c3c @ 外设地址
 358 019e 0166     	        str r1, [r0, # 0x60]
 359 01a0 AE49     	        ldr r1, = zheng_xian_200khz @ 储存器地址
 360 01a2 4166     	        str r1, [r0, # 0x64]
 361 01a4 AE49     	        ldr r1, = 200             @点数
 362 01a6 C165     	        str r1, [r0, # 0x5c]
 363 01a8 AE49     	        ldr r1, = 0x35b1         @ 储存到外设
 364 01aa 8165     	        str r1, [r0, # 0x58]
 365              	
 366              		@ adc dma
 367 01ac A948     		ldr r0, = 0x40020000
 368 01ae AE49     		ldr r1, = 0x40012440
 369 01b0 0161     		str r1, [r0, # 0x10]
 370 01b2 AE49     		ldr r1, = dianyabiao
 371 01b4 4161     		str r1, [r0, # 0x14]
 372 01b6 AA49     		ldr r1, = 200
 373 01b8 C160     		str r1, [r0, # 0x0c]
 374 01ba AD49     		ldr r1, = 0x5a1 @  0x583 	@ 5a1
ARM GAS  1.s 			page 8


 375 01bc 8160     		str r1, [r0, # 0x08]
 376              	
 377              		
 378              	tim1chushiha:				
 379 01be AD48     	        ldr r0, = 0x40012c00 @ tim1_cr1
 380 01c0 0021     	        movs r1, # 0
 381 01c2 8162     	        str r1, [r0, # 0x28] @ psc
 382 01c4 AC49     		ldr r1, = 13
 383 01c6 C162     	        str r1, [r0, # 0x2c] @ ARR
 384              		@movs r1, # 0x40
 385 01c8 2021     	        movs r1, # 0x20
 386 01ca 4160     	        str r1, [r0, # 0x04] @ TRGO
 387 01cc 3821     	        movs r1, # 0x38
 388 01ce 8161     	        str r1, [r0, # 0x18] @ ccmr1 cc1
 389 01d0 0D21     	        movs r1, # 13
 390 01d2 4163     	        str r1, [r0, # 0x34]
 391 01d4 A949     	        ldr r1, = 0x68
 392 01d6 C161     	        str r1, [r0, # 0x1c] @ ccmr2  CC3
 393 01d8 A949     		ldr r1, = 0x100    @  CC3
 394 01da 0162     		str r1, [r0, # 0x20] @ ccer
 395 01dc A949     		ldr r1, = 0x8000
 396 01de 4164     		str r1, [r0, # 0x44] @ BDTR
 397 01e0 A949     	        ldr r1, = 0x800 @ CC3 DMA
 398 01e2 C160     	        str r1, [r0, # 0x0c] @ DIER
 399 01e4 A949     	        ldr r1, = 0x81
 400 01e6 0160     		str r1, [r0]
 401              	
 402 01e8 8E48     		ldr r0,= 0x48000000
 403 01ea 1C21     		movs r1, # 0x1c
 404 01ec 8161     		str r1, [r0, # 0x18]
 405              	
 406              		
 407 01ee A848     		ldr r0, = 0xffffff
 408              	adc_yanshi:
 409 01f0 0138     		subs r0, r0, # 1
 410 01f2 FDD1     		bne adc_yanshi
 411 01f4 0120     	        movs r0, # 0x01
 412 01f6 0021     	        movs r1, # 0
 413 01f8 00F0FFFB 	        bl _xielcd
 414 01fc 00F0F8FB 		bl _lcdyanshi
 415              	
 416              		
 417              	ting:
 418 0200 8848     		ldr r0, = 0x48000000
 419 0202 8749     		ldr r1, = 0x200
 420 0204 8161     		str r1, [r0, # 0x18]
 421 0206 00F086F8 		bl __tong_dao_qie_huan
 422 020a A248     		ldr r0, = zhengxiangbiao
 423 020c A249     		ldr r1, = fanxiangbiao
 424 020e 00F0A3F8 		bl __DFT_ji_suan
 425 0212 0646     		mov r6, r0
 426 0214 0F46     		mov r7, r1
 427 0216 8348     		ldr r0, = 0x48000000
 428 0218 8149     	        ldr r1, = 0x200
 429 021a 8162     	        str r1, [r0, # 0x28]
 430 021c 00F07BF8 	        bl __tong_dao_qie_huan
 431 0220 9C48     		ldr r0, = zhengxiangbiao
ARM GAS  1.s 			page 9


 432 0222 9D49     		ldr r1, = fanxiangbiao
 433 0224 00F098F8 	        bl __DFT_ji_suan
 434              	
 435 0228 3246     		mov r2, r6
 436 022a 3B46     		mov r3, r7
 437 022c D243     		mvns r2, r2
 438 022e 0133     		adds r3, r3, # 1
 439 0230 DB43     		mvns r3, r3
 440 0232 0133     		adds r3, r3, # 1
 441 0234 00F06CFC 		bl __fu_shu_chu_fa
 442 0238 1346     		mov r3, r2
 443 023a 0F46     		mov r7, r1
 444 023c 9748     	        ldr r0, = lvboqihuanchong
 445 023e 9849     	        ldr r1, = 128
 446 0240 984A     	        ldr r2, = lvboqizhizhen
 447 0242 00F0B3FB 	        bl _lvboqi
 448              	
 449 0246 3B46     		mov r3, r7
 450 0248 0746     		mov r7, r0
 451              	
 452 024a 9748     	        ldr r0, = lvboqihuanchong2
 453 024c 9449     	        ldr r1, = 128
 454 024e 974A     	        ldr r2, = lvboqizhizhen2
 455 0250 00F0ACFB 	        bl _lvboqi
 456 0254 0146     		mov r1, r0
 457 0256 3A46     		mov r2, r7
 458              		
 459 0258 954C     		ldr r4, = dianzu
 460 025a 964D     		ldr r5, = diankang
 461 025c 2260     		str r2, [r4]
 462 025e 2960     		str r1, [r5]
 463              	
 464              	
 465              	__xianshi_zukang:	
 466 0260 8F20     	        movs r0, # 0x8f
 467 0262 9549     		ldr r1, = ou
 468 0264 0122     	        movs r2, # 1
 469 0266 00F0B5FB 	        bl _lcdxianshi
 470 026a 9148     		ldr r0, = dianzu	@dianzu
 471 026c 0168     		ldr r1, [r0]
 472 026e 0C00     	       movs r4, r1
 473 0270 07D5     		bpl __dian_zu_bu_shi_zheng
 474 0272 8020     		movs r0, # 0x80
 475 0274 9149     	        ldr r1, = _fu
 476 0276 0122     	        movs r2, # 1
 477 0278 00F0ACFB 	        bl _lcdxianshi
 478 027c E443     	        mvns r4, r4
 479 027e 0134     	        adds r4, r4, # 1
 480 0280 04E0     	        b __xian_shi_dian_zu
 481              	__dian_zu_bu_shi_zheng:
 482 0282 8020     		movs r0, # 0x80
 483 0284 8E49     		ldr r1, = kong
 484 0286 0122     		movs r2, # 1
 485 0288 00F0A4FB 	        bl _lcdxianshi
 486              	__xian_shi_dian_zu:
 487 028c 2046     	        mov r0, r4
 488 028e 0A21     	        movs r1, # 10
ARM GAS  1.s 			page 10


 489 0290 604A     	        ldr r2, = asciimabiao
 490 0292 FF23     	        movs r3, # 0xff
 491 0294 00F0EDFB 	        bl _zhuanascii
 492 0298 8120     	        movs r0, # 0x81
 493 029a 5E49     	        ldr r1, = asciimabiao
 494 029c 0A22     	        movs r2, # 10
 495 029e 00F099FB 	        bl _lcdxianshi
 496              	
 497 02a2 8448     	        ldr r0, = diankang	@diankang
 498 02a4 0168     	        ldr r1, [r0]
 499 02a6 0C00     	       movs r4, r1
 500 02a8 07D5     	        bpl __dian_kang_bu_shi_zheng
 501 02aa C020     	        movs r0, # 0xc0
 502 02ac 8349     	        ldr r1, = _fu
 503 02ae 0122     	        movs r2, # 1
 504 02b0 00F090FB 	        bl _lcdxianshi
 505 02b4 E443     	        mvns r4, r4
 506 02b6 0134     	        adds r4, r4, # 1
 507 02b8 04E0     	        b __xian_shi_dian_kang
 508              	__dian_kang_bu_shi_zheng:
 509 02ba C020     	        movs r0, # 0xc0
 510 02bc 8049     	        ldr r1, = kong
 511 02be 0122     	        movs r2, # 1
 512 02c0 00F088FB 	        bl _lcdxianshi
 513              	__xian_shi_dian_kang:
 514 02c4 2046     	        mov r0, r4
 515 02c6 0A21     	        movs r1, # 10
 516 02c8 524A     	        ldr r2, = asciimabiao
 517 02ca FF23     	        movs r3, # 0xff
 518 02cc 00F0D1FB 	        bl _zhuanascii
 519 02d0 C120     	        movs r0, # 0xc1
 520 02d2 5049     	        ldr r1, = asciimabiao
 521 02d4 0A22     	        movs r2, # 10
 522 02d6 00F07DFB 	        bl _lcdxianshi
 523 02da 91E7     		b ting
 524              	
 525              		
 526              	__cai_dan_0:
 527              	
 528 02dc FEE7     		b __cai_dan_0
 529              	
 530              	__cai_dan_1:
 531 02de FEE7     		b __cai_dan_1
 532              	__cai_dan_2:
 533 02e0 FEE7     		b __cai_dan_2
 534              	__cai_dan_3:
 535              	
 536              	__cai_dan_4:
 537              	__cai_dan_5:
 538              	__cai_dan_6:
 539              	
 540              		
 541              	__cai_dan_diao_du:
 542 02e2 F446     	        mov r12, lr
 543 02e4 7749     	        ldr r1, = caidanzhizhen
 544 02e6 7848     	        ldr r0, = caidanyanshi
 545 02e8 0A68     	        ldr r2, [r1]
ARM GAS  1.s 			page 11


 546 02ea 0368     	        ldr r3, [r0]
 547 02ec 0133     	        adds r3, r3, #1
 548 02ee 0A2B     		cmp r3, # 10
 549 02f0 01D8     	        bhi __cai_dan_zhi_zhen_jia
 550 02f2 0360     	        str r3, [r0]
 551 02f4 E746     	        mov pc, r12
 552              	__cai_dan_zhi_zhen_jia:
 553 02f6 0023     	        movs r3, # 0
 554 02f8 0360     	        str r3, [r0]
 555 02fa 0432     	        adds r2, r2, # 4
 556 02fc 142A     		cmp r2, # 0x14
 557 02fe 00D9     	        bls __cai_dan_qie_huan
 558 0300 0022     	        movs r2, # 0
 559              	__cai_dan_qie_huan:
 560 0302 0A60     	        str r2, [r1]
 561 0304 0120     		movs r0, # 0x01
 562 0306 0021     	        movs r1, # 0
 563 0308 00F077FB 	        bl _xielcd
 564 030c 00F070FB 		bl _lcdyanshi
 565 0310 6E48     	        ldr r0, = cai_dan_biao
 566 0312 8158     	        ldr r1, [r0, r2]
 567 0314 8F46     		mov pc, r1
 568              	__tong_dao_qie_huan:
 569 0316 0FB5     		push {r0-r3,lr}
 570 0318 5448     		ldr r0, = dianyabiao
 571 031a 6D4B     		ldr r3, = 0x40012428
 572 031c 0121     		movs r1, # 0x01
 573 031e 1960     		str r1, [r3]
 574 0320 00F00DF8 		bl __tong_dao_qie_huan_yan_shi
 575 0324 5B49     		ldr r1, = zhengxiangbiao
 576 0326 C822     		movs r2, # 200
 577 0328 00F00EF8 		bl __fu_zhi_nei_cun
 578 032c 0221     		movs r1, # 0x02
 579 032e 1960     		str r1, [r3]
 580 0330 00F005F8 		bl __tong_dao_qie_huan_yan_shi
 581 0334 5849     		ldr r1, = fanxiangbiao
 582 0336 C822     		movs r2, # 200
 583 0338 00F006F8 		bl __fu_zhi_nei_cun
 584 033c 0FBD     		pop {r0-r3,pc}
 585              		
 586              	__tong_dao_qie_huan_yan_shi:
 587 033e 80B5     		push {r7,lr}
 588 0340 3D4F     		ldr r7, = 0xffff
 589              	__tong_dao_qie_huan_yan_shi_xun_huan:
 590 0342 013F     		subs r7, r7, # 1
 591 0344 FDD1     		bne __tong_dao_qie_huan_yan_shi_xun_huan
 592 0346 80BD     		pop {r7,pc}
 593              	__fu_zhi_nei_cun:
 594              		@ 入口 R0 = 要复制的地址，R1=目标地址，R2=复制的数量
 595 0348 18B5     		push {r3-r4,lr}
 596 034a 0024     		movs r4, # 0
 597              	__fu_zhi_xun_huan:	
 598 034c 035B     		ldrh r3, [r0, r4]
 599 034e 0B53     		strh r3, [r1, r4]
 600 0350 0234     		adds r4, r4, # 2
 601 0352 013A     		subs r2, r2, # 1
 602 0354 FAD1     		bne __fu_zhi_xun_huan
ARM GAS  1.s 			page 12


 603 0356 18BD     		pop {r3-r4,pc}
 604              	__DFT_ji_suan:
 605              		@入口R0=正相表，R1=反相表
 606 0358 FCB5     		push {r2-r7,lr}
 607 035a 4446     		mov r4, r8
 608 035c 4D46     		mov r5, r9
 609 035e 5646     		mov r6, r10
 610 0360 70B4     		push {r4-r6}
 611 0362 0026     		movs r6, # 0
 612 0364 B046     		mov r8, r6
 613 0366 B146     		mov r9, r6
 614 0368 C822     		movs r2, # 200
 615 036a 9218     		adds r2, r2, r2
 616 036c 9246     		mov r10, r2
 617 036e 3246     		mov r2, r6
 618              	__ji_suan_dft_xun_huan:
 619 0370 835A     		ldrh r3, [r0, r2]
 620 0372 8C5A     		ldrh r4, [r1, r2]
 621 0374 002B     		cmp r3, # 0
 622 0376 00D0     		beq __qu_fan_r4
 623 0378 02E0     		b __ji_suan_dft
 624              	__qu_fan_r4:
 625 037a E443     		mvns r4, r4
 626 037c 0134     		adds r4, r4, # 1
 627 037e 2346     		mov r3, r4
 628              	__ji_suan_dft:
 629 0380 544D     		ldr r5, = xuan_zhuan_yin_zi
 630 0382 AF59     		ldr r7, [r5, r6]
 631 0384 0436     		adds r6, r6, # 4
 632 0386 5F43     		muls r7, r7, r3		@ 实部
 633 0388 FF13     		asrs r7, r7, # 15
 634 038a 4446     		mov r4, r8
 635 038c E419     		adds r4, r4, r7
 636 038e A046     		mov r8, r4
 637 0390 AF59     		ldr r7, [r5, r6]
 638 0392 0436     		adds r6, r6, # 4
 639 0394 5F43     		muls r7, r7, r3		@ 虚部
 640 0396 FF13     		asrs r7, r7, # 15
 641 0398 4C46     		mov r4, r9
 642 039a E419     		adds r4, r4, r7
 643 039c A146     		mov r9, r4
 644 039e 0232     		adds r2, r2, # 2
 645 03a0 5245     		cmp r2, r10
 646 03a2 E5D1     		bne __ji_suan_dft_xun_huan
 647 03a4 4046     		mov r0, r8
 648 03a6 4946     		mov r1, r9
 649 03a8 70BC     		pop {r4-r6}
 650 03aa A046     		mov r8, r4
 651 03ac A946     		mov r9, r5
 652 03ae B246     		mov r10, r6
 653 03b0 FCBD     		pop {r2-r7,pc}
 654              	__xian_shi_jiao_du:
 655 03b2 1FB5     		push {r0-r4,lr}
 656 03b4 4848     	       ldr r0, = jiaodu
 657 03b6 0168     	        ldr r1, [r0]
 658 03b8 0C00     	       movs r4, r1
 659 03ba 07D5     	        bpl __jiaodu_bu_shi_zheng
ARM GAS  1.s 			page 13


 660 03bc 8720     	        movs r0, # 0x87
 661 03be 3F49     	        ldr r1, = _fu
 662 03c0 0122     	        movs r2, # 1
 663 03c2 00F007FB 	        bl _lcdxianshi
 664 03c6 E443     	        mvns r4, r4
 665 03c8 0134     		adds r4, r4, # 1
 666 03ca 04E0     	        b __xian_shi_jiaodu
 667              	__jiaodu_bu_shi_zheng:
 668 03cc 8720     	        movs r0, # 0x87
 669 03ce 3C49     		ldr r1, = kong
 670 03d0 0122     		movs r2, # 1
 671 03d2 00F0FFFA 	        bl _lcdxianshi
 672              	__xian_shi_jiaodu:
 673 03d6 2046     	        mov r0, r4
 674 03d8 0521     	        movs r1, # 5
 675 03da 0E4A     		ldr r2, = asciimabiao
 676 03dc FF23     	        movs r3, # 0xff
 677 03de 00F048FB 	        bl _zhuanascii
 678 03e2 8820     		movs r0, # 0x88
 679 03e4 0B49     	        ldr r1, = asciimabiao
 680 03e6 0522     		movs r2, # 5
 681 03e8 00F0F4FA 		bl _lcdxianshi
 682 03ec 1FBD     		pop {r0-r4,pc}
 683 03ee 00000020 	        .ltorg
 683      02400010 
 683      02400100 
 683      01000200 
 683      15000000 
 684              	
 685              	__xian_shi_fan_she_xi_shu:
 686 04dc 1FB5     		push {r0-r4,lr}
 687 04de B148     	        ldr r0, = p_shibu       
 688 04e0 0168     	        ldr r1, [r0]
 689 04e2 0C00     	       movs r4, r1
 690 04e4 07D5     	        bpl __p_shibu_bu_shi_zheng
 691 04e6 C020     	        movs r0, # 0xc0
 692 04e8 AF49     	        ldr r1, = _fu
 693 04ea 0122     	        movs r2, # 1
 694 04ec 00F072FA 	        bl _lcdxianshi
 695 04f0 E443     	        mvns r4, r4
 696 04f2 0134     	        adds r4, r4, # 1
 697 04f4 04E0     	        b __xian_shi_p_shibu
 698              	__p_shibu_bu_shi_zheng:
 699 04f6 C020     	        movs r0, # 0xc0
 700 04f8 AC49     	        ldr r1, = kong
 701 04fa 0122     		movs r2, # 1
 702 04fc 00F06AFA 	        bl _lcdxianshi
 703              	__xian_shi_p_shibu:
 704 0500 2046     	        mov r0, r4
 705 0502 0521     	        movs r1, # 5
 706 0504 AA4A     	        ldr r2, = asciimabiao
 707 0506 0123     	        movs r3, # 1
 708 0508 00F0B3FA 		bl _zhuanascii
 709 050c C120     		movs r0, # 0xc1
 710 050e A849     	        ldr r1, = asciimabiao
 711 0510 0522     	        movs r2, # 5
 712 0512 00F05FFA 	        bl _lcdxianshi
ARM GAS  1.s 			page 14


 713              	
 714 0516 A748     	        ldr r0, = p_xubu
 715 0518 0168     	        ldr r1, [r0]
 716 051a 0C00     	       movs r4, r1
 717 051c 07D5     	        bpl __p_xubu_bu_shi_zheng
 718 051e C620     	        movs r0, # 0xc6
 719 0520 A149     	        ldr r1, = _fu
 720 0522 0122     	        movs r2, # 1
 721 0524 00F056FA 	        bl _lcdxianshi
 722 0528 E443     	        mvns r4, r4
 723 052a 0134     	        adds r4, r4, # 1
 724 052c 04E0     	        b __xian_shi_p_xubu
 725              	__p_xubu_bu_shi_zheng:
 726 052e C620     	        movs r0, # 0xc6
 727 0530 9E49     	        ldr r1, = kong
 728 0532 0122     		movs r2, # 1
 729 0534 00F04EFA 	        bl _lcdxianshi
 730              	__xian_shi_p_xubu:
 731 0538 2046     	        mov r0, r4
 732 053a 0521     	        movs r1, # 5
 733 053c 9C4A     	        ldr r2, = asciimabiao
 734 053e 0123     	        movs r3, # 1
 735 0540 00F097FA 		bl _zhuanascii
 736 0544 C720     		movs r0, # 0xc7
 737 0546 9A49     	        ldr r1, = asciimabiao
 738 0548 0522     	        movs r2, # 5
 739 054a 00F043FA 	        bl _lcdxianshi
 740 054e 1FBD     		pop {r0-r4,pc}
 741              	_xieflash:			@ flsh解锁
 742 0550 9948     		ldr r0, = 0x40022000
 743 0552 9A49     		ldr r1, = 0x45670123
 744 0554 4160     		str r1, [r0, # 0x04]
 745 0556 9A49     		ldr r1, = 0xcdef89ab
 746 0558 4160     		str r1, [r0, # 0x04]
 747              						@擦除2页
 748 055a 0125     		movs r5, # 1
 749 055c 994C     		ldr r4, = 0x8002000
 750 055e 0127     		movs r7, # 1
 751 0560 BF02     		lsls r7, r7, # 10
 752              	_flashmang:
 753 0562 C268     		ldr r2, [r0, # 0x0c]
 754 0564 D207     		lsls r2, r2, # 31
 755 0566 FCD4     		bmi _flashmang
 756 0568 0221     		movs r1, # 2
 757 056a 0161     		str r1, [r0, # 0x10]
 758 056c 4461     		str r4, [r0, # 0x14]
 759 056e 4221     		movs r1, # 0x42
 760 0570 0161     		str r1, [r0, # 0x10]
 761 0572 3C44     		add r4, r4, r7
 762 0574 013D     		subs r5, # 1
 763 0576 F4D1     		bne _flashmang
 764              							@写FLASH
 765 0578 924F     		ldr r7, = 0x8002000
 766 057a 934C     		ldr r4, = kailu_r
 767 057c 0025     		movs r5, # 0
 768 057e 0626     		movs r6, # 0x06
 769              	_flashmang1:
ARM GAS  1.s 			page 15


 770 0580 C268     		ldr r2, [r0, # 0x0c]
 771 0582 D207     		lsls r2, r2, # 31
 772 0584 FCD4     		bmi _flashmang1
 773 0586 0121     		movs r1, # 1
 774 0588 0161     		str r1, [r0, # 0x10]
 775 058a 635B     		ldrh r3, [r4, r5]
 776 058c 7B53     		strh r3, [r7, r5]
 777 058e 0235     		adds r5, r5, # 2
 778              	_flashmang2:
 779 0590 C268     		ldr r2, [r0, # 0x0c]
 780 0592 D207     		lsls r2, r2, # 31
 781 0594 FCD4     		bmi _flashmang2
 782 0596 635B     		ldrh r3, [r4, r5]
 783 0598 7B53     		strh r3, [r7, r5]
 784 059a 0235     		adds r5, r5, # 2
 785 059c 013E     		subs r6, r6, # 1
 786 059e EFD1     		bne _flashmang1
 787              	_flashmang4:
 788 05a0 C268     		ldr r2, [r0, # 0x0c]
 789 05a2 D207     		lsls r2, r2, # 31
 790 05a4 FCD4     		bmi _flashmang4
 791 05a6 8021     		movs r1, # 0x80
 792              		@str r1, [r0]          		@flsh上锁
 793 05a8 8848     		ldr r0, = 0xe000ed0c
 794 05aa 8949     		ldr r1, = 0x05fa0004
 795 05ac 0160     		str r1, [r0]          		@复位
 796              		
 797              	__jiaozhun:	@校准开路短路匹配误差
 798 05ae FFB5     		push {r0-r7,lr}
 799 05b0 00F037F8 		bl __det
 800 05b4 0246     		mov r2, r0
 801 05b6 0B46     		mov r3, r1
 802 05b8 1646     		mov r6, r2
 803 05ba 1F46     		mov r7, r3
 804 05bc 00F03DF8 		bl __det1
 805 05c0 0B46     		mov r3, r1
 806 05c2 8449     		ldr r1, = 1000
 807 05c4 00F07DFB 		bl __chu_fa
 808 05c8 0446     		mov r4, r0
 809 05ca 1846     		mov r0, r3
 810 05cc 00F079FB 		bl __chu_fa
 811 05d0 0146     		mov r1, r0
 812 05d2 2046     		mov r0, r4
 813 05d4 3246     		mov r2, r6
 814 05d6 3B46     		mov r3, r7
 815 05d8 00F09AFA 		bl __fu_shu_chu_fa
 816 05dc 7A4C     		ldr r4, = kailu_r
 817 05de 7E4D     		ldr r5, = kailu_i
 818 05e0 2260     		str r2, [r4]
 819 05e2 2960     		str r1, [r5]
 820 05e4 00F045F8 		bl __det2
 821 05e8 3246     		mov r2, r6
 822 05ea 3B46     		mov r3, r7
 823 05ec 00F090FA 		bl __fu_shu_chu_fa
 824 05f0 7A4C     		ldr r4, = duanlu_r
 825 05f2 7B4D     		ldr r5, = duanlu_i
 826 05f4 2260     		str r2, [r4]
ARM GAS  1.s 			page 16


 827 05f6 2960     		str r1, [r5]
 828 05f8 00F05BF8 		bl __det3
 829 05fc 0C46     		mov r4, r1
 830 05fe 7549     		ldr r1, = 1000
 831 0600 00F05FFB 		bl __chu_fa
 832 0604 0346     		mov r3, r0
 833 0606 2046     		mov r0, r4
 834 0608 00F05BFB 		bl __chu_fa
 835 060c 0146     		mov r1, r0
 836 060e 1846     		mov r0, r3
 837 0610 3246     		mov r2, r6
 838 0612 3B46     		mov r3, r7
 839 0614 00F07CFA 		bl __fu_shu_chu_fa
 840 0618 724C     		ldr r4, = pipei_r
 841 061a 734D     		ldr r5, = pipei_i
 842 061c 2260     		str r2, [r4]
 843 061e 2960     		str r1, [r5]
 844 0620 FFBD     		pop {r0-r7,pc}
 845              	__det:
 846 0622 FCB5     		push {r2-r7,lr}
 847              		@a b c
 848              		@d e f
 849              		@g h i
 850              		@a*e
 851              		@ae*i=0
 852              		@b*f
 853 0624 7148     		ldr r0, = pm1
 854 0626 7249     		ldr r1, = pm1i
 855 0628 0068     		ldr r0, [r0]
 856 062a 0968     		ldr r1, [r1]
 857              		@bf*g
 858              		@d*h=0
 859              		@dh*c=0
 860              		@g*e
 861 062c 714A     		ldr r2, = pm2
 862 062e 724B     		ldr r3, = pm2i
 863 0630 1268     		ldr r2, [r2]
 864 0632 1B68     		ldr r3, [r3]
 865              		@ge*c
 866              		@h*f=0
 867              		@hf*a=0
 868              		@d*b
 869              		@db*i=0
 870              		@a*e*i+b*f*g+d*h*c-g*e*c-h*f*a-d*b*i
 871 0634 801A     		subs r0, r0, r2
 872 0636 C91A     		subs r1, r1, r3
 873 0638 FCBD     		pop {r2-r7,pc}
 874              	__det1:
 875 063a FCB5     	        push {r2-r7,lr}
 876              	        @a b c
 877              	        @d e f
 878              	        @g h i
 879              	        @a*e
 880              	        @ae*i=0
 881              	        @b*f
 882 063c 6B48     	        ldr r0, = pm1
 883 063e 6C49     	        ldr r1, = pm1i
ARM GAS  1.s 			page 17


 884 0640 0068     	        ldr r0, [r0]
 885 0642 0968     	        ldr r1, [r1]
 886              	        @bf*g
 887 0644 6D4A     		ldr r2, = pm3
 888 0646 6E4B     		ldr r3, = pm3i
 889 0648 1268     		ldr r2, [r2]
 890 064a 1B68     		ldr r3, [r3]
 891 064c 1446     		mov r4, r2
 892 064e 1D46     		mov r5, r3
 893 0650 00F069F8 		bl __fu_shu_cheng_fa
 894 0654 0646     		mov r6, r0
 895 0656 0F46     		mov r7, r1
 896              	        @d*h=0
 897              	        @dh*c=0
 898              	        @g*e
 899 0658 6648     	        ldr r0, = pm2
 900 065a 6749     	        ldr r1, = pm2i
 901 065c 0068     	        ldr r0, [r0]
 902 065e 0968     	        ldr r1, [r1]
 903 0660 2246     		mov r2, r4
 904 0662 2B46     		mov r3, r5
 905 0664 00F05FF8 		bl __fu_shu_cheng_fa
 906              	        @ge*c
 907              	        @h*f=0
 908              	        @hf*a=0
 909              	        @d*b
 910              	        @db*i=0
 911              	        @a*e*i+b*f*g+d*h*c-g*e*c-h*f*a-d*b*i
 912 0668 361A     	        subs r6, r6, r0
 913 066a 7F1A     	        subs r7, r7, r1
 914 066c 3046     		mov r0, r6
 915 066e 3946     		mov r1, r7
 916 0670 FCBD     	        pop {r2-r7,pc}
 917              	__det2:	
 918 0672 FCB5     	        push {r2-r7,lr}
 919              	        @a b c
 920              	        @d e f
 921              	        @g h i
 922              	        @a*e
 923              	        @ae*i=0
 924              	        @b*f
 925 0674 5D48     	        ldr r0, = pm1
 926 0676 5E49     	        ldr r1, = pm1i
 927 0678 0068     	        ldr r0, [r0]
 928 067a 0968     	        ldr r1, [r1]
 929              	        @bf*g
 930              	        @d*h
 931 067c 5F4C     		ldr r4, = pm3
 932 067e 604D     		ldr r5, = pm3i
 933 0680 2468     		ldr r4, [r4]
 934 0682 2D68     		ldr r5, [r5]
 935              	        @dh*c
 936 0684 E443     		mvns r4, r4
 937 0686 0134     		adds r4, r4, # 1
 938 0688 ED43     		mvns r5, r5
 939 068a 0135     		adds r5, r5, # 1
 940              	        @g*e
ARM GAS  1.s 			page 18


 941 068c 594A     	        ldr r2, = pm2
 942 068e 5A4B     	        ldr r3, = pm2i
 943 0690 1268     	        ldr r2, [r2]
 944 0692 1B68     	        ldr r3, [r3]
 945              	        @ge*c
 946 0694 D243     		mvns r2, r2
 947 0696 0132     		adds r2, r2, # 1
 948 0698 DB43     		mvns r3, r3
 949 069a 0133     		adds r3, r3, # 1
 950              		@h*f
 951 069c 574E     		ldr r6, = pm3
 952 069e 584F     		ldr r7, = pm3i
 953 06a0 3668     		ldr r6, [r6]
 954 06a2 3F68     		ldr r7, [r7]
 955              	        @hf*a
 956              	        @d*b
 957              		@db*i=0
 958              		@a*e*i+b*f*g+d*h*c-g*e*c-h*f*a-d*b*i
 959 06a4 0019     		adds r0, r0, r4
 960 06a6 4919     		adds r1, r1, r5
 961 06a8 801A     		subs r0, r0, r2
 962 06aa C91A     		subs r1, r1, r3
 963 06ac 801B     		subs r0, r0, r6
 964 06ae C91B     		subs r1, r1, r7
 965 06b0 FCBD     		pop {r2-r7,pc}
 966              	__det3:
 967 06b2 FCB5     	        push {r2-r7,lr}
 968              	        @a b c
 969              	        @d e f
 970              	        @g h i
 971              	        @a*e
 972 06b4 4F48     		ldr r0, = pm2
 973 06b6 5049     		ldr r1, = pm2i
 974 06b8 0068     		ldr r0, [r0]
 975 06ba 0968     		ldr r1, [r1]
 976 06bc 0446     		mov r4, r0
 977 06be 0D46     		mov r5, r1
 978 06c0 C043     		mvns r0, r0
 979 06c2 0130     		adds r0, r0, # 1
 980 06c4 C943     		mvns r1, r1
 981 06c6 0131     		adds r1, r1, # 1
 982              	        @ae*i
 983 06c8 4C4A     		ldr r2, = pm3
 984 06ca 4D4B     		ldr r3, = pm3i
 985 06cc 1268     		ldr r2, [r2]
 986 06ce 1B68     		ldr r3, [r3]
 987 06d0 00F029F8 		bl __fu_shu_cheng_fa
 988 06d4 03B4     		push {r0-r1}
 989              	        @b*f
 990 06d6 4548     	        ldr r0, = pm1
 991 06d8 4549     	        ldr r1, = pm1i
 992 06da 0068     	        ldr r0, [r0]
 993 06dc 0968     	        ldr r1, [r1]
 994 06de 0646     		mov r6, r0
 995 06e0 0F46     		mov r7, r1
 996 06e2 2246     		mov r2, r4
 997 06e4 2B46     		mov r3, r5
ARM GAS  1.s 			page 19


 998 06e6 00F01EF8 		bl __fu_shu_cheng_fa
 999 06ea 03B4     		push {r0-r1}
 1000              	        @bf*g
 1001              	        @d*h=0
 1002              	        @dh*c=0
 1003              	        @g*e
 1004 06ec 3046     		mov r0, r6
 1005 06ee 3946     		mov r1, r7
 1006 06f0 E243     		mvns r2, r4
 1007 06f2 0132     		adds r2, r2, # 1
 1008 06f4 EB43     		mvns r3, r5
 1009 06f6 0133     		adds r3, r3, # 1
 1010              	        @ge*c
 1011 06f8 00F015F8 		bl __fu_shu_cheng_fa
 1012 06fc 03B4     		push {r0-r1}
 1013              		@h*f=0
 1014              	        @hf*a=0
 1015              	        @d*b
 1016 06fe 3246     		mov r2, r6
 1017 0700 3B46     		mov r3, r7
 1018              		@db*i
 1019 0702 3E48     		ldr r0, = pm3
 1020 0704 3E49     		ldr r1, = pm3i
 1021 0706 0068     		ldr r0, [r0]
 1022 0708 0968     		ldr r1, [r1]
 1023 070a 00F00CF8 		bl __fu_shu_cheng_fa
 1024 070e 0646     		mov r6, r0
 1025 0710 0F46     		mov r7, r1
 1026 0712 30BC     		pop {r4-r5}
 1027 0714 0CBC     		pop {r2-r3}
 1028 0716 03BC     		pop {r0-r1}
 1029              		@a*e*i+b*f*g+d*h*c-g*e*c-h*f*a-d*b*i
 1030 0718 8018     		adds r0, r0, r2
 1031 071a C918     		adds r1, r1, r3
 1032 071c 001B     		subs r0, r0, r4
 1033 071e 491B     		subs r1, r1, r5
 1034 0720 801B     		subs r0, r0, r6
 1035 0722 C91B     		subs r1, r1, r7
 1036 0724 FCBD     		pop {r2-r7,pc}
 1037              	__fu_shu_cheng_fa:
 1038 0726 FCB5     		push {r2-r7,lr}
 1039              		@r0=a,r1=b,r2=c,r3=d
 1040 0728 0446     	        mov r4, r0      @a
 1041 072a 0D46     	        mov r5, r1      @b
 1042 072c 1646     		mov r6, r2	@c
 1043 072e 1F46     		mov r7, r3	@d
 1044 0730 5043     	        muls r0, r0, r2 @a*c
 1045 0732 5943     		muls r1, r1, r3 @b*d
 1046 0734 401A     	        subs r0, r0, r1 @ac-bd
 1047 0736 7C43     	        muls r4, r4, r7 @a*d
 1048 0738 7543     	        muls r5, r5, r6 @b*c
 1049 073a 6419     	        adds r4, r4, r5 @ad+bc
 1050 073c 2146     		mov r1, r4
 1051 073e FCBD     		pop {r2-r7,pc}
 1052              	__osm_jiao_zhun:
 1053 0740 F9B5     		push {r0,r3-r7,lr}
 1054 0742 1848     		ldr r0, = p_shibu
ARM GAS  1.s 			page 20


 1055 0744 1B49     		ldr r1, = p_xubu
 1056 0746 0068     		ldr r0, [r0]
 1057 0748 0968     		ldr r1, [r1]
 1058              	@	ldr r0, = -188
 1059              	@	ldr r1, = 247
 1060 074a 0446     		mov r4, r0	@a
 1061 074c 0D46     		mov r5, r1	@b
 1062 074e 1D4A     		ldr r2, = kai_lu_r 	@开路R
 1063 0750 2C4B     		ldr r3, = kai_lu_i	@开路I
 1064 0752 1268     		ldr r2, [r2]
 1065 0754 1B68     		ldr r3, [r3]
 1066 0756 2C4E     		ldr r6, = duan_lu_r	@c	@短路R
 1067 0758 2C4F     		ldr r7, = duan_lu_i	@d	@短路I
 1068 075a 3668     		ldr r6, [r6]
 1069 075c 3F68     		ldr r7, [r7]
 1070 075e 801A     		subs r0, r0, r2
 1071 0760 C91A     		subs r1, r1, r3
 1072 0762 2246     		mov r2, r4	@a
 1073 0764 2B46     		mov r3, r5	@b
 1074 0766 7443     		muls r4, r4, r6	@a*c
 1075 0768 7D43     		muls r5, r5, r7	@b*d
 1076 076a 641B     		subs r4, r4, r5	@ac-bd
 1077 076c 7A43     		muls r2, r2, r7	@a*d
 1078 076e 7343     		muls r3, r3, r6	@b*c
 1079 0770 D218     		adds r2, r2, r3	@ad+bc
 1080 0772 0746     		mov r7, r0
 1081 0774 0B46     		mov r3, r1
 1082 0776 2046     		mov r0, r4
 1083 0778 1649     		ldr r1, = 1000
 1084 077a 00F0A2FA 		bl __chu_fa
 1085 077e 0446     		mov r4, r0
 1086 0780 1046     		mov r0, r2
 1087 0782 1449     		ldr r1, = 1000
 1088 0784 00F09DFA 		bl __chu_fa
 1089 0788 0246     		mov r2, r0
 1090 078a 214D     		ldr r5, = pi_pei_r		@50欧姆R
 1091 078c 214E     		ldr r6, = pi_pei_i		@50欧姆I
 1092 078e 2D68     		ldr r5, [r5]
 1093 0790 3668     		ldr r6, [r6]
 1094 0792 641B     		subs r4, r4, r5
 1095 0794 921B     		subs r2, r2, r6
 1096 0796 3846     		mov r0, r7
 1097 0798 1946     		mov r1, r3
 1098 079a 1346     		mov r3, r2
 1099 079c 2246     		mov r2, r4
 1100 079e 00F0B7F9 		bl __fu_shu_chu_fa
 1101 07a2 F9BD     		pop {r0,r3-r7,pc}
 1102 07a4 04010020 		.ltorg
 1102      64080000 
 1102      60080000 
 1102      00000020 
 1102      18010020 
 1103              		
 1104              		
 1105              	__an_jian:
 1106 0818 0EB5     		push {r1-r3,lr}
 1107 081a 1F48     		ldr r0, = 0x48000010
ARM GAS  1.s 			page 21


 1108 081c 1F49     		ldr r1, = 0x48000410
 1109 081e 0268     		ldr r2, [r0]	@pa4
 1110 0820 0B68     		ldr r3, [r1]	@pb1
 1111 0822 D206     		lsls r2, r2, # 27
 1112 0824 D20F     		lsrs r2, r2, # 31
 1113 0826 9B07     		lsls r3, r3, # 30
 1114 0828 9B0F     		lsrs r3, r3, # 30
 1115 082a 1343     		orrs r3, r3, r2
 1116 082c 1846     		mov r0, r3	
 1117 082e 0EBD     		pop {r1-r3,pc}
 1118              	__atan2_ji_suan:
 1119              		@入口R0=实部，R1=虚部，结果=R0
 1120 0830 FCB5     		push {r2-r7,lr}
 1121 0832 4246     		mov r2, r8
 1122 0834 04B4     		push {r2}
 1123 0836 1A4B     		ldr r3, = cordic_yong_cos_sin
 1124 0838 0A22     		movs r2, # 10
 1125 083a 5043     		muls r0, r0, r2
 1126 083c 5143     		muls r1, r1, r2
 1127 083e 0022     		movs r2, # 0
 1128 0840 9046     		mov r8, r2
 1129 0842 184C     		ldr r4, = 9000
 1130 0844 E403     		lsls r4, r4, # 15
 1131              	__cordic_atan2_xun_huan:	
 1132              	__du_cos_sin:	
 1133 0846 1D68     		ldr r5, [r3]	@cos
 1134 0848 0433     		adds r3, r3, # 4
 1135 084a 2F46     		mov r7, r5
 1136 084c 1E68     		ldr r6, [r3]	@sin
 1137 084e 0433     		adds r3, r3, # 4
 1138 0850 3246     		mov r2, r6
 1139 0852 4543     	        muls r5, r5, r0         @x*cos
 1140 0854 4243     	        muls r2, r2, r0         @x*sin
 1141 0856 4E43     	        muls r6, r6, r1         @y*sin
 1142 0858 4F43     	        muls r7, r7, r1         @y*cos
 1143 085a 0900     		movs r1, r1
 1144 085c 05D5     		bpl __ni_shi_zhen_zhuan
 1145              	__shun_shi_zhen_zhuan:
 1146 085e AD1B     		subs r5, r5, r6
 1147 0860 BF18     		adds r7, r7, r2
 1148 0862 4646     		mov r6, r8
 1149 0864 3619     		adds r6, r6, r4
 1150 0866 B046     		mov r8, r6
 1151 0868 04E0     		b __xuan_zhuan_wan
 1152              	__ni_shi_zhen_zhuan:
 1153 086a AD19     		adds r5, r5, r6
 1154 086c BF1A     		subs r7, r7, r2
 1155 086e 4646     		mov r6, r8
 1156 0870 361B     		subs r6, r6, r4
 1157 0872 B046     		mov r8, r6
 1158              	__xuan_zhuan_wan:
 1159 0874 0A4E     		ldr r6, = cordic_yong_cos_sin
 1160 0876 2022     		movs r2, # 32
 1161 0878 9200     		lsls r2, r2, # 2
 1162 087a B618     		adds r6, r6, r2
 1163 087c AD13     		asrs r5, r5, # 14
 1164 087e BF13     		asrs r7, r7, # 14
ARM GAS  1.s 			page 22


 1165 0880 2846     		mov r0, r5
 1166 0882 3946     		mov r1, r7
 1167 0884 6408     		lsrs r4, r4, # 1	@旋转
 1168 0886 B342     		cmp r3,	r6 
 1169 0888 DDD1     		bne __cordic_atan2_xun_huan
 1170 088a 4046     		mov r0, r8
 1171 088c C043     		mvns r0, r0
 1172 088e 0130     		adds r0, r0, # 1
 1173 0890 C013     		asrs r0, r0, # 15
 1174 0892 4246     		mov r2, r8
 1175 0894 04BC     		pop {r2}
 1176 0896 FCBD     		pop {r2-r7,pc}
 1177 0898 10000048 		.ltorg
 1177      10040048 
 1177      D0070000 
 1177      28230000 
 1178              	
 1179              	
 1180              	__xian_shi_ru_she_fan_she:
 1181              	@入口 R0= 下臂实部，R1=上臂实部，R2=下臂虚部，R3=上臂虚部
 1182 08a8 FFB5     		push {r0-r7,lr}
 1183 08aa 4046     		mov r0, r8
 1184 08ac 4946     	        mov r1, r9
 1185 08ae 5246     	        mov r2, r10
 1186 08b0 5B46     		mov r3, r11
 1187 08b2 6446     		mov r4, r12
 1188 08b4 1FB4     	        push {r0-r4}
 1189 08b6 8C48     		ldr r0, = fanshe_r
 1190 08b8 8268     		ldr r2, [r0, # 0x08]
 1191 08ba 4168     		ldr r1, [r0, # 0x04]
 1192 08bc C368     		ldr r3, [r0, # 0x0c]
 1193 08be 0068     		ldr r0, [r0]
 1194 08c0 8046     		mov r8, r0
 1195 08c2 8946     		mov r9, r1
 1196 08c4 9246     		mov r10, r2
 1197 08c6 9B46     		mov r11, r3
 1198              	@显示上臂实部
 1199 08c8 1400     		movs r4, r2
 1200 08ca 07D5     		bpl __ru_she_shi_bu_zheng
 1201 08cc 8620     	        movs r0, # 0x86
 1202 08ce 8749     	        ldr r1, = _fu
 1203 08d0 0122     	        movs r2, # 1
 1204 08d2 00F07FF8 	        bl _lcdxianshi
 1205 08d6 E443     		mvns r4, r4
 1206 08d8 0134     		adds r4, r4, # 1
 1207 08da 04E0     		b __xian_shi_ru_she_shi_bu
 1208              	__ru_she_shi_bu_zheng:	
 1209 08dc 8620     	        movs r0, # 0x86
 1210 08de 8449     		ldr r1, = kong
 1211 08e0 0122     	        movs r2, # 1
 1212 08e2 00F077F8 	        bl _lcdxianshi
 1213              	__xian_shi_ru_she_shi_bu:
 1214 08e6 2046     		mov r0, r4
 1215 08e8 0421     		movs r1, # 4
 1216 08ea 824A     		ldr r2, = asciimabiao
 1217 08ec FF23     		movs r3, # 0xff
 1218 08ee 00F0C0F8 		bl _zhuanascii
ARM GAS  1.s 			page 23


 1219 08f2 8720     		movs r0, # 0x87
 1220 08f4 7F49     		ldr r1, = asciimabiao
 1221 08f6 0422     		movs r2, # 4
 1222 08f8 00F06CF8 		bl _lcdxianshi
 1223              	@显示上臂虚部
 1224 08fc 5C46     	        mov r4, r11
 1225 08fe 2400     		movs r4, r4
 1226 0900 07D5     	        bpl __ru_she_xu_bu_zheng
 1227 0902 8B20     	        movs r0, # 0x8b
 1228 0904 7949     	        ldr r1, = _fu
 1229 0906 0122     	        movs r2, # 1
 1230 0908 00F064F8 	        bl _lcdxianshi
 1231 090c E443     	        mvns r4, r4
 1232 090e 0134     	        adds r4, r4, # 1
 1233 0910 04E0     	        b __xian_shi_ru_she_xu_bu
 1234              	__ru_she_xu_bu_zheng:
 1235 0912 8B20     	        movs r0, # 0x8b
 1236 0914 7649     		ldr r1, = kong
 1237 0916 0122     	        movs r2, # 1
 1238 0918 00F05CF8 	        bl _lcdxianshi
 1239              	__xian_shi_ru_she_xu_bu:
 1240 091c 2046     	        mov r0, r4
 1241 091e 0421     	        movs r1, # 4
 1242 0920 744A     	        ldr r2, = asciimabiao
 1243 0922 FF23     	        movs r3, # 0xff
 1244 0924 00F0A5F8 		bl _zhuanascii
 1245 0928 8C20     		movs r0, # 0x8c
 1246 092a 7249     	        ldr r1, = asciimabiao
 1247 092c 0422     	        movs r2, # 4
 1248 092e 00F051F8 		bl _lcdxianshi
 1249              	@显示下臂实部：
 1250 0932 4446     	        mov r4, r8
 1251 0934 2400     		movs r4, r4
 1252 0936 07D5     	        bpl __fan_she_shi_bu_zheng
 1253 0938 C620     	        movs r0, # 0xc6
 1254 093a 6C49     	        ldr r1, = _fu
 1255 093c 0122     	        movs r2, # 1
 1256 093e 00F049F8 	        bl _lcdxianshi
 1257 0942 E443     	        mvns r4, r4
 1258 0944 0134     		adds r4, r4, # 1
 1259 0946 04E0     		b __xian_shi_fan_she_shi_bu
 1260              	__fan_she_shi_bu_zheng:
 1261 0948 C620     	        movs r0, # 0xc6
 1262 094a 6949     	        ldr r1, = kong
 1263 094c 0122     	        movs r2, # 1
 1264 094e 00F041F8 		bl _lcdxianshi
 1265              	__xian_shi_fan_she_shi_bu:
 1266 0952 2046     		mov r0, r4
 1267 0954 0421     		movs r1, # 4
 1268 0956 674A     		ldr r2, = asciimabiao
 1269 0958 FF23     		movs r3, # 0xff
 1270 095a 00F08AF8 		bl _zhuanascii
 1271 095e C720     	        movs r0, # 0xc7
 1272 0960 6449     	        ldr r1, = asciimabiao
 1273 0962 0422     	        movs r2, # 4
 1274 0964 00F036F8 	        bl _lcdxianshi
 1275              	
ARM GAS  1.s 			page 24


 1276              	@显示下臂虚部
 1277 0968 4C46     		mov r4, r9
 1278 096a 2400     		movs r4, r4
 1279 096c 07D5     	        bpl __fan_she_xu_bu_zheng
 1280 096e CB20     	        movs r0, # 0xcb
 1281 0970 5E49     	        ldr r1, = _fu
 1282 0972 0122     	        movs r2, # 1
 1283 0974 00F02EF8 	        bl _lcdxianshi
 1284 0978 E443     	        mvns r4, r4
 1285 097a 0134     	        adds r4, r4, # 1
 1286 097c 04E0     	        b __xian_shi_fan_she_xu_bu
 1287              	__fan_she_xu_bu_zheng:
 1288 097e CB20     	        movs r0, # 0xcb
 1289 0980 5B49     	        ldr r1, = kong
 1290 0982 0122     	        movs r2, # 1
 1291 0984 00F026F8 	        bl _lcdxianshi
 1292              	__xian_shi_fan_she_xu_bu:
 1293 0988 2046     	        mov r0, r4
 1294 098a 0421     	        movs r1, # 4
 1295 098c 594A     	        ldr r2, = asciimabiao
 1296 098e FF23     	        movs r3, # 0xff
 1297 0990 00F06FF8 	        bl _zhuanascii
 1298 0994 CC20     	        movs r0, # 0xcc
 1299 0996 5749     	        ldr r1, = asciimabiao
 1300 0998 0422     	        movs r2, # 4
 1301 099a 00F01BF8 	        bl _lcdxianshi
 1302 099e 1FBC     	        pop {r0-r4}
 1303 09a0 8046     	        mov r8, r0
 1304 09a2 8946     	        mov r9, r1
 1305 09a4 9246     	        mov r10, r2
 1306 09a6 9B46     	        mov r11, r3
 1307 09a8 A446     	        mov r12, r4
 1308 09aa FFBD     		pop {r0-r7,pc}
 1309              	
 1310              	
 1311              	_lvboqi:
 1312              				@滤波器
 1313              				@R0=地址，R1=长度,r2=表指针地址,r3=ADC数值
 1314              				@出R0=结果
 1315 09ac FEB5     		push {r1-r7,lr}	
 1316 09ae 1568     		ldr r5, [r2]		@读出表指针
 1317 09b0 8E00     		lsls r6, r1, # 2	
 1318 09b2 4351     		str r3, [r0, r5]	@数值写到滤波器缓冲区
 1319 09b4 0435     		adds r5, r5, # 4
 1320 09b6 B542     		cmp r5, r6
 1321 09b8 00D1     		bne _lvboqimeidaohuanchongquding
 1322 09ba 0025     		movs r5, # 0
 1323              	_lvboqimeidaohuanchongquding:
 1324 09bc 1560     		str r5, [r2]
 1325 09be 0027     		movs r7, # 0
 1326              	_lvboqixunhuan:
 1327 09c0 B542     		cmp r5, r6
 1328 09c2 00D1     		bne _lvbozonghe
 1329 09c4 0025     		movs r5, # 0
 1330              	_lvbozonghe:
 1331 09c6 4459     		ldr r4, [r0, r5]
 1332 09c8 0435     		adds r5, r5, # 4
ARM GAS  1.s 			page 25


 1333 09ca 3F19     		adds r7, r7, r4
 1334 09cc 0139     		subs r1, r1, # 1
 1335 09ce F7D1     		bne _lvboqixunhuan
 1336 09d0 F811     		asrs r0, r7, # 7	@修改
 1337 09d2 FEBD     		pop {r1-r7,pc}
 1338              	_lcdxianshi:	  		@r0=LCD位置，r1=数据地址，r2=长度
 1339 09d4 1FB5     		push {r0-r4,lr}
 1340 09d6 0C46     		mov r4, r1
 1341              	
 1342 09d8 0021     		movs r1, # 0
 1343 09da 00F00EF8 		bl _xielcd
 1344              	
 1345 09de 0121     		movs r1, # 1
 1346 09e0 0023     		movs r3, # 0
 1347              	_lcdxianshixunhuan:
 1348 09e2 E05C     		ldrb r0, [r4,r3]
 1349 09e4 00F009F8 		bl _xielcd
 1350 09e8 0133     		adds r3, r3, # 1
 1351 09ea 9342     		cmp r3, r2
 1352 09ec F9D1     		bne _lcdxianshixunhuan
 1353 09ee 1FBD     		pop {r0-r4,pc}
 1354              	
 1355              	_lcdyanshi:
 1356 09f0 20B5     		push {r5,lr}
 1357 09f2 414D     		ldr r5, = 0x1000
 1358              	_lcdyanshixunhuan:
 1359 09f4 013D     		subs r5, r5, # 1
 1360 09f6 FDD1     		bne _lcdyanshixunhuan
 1361 09f8 20BD     		pop {r5,pc}
 1362              	
 1363              	_xielcd:			@入R0=8位,r1=0命令,r1=1数据
 1364 09fa 3FB5     		push {r0-r5,lr}
 1365 09fc 3F4C     		ldr r4, = liangcheng  @ 量程开关 (第6位和第7位)
 1366 09fe 0246     		mov r2, r0
 1367 0a00 2568     		ldr r5, [r4]
 1368 0a02 1209     		lsrs r2, r2, # 4
 1369 0a04 9200     		lsls r2, r2, # 2	@ 高四位
 1370 0a06 0007     		lsls r0, r0, # 28
 1371 0a08 800E     		lsrs r0, r0, # 26	@ 低四位
 1372 0a0a C907     		lsls r1, r1, # 31
 1373 0a0c 01D5     		bpl __lcd_ming_ling
 1374              	__lcd_shu_ju:
 1375 0a0e 0323     		movs r3, # 0x03		@ RS = 1 E = 1
 1376 0a10 00E0     		b __xie_lcd_shu_ju
 1377              	__lcd_ming_ling:
 1378 0a12 0223     		movs r3, # 0x02		@ RS = 0 E = 1
 1379              	__xie_lcd_shu_ju:
 1380 0a14 5B19     		adds r3, r3, r5
 1381 0a16 0146     		mov r1, r0
 1382 0a18 D218     		adds r2, r2, r3
 1383 0a1a 1000     		movs r0, r2
 1384 0a1c 00F00BF8 		bl __74hc595
 1385 0a20 0238     		subs r0, r0, # 0x02
 1386 0a22 00F008F8 		bl __74hc595
 1387 0a26 0846     		mov r0, r1
 1388 0a28 C018     		adds r0, r0, r3
 1389 0a2a 00F004F8 		bl __74hc595
ARM GAS  1.s 			page 26


 1390 0a2e 0238     		subs r0, r0, # 0x02
 1391 0a30 00F001F8 		bl __74hc595
 1392 0a34 3FBD     		pop {r0-r5,pc}
 1393              		
 1394              	__74hc595:			@ 入R0=8位
 1395 0a36 FFB5     		push {r0-r7,lr}
 1396 0a38 314E     		ldr r6, = 0x48000000
 1397 0a3a 2025     		movs r5, # 0x20		@ SRCLK
 1398 0a3c 4022     		movs r2, # 0x40		@ RCLK
 1399 0a3e 8023     		movs r3, # 0x80		@ SER
 1400 0a40 1824     		movs r4, # 24
 1401              	__595_yiweixunhuan:
 1402 0a42 B262     		str r2, [r6, # 0x28]	@ rclk=0
 1403 0a44 B562     		str r5, [r6, # 0x28]	@ srclk=0
 1404              		@ovs r7, # 0xff
 1405 0a46 2F4F     		ldr r7, = 0x1ff
 1406              	__595_yanshi:
 1407 0a48 013F     		subs r7, r7, # 1
 1408 0a4a FDD1     		bne __595_yanshi
 1409 0a4c 0146     		mov r1, r0
 1410 0a4e A140     		lsls r1, r1, r4
 1411 0a50 01D5     		bpl __ser_0
 1412              	__ser_1:
 1413 0a52 B361     		str r3, [r6, # 0x18]	@ ser=1
 1414 0a54 00E0     		b __595_yiwei
 1415              	__ser_0:
 1416 0a56 B362     		str r3, [r6, # 0x28]	@ ser=0
 1417              	__595_yiwei:
 1418 0a58 B561     		str r5, [r6, # 0x18]
 1419              		@movs r7, # 0xff
 1420 0a5a 2A4F     		ldr r7, = 0x1ff
 1421              	__595_yanshi1:
 1422 0a5c 013F     		subs r7, r7, # 1
 1423 0a5e FDD1     		bne __595_yanshi1
 1424 0a60 0134     		adds r4, r4, # 1
 1425 0a62 202C     		cmp r4, # 32
 1426 0a64 EDD1     		bne __595_yiweixunhuan
 1427 0a66 B261     		str r2, [r6, # 0x18]	@ rclk=1
 1428              		@movs r7, # 0xff
 1429 0a68 264F     		ldr r7, = 0x1ff
 1430              	__595_yanshi2:
 1431 0a6a 013F     		subs r7, r7, # 1
 1432 0a6c FDD1     		bne __595_yanshi2
 1433 0a6e B262     		str r2, [r6, # 0x28]	@ rclk = 0
 1434 0a70 FFBD     		pop {r0-r7,pc}
 1435              	
 1436              	
 1437              	
 1438              	_zhuanascii:					@ 16进制转ASCII
 1439              			@ R0要转的数据， R1长度，R2结果表首地址, r3=小数点位置
 1440 0a72 FFB5     		push {r0-r7,lr}
 1441 0a74 1F46     		mov r7, r3
 1442 0a76 0546     		mov r5, r0
 1443 0a78 0E46     		mov r6, r1
 1444 0a7a 0A21     		movs r1, # 10
 1445              	_xunhuanqiuma:
 1446 0a7c 00F00EF9 		bl _chufa
ARM GAS  1.s 			page 27


 1447 0a80 0446     		mov r4, r0
 1448 0a82 4C43     		muls r4, r1
 1449 0a84 2B1B     		subs r3, r5, r4
 1450 0a86 3033     		adds r3, r3, # 0x30
 1451 0a88 0546     		mov r5, r0
 1452 0a8a 013E     		subs r6, r6, # 1
 1453 0a8c 08D0     		beq _qiumafanhui
 1454 0a8e BE42     		cmp r6, r7
 1455 0a90 02D1     		bne _meidaoxiaoshudian
 1456 0a92 2E24     		movs r4, # 0x2e		@小数点
 1457 0a94 9455     		strb r4, [r2,r6]	@插入小数点
 1458 0a96 013E     		subs r6, r6, # 1
 1459              	_meidaoxiaoshudian:
 1460 0a98 9355     		strb r3, [r2,r6]
 1461 0a9a 3600     		movs r6, r6
 1462 0a9c EED1     		bne _xunhuanqiuma
 1463 0a9e FFBD     		pop {r0-r7,pc}
 1464              	_qiumafanhui:
 1465 0aa0 9355     		strb r3, [r2, r6]
 1466 0aa2 FFBD     		pop {r0-r7,pc}
 1467              	__ji_suan_fu_du:    @ 计算幅度
 1468              	                @ 入r0= 实部，r1= 虚部
 1469              	                @ 出r0 = 幅度
 1470              	                @ Mag ~=Alpha * max(|I|, |Q|) + Beta * min(|I|, |Q|)
 1471              	                @ Alpha * Max + Beta * Min
 1472 0aa4 0EB5     	        push {r1-r3,lr}
 1473 0aa6 0000     	        movs r0, r0
 1474 0aa8 01D5     	        bpl _shibubushifushu
 1475 0aaa C043     	        mvns r0, r0                             @ 是负数转成正数
 1476 0aac 0130     	        adds r0, r0, # 1
 1477              	_shibubushifushu:                               @ 实部不是负数
 1478 0aae 0900     	        movs r1, r1
 1479 0ab0 01D5     	        bpl _xububushifushu
 1480 0ab2 C943     	        mvns r1, r1                             @ 是负数转成正数
 1481 0ab4 0131     	        adds r1, r1, # 1
 1482              	_xububushifushu:                                @ 虚部不是负数
 1483 0ab6 0028     	        cmp r0, # 0
 1484 0ab8 01D1     	        bne _panduanxubushibushi0
 1485 0aba 0846     	        mov r0, r1
 1486 0abc 0EBD     	        pop {r1-r3,pc}
 1487              	_panduanxubushibushi0:	
 1488 0abe 0029     		cmp r1, # 0
 1489 0ac0 00D1     		bne _jisuanfudu1
 1490 0ac2 0EBD     		pop {r1-r3,pc}
 1491              	_jisuanfudu1:
 1492 0ac4 104A     		ldr r2, = 31066		@ Alpha q15 0.948059448969
 1493 0ac6 114B     		ldr r3, = 12867		@ Beta q15 0.392699081699
 1494 0ac8 8142     		cmp r1, r0
 1495 0aca 06D8     		bhi _alpha_min_beta_max
 1496              	_alpha_max_beta_min:
 1497 0acc 5043     		muls r0, r0, r2
 1498 0ace 5943     		muls r1, r1, r3
 1499 0ad0 C013     		asrs r0, r0, # 15
 1500 0ad2 C913     		asrs r1, r1, # 15
 1501 0ad4 4018     		adds r0, r0, r1
 1502 0ad6 0121     		movs r1, # 1
 1503 0ad8 0EBD     		pop {r1-r3,pc}
ARM GAS  1.s 			page 28


 1504              	_alpha_min_beta_max:
 1505 0ada 5843     		muls r0, r0, r3
 1506 0adc 5143     		muls r1, r1, r2
 1507 0ade C013     		asrs r0, r0, # 15
 1508 0ae0 C913     		asrs r1, r1, # 15
 1509 0ae2 4018     		adds r0, r0, r1
 1510 0ae4 0021     		movs r1, # 0
 1511 0ae6 0EBD     		pop {r1-r3,pc}
 1512 0ae8 DC000020 		.ltorg
 1512      64080000 
 1512      60080000 
 1512      00000020 
 1512      00100000 
 1513              	__fu_shu_chu_fa:
 1514 0b10 F0B5     		push {r4-r7,lr}
 1515              		@入口R0=a R1=b,R2=c R3=d
 1516              		@出口R1=虚部 R2=实部
 1517 0b12 4446     		mov r4, r8
 1518 0b14 10B4     		push {r4}
 1519              	__ji_suan_chu_fa:
 1520              		@ Z=50*[(a+bi)/(c+di)]=50*[(ac+bd)/(c*c+d*d)+(bc-ad)/(c*c+d*d)]
 1521 0b16 0446     		mov r4, r0
 1522 0b18 0D46     		mov r5, r1
 1523 0b1a 1646     		mov r6, r2
 1524              		@mov r7, r3
 1525 0b1c 9846     		mov r8, r3
 1526 0b1e 0027     		movs r7,  # 0
 1527 0b20 0000     	        movs r0, r0
 1528 0b22 02D5     	        bpl b1
 1529 0b24 C043     	        mvns r0, r0
 1530 0b26 0130     	        adds r0, r0, # 1
 1531 0b28 0137     	        adds r7, r7, # 1
 1532              	
 1533              	b1:
 1534 0b2a 1200     	        movs r2, r2
 1535 0b2c 02D5     	        bpl b2
 1536 0b2e D243     		mvns r2, r2
 1537 0b30 0132     	        adds r2, r2, # 1
 1538 0b32 0137     	        adds r7, r7, # 1
 1539              	b2:
 1540 0b34 5043     		muls r0, r0, r2
 1541 0b36 012F     	        cmp r7, # 1
 1542 0b38 01D1     	        bne b3
 1543 0b3a C043     	        mvns r0, r0
 1544 0b3c 0130     	        adds r0, r0, # 1
 1545              	b3:
 1546              		@muls r0, r0, r2		@ac
 1547 0b3e 0027     	        movs r7,  # 0
 1548 0b40 0900     	        movs r1, r1
 1549 0b42 02D5     	        bpl b4
 1550 0b44 C943     	        mvns r1, r1
 1551 0b46 0131     	        adds r1, r1, # 1
 1552 0b48 0137     	        adds r7, r7, # 1
 1553              	
 1554              	b4:
 1555 0b4a 1B00     	        movs r3, r3
 1556 0b4c 02D5     	        bpl b5
ARM GAS  1.s 			page 29


 1557 0b4e DB43     	        mvns r3, r3
 1558 0b50 0133     	        adds r3, r3, # 1
 1559 0b52 0137     	        adds r7, r7, # 1
 1560              	b5:
 1561 0b54 5943     	        muls r1, r1, r3
 1562 0b56 012F     	        cmp r7, # 1
 1563 0b58 01D1     	        bne b6
 1564 0b5a C943     	        mvns r1, r1
 1565 0b5c 0131     	        adds r1, r1, # 1
 1566              	b6:
 1567              	
 1568              	@	muls r1, r1, r3		@bd
 1569 0b5e 4018     		adds r0, r0, r1		@ac+bd
 1570 0b60 1200     		movs r2, r2
 1571 0b62 05D5     		bpl b7
 1572 0b64 D243     		mvns r2, r2
 1573 0b66 0132     		adds r2, r2, # 1
 1574 0b68 5243     		muls r2, r2, r2
 1575 0b6a D243     		mvns r2, r2
 1576 0b6c 0132     		adds r2, r2, # 1
 1577 0b6e 00E0     		b b8
 1578              	b7:	
 1579 0b70 5243     	        muls r2, r2, r2         @c*c
 1580              	b8:
 1581 0b72 1B00     		movs r3, r3
 1582 0b74 05D5     		bpl b9
 1583 0b76 DB43     		mvns r3, r3
 1584 0b78 0133     		adds r3, r3, # 1
 1585 0b7a 5B43     		muls r3, r3, r3
 1586 0b7c DB43     		mvns r3, r3
 1587 0b7e 0133     		adds r3, r3, # 1
 1588 0b80 00E0     		b b10
 1589              	b9:	
 1590 0b82 5B43     		muls r3, r3, r3		@d*d
 1591              	b10:	
 1592 0b84 D218     		adds r2, r2, r3		@c*c+d*d
 1593 0b86 7E49     		ldr r1, = 1000
 1594 0b88 0023     		movs r3, # 0
 1595 0b8a 0000     		movs r0, r0
 1596 0b8c 02D5     		bpl a1
 1597 0b8e C043     		mvns r0, r0
 1598 0b90 0130     		adds r0, r0, # 1
 1599 0b92 0133     		adds r3, r3, # 1
 1600              	a1:
 1601 0b94 1200     		movs r2, r2
 1602 0b96 02D5     		bpl a2
 1603 0b98 D243     		mvns r2, r2
 1604 0b9a 0132     		adds r2, r2, # 1
 1605 0b9c 0133     		adds r3, r3, # 1
 1606              	a2:
 1607 0b9e 00F047F8 		bl __chengfa
 1608 0ba2 00F021F8 		bl __chufa64		@(ac+bd)/(c*c+d*d)
 1609 0ba6 012B     		cmp r3, # 1
 1610 0ba8 01D1     		bne a3
 1611 0baa C943     		mvns r1, r1
 1612 0bac 0131     		adds r1, r1, # 1
 1613              	a3:	
ARM GAS  1.s 			page 30


 1614 0bae 02B4     		push {r1}
 1615 0bb0 4746     		mov r7, r8
 1616 0bb2 7543     		muls r5, r5, r6		@ bc
 1617 0bb4 7C43     		muls r4, r4, r7		@ ad
 1618 0bb6 2D1B     		subs r5, r5, r4		@ bc-ad
 1619 0bb8 7149     		ldr r1, = 1000
 1620 0bba 0023     		movs r3, # 0
 1621 0bbc 2800     		movs r0, r5
 1622 0bbe 02D5     		bpl a4
 1623 0bc0 C043     		mvns r0, r0
 1624 0bc2 0130     		adds r0, r0, # 1
 1625 0bc4 0133     		adds r3, r3, # 1
 1626              	a4:
 1627 0bc6 1200     		movs r2, r2
 1628 0bc8 02D5     		bpl a5
 1629 0bca D243     		mvns r2, r2
 1630 0bcc 0132     		adds r2, r2, # 1
 1631 0bce 0133     		adds r3, r3, # 1
 1632              	a5:
 1633 0bd0 00F02EF8 		bl __chengfa
 1634 0bd4 00F008F8 		bl __chufa64
 1635 0bd8 012B     		cmp r3, # 1
 1636 0bda 01D1     		bne __a6
 1637 0bdc C943     		mvns r1, r1
 1638 0bde 0131     		adds r1, r1, # 1	@虚部
 1639              	__a6:	
 1640 0be0 04BC     		pop {r2}		@实
 1641 0be2 10BC     		pop {r4}
 1642 0be4 A046     		mov r8, r4
 1643 0be6 F0BD     		pop {r4-r7,pc}
 1644              	__chufa64:
 1645              	        @64位除32位
 1646              	        @ （R0=高32位R1=低32位）除（R2)= （R0高32）（R1低32）
 1647 0be8 F8B5     	        push {r3-r7,lr}
 1648 0bea 002A     	        cmp r2, # 0
 1649 0bec 1DD0     	        beq __chu_fa64_fan_hui0
 1650 0bee 0029     	        cmp r1, # 0
 1651 0bf0 01D1     	        bne __chu_fa64_ji_suan
 1652 0bf2 0028     	        cmp r0, # 0
 1653 0bf4 19D0     	        beq __chu_fa64_fan_hui0
 1654              	__chu_fa64_ji_suan:	
 1655 0bf6 0024     	        movs r4, # 0
 1656 0bf8 2746     	        mov r7, r4
 1657 0bfa 2346     	        mov r3, r4
 1658 0bfc 2546     	        mov r5, r4
 1659 0bfe 0126     	        movs r6, # 1
 1660 0c00 F607     	        lsls r6, r6, # 31
 1661              	__chu_fa64_xun_huan:
 1662 0c02 4900     	        lsls r1, r1, # 1
 1663 0c04 4041     	        adcs r0, r0, r0
 1664 0c06 6441     	        adcs r4, r4, r4
 1665 0c08 9442     	        cmp r4, r2
 1666 0c0a 02D3     	        bcc __chu_fa_yi_wei
 1667 0c0c 9B19     	        adds r3, r3, r6
 1668 0c0e 7D41     	        adcs r5, r5, r7
 1669 0c10 A41A     	        subs r4, r4, r2
 1670              	__chu_fa_yi_wei:
ARM GAS  1.s 			page 31


 1671 0c12 3600     	        movs r6, r6
 1672 0c14 04D0     	        beq __di_yi_wei
 1673 0c16 7608     	        lsrs r6, r6, # 1        @高32位移位
 1674 0c18 F3D1     	        bne __chu_fa64_xun_huan
 1675 0c1a 0127     	        movs r7, # 1
 1676 0c1c FF07     	        lsls r7, r7, # 31
 1677 0c1e F0E7     	        b __chu_fa64_xun_huan
 1678              	__di_yi_wei:            @低32位移位
 1679 0c20 7F08     		lsrs r7, r7, # 1
 1680 0c22 EED1     	        bne __chu_fa64_xun_huan
 1681 0c24 1846     	        mov r0, r3
 1682 0c26 2946     	        mov r1, r5
 1683 0c28 F8BD     	        pop {r3-r7,pc}
 1684              	__chu_fa64_fan_hui0:
 1685 0c2a 0020     		movs r0, # 0
 1686 0c2c 0021     		movs r1, # 0
 1687 0c2e F8BD     		pop {r3-r7,pc}
 1688              	__chengfa:
 1689              	        @入R0 乘以 R1
 1690              	        @出 R0高32 ， R1低32
 1691              		@0xffffffff*0xffffffff
 1692              	        @4        F F F E 0 0 0 1
 1693              	        @3                F F F E 0 0 0 1
 1694              	        @2                F F F E 0 0 0 1
 1695              	        @1                        F F F E 0 0 0 1
 1696              	        @         F F F F F F F E 0 0 0 0 0 0 0 1
 1697 0c30 FCB5     		push {r2-r7,lr}
 1698 0c32 0028     	        cmp r0, # 0
 1699 0c34 1CD0     	        beq __cheng_fa_fan_hui
 1700 0c36 0029     	        cmp r1, # 0
 1701 0c38 1AD0     	        beq __cheng_fa_fan_hui
 1702              	__ji_suan_cheng_fa:	
 1703 0c3a 0246     		mov r2, r0
 1704 0c3c 0B46     		mov r3, r1
 1705 0c3e 000C     		lsrs r0, r0, # 16	@高16
 1706 0c40 1204     		lsls r2, r2, # 16	@ 低16
 1707 0c42 120C     		lsrs r2, r2, # 16
 1708 0c44 090C     	        lsrs r1, r1, # 16	@高16
 1709 0c46 1B04     		lsls r3, r3, # 16	@低16
 1710 0c48 1B0C     		lsrs r3, r3, # 16
 1711 0c4a 1446     		mov r4, r2		
 1712 0c4c 0546     		mov r5, r0		
 1713 0c4e 5A43     		muls r2, r2, r3		@1
 1714 0c50 5843     		muls r0, r0, r3		@2
 1715 0c52 4C43     		muls r4, r4, r1		@3
 1716 0c54 4D43     		muls r5, r5, r1		@4
 1717 0c56 0646     		mov r6, r0		@2
 1718 0c58 2746     		mov r7, r4		@3
 1719 0c5a 0004     		lsls r0, r0, # 16	@2低
 1720 0c5c 2404     		lsls r4, r4, # 16	@3低
 1721 0c5e 360C     		lsrs r6, r6, # 16	@2高
 1722 0c60 3F0C     		lsrs r7, r7, # 16	@3高
 1723 0c62 1218     		adds r2, r2, r0
 1724 0c64 6241     		adcs r2, r2, r4
 1725 0c66 7541     		adcs r5, r5, r6
 1726 0c68 7D41     		adcs r5, r5, r7
 1727 0c6a 2846     		mov r0, r5
ARM GAS  1.s 			page 32


 1728 0c6c 1146     		mov r1, r2
 1729 0c6e FCBD     		pop {r2-r7,pc}
 1730              	__cheng_fa_fan_hui:
 1731 0c70 0020     		movs r0, # 0
 1732 0c72 0021     		movs r1, # 0
 1733 0c74 FCBD     		pop {r2-r7,pc}
 1734              	__dai_yu_shu_chufa:                         @软件除法
 1735              	        @ r0 除以 r1 等于 商(r0)余R1
 1736 0c76 1CB5     	        push {r2-r4,lr}
 1737 0c78 0028     	        cmp r0, # 0
 1738 0c7a 0ED0     	        beq __dai_yu_shu_chufafanhui
 1739 0c7c 0029     	        cmp r1, # 0
 1740 0c7e 0CD0     	        beq __dai_yu_shu_chufafanhui
 1741 0c80 0246     	        mov r2, r0
 1742 0c82 0123     	        movs r3, # 1
 1743 0c84 DB07     	        lsls r3, r3, # 31
 1744 0c86 0020     	        movs r0, # 0
 1745 0c88 0446     	        mov r4, r0
 1746              	__dai_yu_shu_chufaxunhuan:
 1747 0c8a 5200     	        lsls r2, r2, # 1
 1748 0c8c 6441     	        adcs r4, r4, r4
 1749 0c8e 8C42     	        cmp r4, r1
 1750 0c90 01D3     	        bcc __dai_yu_shu_chufaweishubudao0
 1751 0c92 C018     		adds r0, r0, r3
 1752 0c94 641A     	        subs r4, r4, r1
 1753              	__dai_yu_shu_chufaweishubudao0:
 1754 0c96 5B08     	        lsrs r3, r3, # 1
 1755 0c98 F7D1     	        bne __dai_yu_shu_chufaxunhuan
 1756              	__dai_yu_shu_chufafanhui:
 1757 0c9a 1CBD     	        pop {r2-r4,pc}
 1758              	
 1759              	_chufa:				@软件除法
 1760              		@ r0 除以 r1 等于 商(r0)
 1761 0c9c 1EB5     		push {r1-r4,lr}
 1762 0c9e 0028     		cmp r0, # 0
 1763 0ca0 0ED0     		beq _chufafanhui
 1764 0ca2 0029     		cmp r1, # 0
 1765 0ca4 0CD0     		beq _chufafanhui
 1766 0ca6 0246     		mov r2, r0
 1767 0ca8 0123     		movs r3, # 1
 1768 0caa DB07     		lsls r3, r3, # 31
 1769 0cac 0020     		movs r0, # 0
 1770 0cae 0446     		mov r4, r0
 1771              	_chufaxunhuan:
 1772 0cb0 5200     		lsls r2, r2, # 1
 1773 0cb2 6441     		adcs r4, r4, r4
 1774 0cb4 8C42     		cmp r4, r1
 1775 0cb6 01D3     		bcc _chufaweishubudao0
 1776 0cb8 C018     		adds r0, r0, r3
 1777 0cba 641A     		subs r4, r4, r1
 1778              	_chufaweishubudao0:
 1779 0cbc 5B08     		lsrs r3, r3, # 1
 1780 0cbe F7D1     		bne _chufaxunhuan
 1781              	_chufafanhui:
 1782 0cc0 1EBD     		pop {r1-r4,pc}
 1783              	__chu_fa:	@带符号
 1784 0cc2 FEB5     		push {r1-r7,lr}
ARM GAS  1.s 			page 33


 1785 0cc4 0028     	        cmp r0, # 0
 1786 0cc6 1DD0     	        beq _chufafanhui1
 1787 0cc8 0029     	        cmp r1, # 0
 1788 0cca 1BD0     	        beq _chufafanhui1
 1789 0ccc 0025     		movs r5, # 0
 1790 0cce 0000     		movs r0, r0
 1791 0cd0 02D5     		bpl __pan_duan_bei_chu_shu
 1792 0cd2 0135     		adds r5, r5, # 1
 1793 0cd4 C043     		mvns r0, r0
 1794 0cd6 0130     		adds r0, r0, # 1
 1795              	__pan_duan_bei_chu_shu:
 1796 0cd8 0900     		movs r1, r1
 1797 0cda 02D5     		bpl __ji_suan_chu_fa11
 1798 0cdc 0135     		adds r5, r5, # 1
 1799 0cde C943     		mvns r1, r1
 1800 0ce0 0131     		adds r1, r1, # 1
 1801              	__ji_suan_chu_fa11:	
 1802 0ce2 0246     	        mov r2, r0
 1803 0ce4 0123     	        movs r3, # 1
 1804 0ce6 DB07     	        lsls r3, r3, # 31
 1805 0ce8 0020     	        movs r0, # 0
 1806 0cea 0446     	        mov r4, r0
 1807              	_chufaxunhuan1:
 1808 0cec 5200     	        lsls r2, r2, # 1
 1809 0cee 6441     	        adcs r4, r4, r4
 1810 0cf0 8C42     	        cmp r4, r1
 1811 0cf2 01D3     		bcc _chufaweishubudao00
 1812 0cf4 C018     		adds r0, r0, r3
 1813 0cf6 641A     		subs r4, r4, r1
 1814              	_chufaweishubudao00:
 1815 0cf8 5B08     		lsrs r3, r3, # 1
 1816 0cfa F7D1     		bne _chufaxunhuan1
 1817 0cfc 012D     		cmp r5, # 1
 1818 0cfe 01D1     		bne _chufafanhui1
 1819 0d00 C043     		mvns r0, r0
 1820 0d02 0130     		adds r0, r0, # 1
 1821              	_chufafanhui1:
 1822 0d04 FEBD     		pop {r1-r7,pc}
 1823              	
 1824              	__he_bing_dian_ya_biao:
 1825 0d06 FFB5     		push {r0-r7,lr}
 1826 0d08 1E48     		ldr r0, = zhengxiangbiao
 1827 0d0a 1F49     		ldr r1, = fanxiangbiao
 1828 0d0c 1F4A     		ldr r2, = 0x20000750
 1829 0d0e 0023     		movs r3, # 0
 1830 0d10 1E46     		mov r6, r3
 1831 0d12 C827     		movs r7, # 200
 1832 0d14 9846     		mov r8, r3
 1833              	__he_bing_dian_ya_biao_xun_huan:
 1834 0d16 C45A     		ldrh r4, [r0, r3]
 1835 0d18 CD5A     		ldrh r5, [r1, r3]
 1836 0d1a 9846     		mov r8, r3
 1837 0d1c AC42     		cmp r4, r5
 1838 0d1e 06D8     		bhi __zheng_dian_ya
 1839 0d20 2B46     		mov r3, r5
 1840 0d22 00F00EF8 		bl __zhuan_bcd
 1841 0d26 1A4D     		ldr r5, = 0x80000000
ARM GAS  1.s 			page 34


 1842 0d28 1D43     		orrs r5, r5, r3
 1843 0d2a 9551     		str r5, [r2, r6]
 1844 0d2c 03E0     		b __dian_ya_biao_jia
 1845              	__zheng_dian_ya:
 1846 0d2e 2346     		mov r3, r4
 1847 0d30 00F007F8 		bl __zhuan_bcd
 1848 0d34 9351     		str r3, [r2, r6]
 1849              	__dian_ya_biao_jia:
 1850 0d36 4346     		mov r3, r8
 1851 0d38 0233     		adds r3, r3, # 2
 1852 0d3a 0436     		adds r6, r6, # 4
 1853 0d3c 013F     		subs r7, r7, # 1
 1854 0d3e EAD1     		bne __he_bing_dian_ya_biao_xun_huan
 1855 0d40 FFBD     		pop {r0-r7,pc}
 1856              		
 1857              	
 1858              	__zhuan_bcd:
 1859 0d42 F7B5     		push {r0-r2,r4-r7,lr}
 1860 0d44 0A21     		movs r1, # 10
 1861 0d46 1846     		mov r0, r3
 1862 0d48 1D46     		mov r5, r3
 1863 0d4a 0826     		movs r6, # 8
 1864              	__bcd_xun_huan:
 1865 0d4c FFF7A6FF 		bl _chufa
 1866 0d50 0446     		mov r4, r0
 1867 0d52 4C43     		muls r4, r4, r1
 1868 0d54 2D1B     		subs r5, r5, r4
 1869 0d56 20B4     		push {r5}
 1870 0d58 0546     		mov r5, r0
 1871 0d5a 013E     		subs r6, r6, # 1
 1872 0d5c F6D1     		bne __bcd_xun_huan
 1873 0d5e FFBC     		pop {r0-r7}
 1874 0d60 3601     		lsls r6, r6, # 4
 1875 0d62 2D02     		lsls r5, r5, # 8
 1876 0d64 2403     		lsls r4, r4, # 12
 1877 0d66 1B04     		lsls r3, r3, # 16
 1878 0d68 1205     		lsls r2, r2, # 20
 1879 0d6a 0906     		lsls r1, r1, # 24
 1880 0d6c 0007     		lsls r0, r0, # 28
 1881 0d6e 0343     		orrs r3, r3, r0
 1882 0d70 0B43     		orrs r3, r3, r1
 1883 0d72 1343     		orrs r3, r3, r2
 1884 0d74 2343     		orrs r3, r3, r4
 1885 0d76 2B43     		orrs r3, r3, r5
 1886 0d78 3343     		orrs r3, r3, r6
 1887 0d7a 3B43     		orrs r3, r3, r7
 1888 0d7c F7BD     		pop {r0-r2,r4-r7,pc}
 1889 0d7e 0000E803 		.ltorg
 1889      00009003 
 1889      00202005 
 1889      00205007 
 1889      00200000 
 1890              	_nmi_handler:
 1891 0d94 7047     		bx lr
 1892              	_hard_fault:
 1893 0d96 7047     		bx lr
 1894              	_svc_handler:
ARM GAS  1.s 			page 35


 1895 0d98 7047     		bx lr
 1896              	_pendsv_handler:
 1897 0d9a 7047     		bx lr
 1898              	_systickzhongduan:
 1899              	aaa:
 1900 0d9c 7047     		bx lr
 1901              		.ltorg
 1902 0d9e C046     		.end
ARM GAS  1.s 			page 36


DEFINED SYMBOLS
                 1.s:9      .data:0000000000000000 $d
                 1.s:10     .data:0000000000000000 zheng_xian_200khz
                 1.s:13     .data:0000000000000190 xuan_zhuan_yin_zi
                 1.s:16     .data:00000000000007d0 cordic_yong_cos_sin
                 1.s:20     .data:0000000000000850 yjmwxwx
                 1.s:23     .data:0000000000000860 kong
                 1.s:25     .data:0000000000000864 _fu
                 1.s:27     .data:0000000000000865 ou
                 1.s:29     .data:0000000000000869 kai_lu_jiao_zhun
                 1.s:31     .data:0000000000000879 duan_lu_jiao_zhun
                 1.s:33     .data:0000000000000889 pi_pei_jiao_zhun
                 1.s:36     .data:00000000000008a0 cai_dan_biao
                 1.s:526    .text:00000000000002dc __cai_dan_0
                 1.s:530    .text:00000000000002de __cai_dan_1
                 1.s:532    .text:00000000000002e0 __cai_dan_2
                 1.s:534    .text:00000000000002e2 __cai_dan_3
                 1.s:536    .text:00000000000002e2 __cai_dan_4
                 1.s:537    .text:00000000000002e2 __cai_dan_5
                 1.s:538    .text:00000000000002e2 __cai_dan_6
                 1.s:45     *ABS*:0000000020001000 STACKINIT
                 1.s:46     *ABS*:0000000020000000 asciimabiao
                 1.s:47     *ABS*:00000000200000dc fanshe_r
                 1.s:48     *ABS*:00000000200000e0 fanshe_i
                 1.s:49     *ABS*:00000000200000e4 rushe_r
                 1.s:50     *ABS*:00000000200000e8 rushe_i
                 1.s:51     *ABS*:00000000200000ec liangcheng
                 1.s:52     *ABS*:00000000200000f0 fuhao
                 1.s:53     *ABS*:00000000200000f4 dmawan
                 1.s:54     *ABS*:00000000200000f8 jishu2
                 1.s:55     *ABS*:00000000200000fc jishu
                 1.s:56     *ABS*:0000000020000100 dianzu
                 1.s:57     *ABS*:0000000020000104 p_shibu
                 1.s:58     *ABS*:0000000020000108 swr_shibu
                 1.s:59     *ABS*:000000002000010c bingliandianzu
                 1.s:60     *ABS*:0000000020000110 jiedianchangshushibu
                 1.s:61     *ABS*:0000000020000114 diankang
                 1.s:62     *ABS*:0000000020000118 p_xubu
                 1.s:63     *ABS*:000000002000011c swr_xubu
                 1.s:64     *ABS*:0000000020000120 bingliandiankang
                 1.s:65     *ABS*:0000000020000124 jiedianchangshuxubu
                 1.s:66     *ABS*:0000000020000128 fan_she_shi_bu
                 1.s:67     *ABS*:0000000020000130 fan_she_xu_bu
                 1.s:68     *ABS*:0000000020000138 ru_she_shi_bu
                 1.s:69     *ABS*:000000002000013c ru_she_xu_bu
                 1.s:70     *ABS*:0000000020000140 zukangqiehuan
                 1.s:71     *ABS*:0000000020000144 caidan
                 1.s:72     *ABS*:0000000020000148 an_jian_yan_shi
                 1.s:73     *ABS*:000000002000014c tou_fan_qie_huan
                 1.s:74     *ABS*:0000000020000150 dianrongzhi
                 1.s:75     *ABS*:0000000020000154 jiaodu
                 1.s:76     *ABS*:0000000020000158 anjian
                 1.s:77     *ABS*:000000002000015c pm1
                 1.s:78     *ABS*:0000000020000160 pm1i
                 1.s:79     *ABS*:0000000020000164 pm2
                 1.s:80     *ABS*:0000000020000168 pm2i
                 1.s:81     *ABS*:000000002000016c pm3
ARM GAS  1.s 			page 37


                 1.s:82     *ABS*:0000000020000170 pm3i
                 1.s:83     *ABS*:0000000020000174 kailu_r
                 1.s:84     *ABS*:0000000020000178 kailu_i
                 1.s:85     *ABS*:000000002000017c duanlu_r
                 1.s:86     *ABS*:0000000020000180 duanlu_i
                 1.s:87     *ABS*:0000000020000184 pipei_r
                 1.s:88     *ABS*:0000000020000188 pipei_i
                 1.s:89     *ABS*:000000002000018c caidanzhizhen
                 1.s:90     *ABS*:0000000020000190 caidanyanshi
                 1.s:91     *ABS*:0000000020000194 jiaozhunkaiguan
                 1.s:92     *ABS*:00000000200001f8 dianyabiaozhizhen
                 1.s:93     *ABS*:00000000200001fc dianyabiaoman
                 1.s:94     *ABS*:0000000020000200 dianyabiao
                 1.s:95     *ABS*:0000000020000390 zhengxiangbiao
                 1.s:96     *ABS*:0000000020000520 fanxiangbiao
                 1.s:97     *ABS*:0000000020000a00 lvboqizhizhen
                 1.s:98     *ABS*:0000000020000a04 lvboqihuanchong
                 1.s:99     *ABS*:0000000020000b08 lvboqizhizhen1
                 1.s:100    *ABS*:0000000020000b0c lvboqihuanchong1
                 1.s:101    *ABS*:0000000020000c20 lvboqizhizhen2
                 1.s:102    *ABS*:0000000020000c24 lvboqihuanchong2
                 1.s:103    *ABS*:0000000020000d30 lvboqizhizhen3
                 1.s:104    *ABS*:0000000020000d34 lvboqihuanchong3
                 1.s:105    *ABS*:0000000008002000 kai_lu_r
                 1.s:106    *ABS*:0000000008002004 kai_lu_i
                 1.s:107    *ABS*:0000000008002008 duan_lu_r
                 1.s:108    *ABS*:000000000800200c duan_lu_i
                 1.s:109    *ABS*:0000000008002010 pi_pei_r
                 1.s:110    *ABS*:0000000008002014 pi_pei_i
                 1.s:112    .text:0000000000000000 vectors
                 1.s:158    .text:00000000000000b0 _start
                 1.s:1890   .text:0000000000000d94 _nmi_handler
                 1.s:1892   .text:0000000000000d96 _hard_fault
                 1.s:1894   .text:0000000000000d98 _svc_handler
                 1.s:1896   .text:0000000000000d9a _pendsv_handler
                 1.s:1898   .text:0000000000000d9c _systickzhongduan
                 1.s:1899   .text:0000000000000d9c aaa
                            .text:0000000000000000 $d
                 1.s:157    .text:00000000000000b0 $t
                 1.s:159    .text:00000000000000b0 shizhong
                 1.s:166    .text:00000000000000bc denghse
                 1.s:170    .text:00000000000000c2 dengpllguan
                 1.s:182    .text:00000000000000d6 dengpll
                 1.s:190    .text:00000000000000e0 _waisheshizhong
                 1.s:207    .text:00000000000000ee _neicunqingling
                 1.s:211    .text:00000000000000f4 _neicunqinglingxunhuan
                 1.s:215    .text:00000000000000fa _waishezhongduan
                 1.s:246    .text:0000000000000100 io_she_zhi
                 1.s:280    .text:0000000000000118 _lcdchushihua
                 1.s:1363   .text:00000000000009fa _xielcd
                 1.s:1355   .text:00000000000009f0 _lcdyanshi
                 1.s:1338   .text:00000000000009d4 _lcdxianshi
                 1.s:308    .text:0000000000000160 yjmwxwx_yanshi
                 1.s:312    .text:0000000000000164 _adcchushihua
                 1.s:316    .text:000000000000016a _dengadcjiaozhun
                 1.s:322    .text:0000000000000174 _kaiadc
                 1.s:327    .text:000000000000017c _deng_adc_wen_ding
ARM GAS  1.s 			page 38


                 1.s:331    .text:0000000000000182 _tongdaoxuanze
                 1.s:344    .text:000000000000019a dmachushihua
                 1.s:378    .text:00000000000001be tim1chushiha
                 1.s:408    .text:00000000000001f0 adc_yanshi
                 1.s:417    .text:0000000000000200 ting
                 1.s:568    .text:0000000000000316 __tong_dao_qie_huan
                 1.s:604    .text:0000000000000358 __DFT_ji_suan
                 1.s:1513   .text:0000000000000b10 __fu_shu_chu_fa
                 1.s:1311   .text:00000000000009ac _lvboqi
                 1.s:465    .text:0000000000000260 __xianshi_zukang
                 1.s:481    .text:0000000000000282 __dian_zu_bu_shi_zheng
                 1.s:486    .text:000000000000028c __xian_shi_dian_zu
                 1.s:1438   .text:0000000000000a72 _zhuanascii
                 1.s:508    .text:00000000000002ba __dian_kang_bu_shi_zheng
                 1.s:513    .text:00000000000002c4 __xian_shi_dian_kang
                 1.s:541    .text:00000000000002e2 __cai_dan_diao_du
                 1.s:552    .text:00000000000002f6 __cai_dan_zhi_zhen_jia
                 1.s:559    .text:0000000000000302 __cai_dan_qie_huan
                 1.s:586    .text:000000000000033e __tong_dao_qie_huan_yan_shi
                 1.s:593    .text:0000000000000348 __fu_zhi_nei_cun
                 1.s:589    .text:0000000000000342 __tong_dao_qie_huan_yan_shi_xun_huan
                 1.s:597    .text:000000000000034c __fu_zhi_xun_huan
                 1.s:618    .text:0000000000000370 __ji_suan_dft_xun_huan
                 1.s:624    .text:000000000000037a __qu_fan_r4
                 1.s:628    .text:0000000000000380 __ji_suan_dft
                 1.s:654    .text:00000000000003b2 __xian_shi_jiao_du
                 1.s:667    .text:00000000000003cc __jiaodu_bu_shi_zheng
                 1.s:672    .text:00000000000003d6 __xian_shi_jiaodu
                 1.s:683    .text:00000000000003ee $d
                 1.s:683    .text:00000000000003f0 $d
                 1.s:685    .text:00000000000004dc __xian_shi_fan_she_xi_shu
                 1.s:686    .text:00000000000004dc $t
                 1.s:698    .text:00000000000004f6 __p_shibu_bu_shi_zheng
                 1.s:703    .text:0000000000000500 __xian_shi_p_shibu
                 1.s:725    .text:000000000000052e __p_xubu_bu_shi_zheng
                 1.s:730    .text:0000000000000538 __xian_shi_p_xubu
                 1.s:741    .text:0000000000000550 _xieflash
                 1.s:752    .text:0000000000000562 _flashmang
                 1.s:769    .text:0000000000000580 _flashmang1
                 1.s:778    .text:0000000000000590 _flashmang2
                 1.s:787    .text:00000000000005a0 _flashmang4
                 1.s:797    .text:00000000000005ae __jiaozhun
                 1.s:845    .text:0000000000000622 __det
                 1.s:874    .text:000000000000063a __det1
                 1.s:1783   .text:0000000000000cc2 __chu_fa
                 1.s:917    .text:0000000000000672 __det2
                 1.s:966    .text:00000000000006b2 __det3
                 1.s:1037   .text:0000000000000726 __fu_shu_cheng_fa
                 1.s:1052   .text:0000000000000740 __osm_jiao_zhun
                 1.s:1102   .text:00000000000007a4 $d
                 1.s:1105   .text:0000000000000818 __an_jian
                 1.s:1106   .text:0000000000000818 $t
                 1.s:1118   .text:0000000000000830 __atan2_ji_suan
                 1.s:1131   .text:0000000000000846 __cordic_atan2_xun_huan
                 1.s:1132   .text:0000000000000846 __du_cos_sin
                 1.s:1152   .text:000000000000086a __ni_shi_zhen_zhuan
                 1.s:1145   .text:000000000000085e __shun_shi_zhen_zhuan
ARM GAS  1.s 			page 39


                 1.s:1158   .text:0000000000000874 __xuan_zhuan_wan
                 1.s:1177   .text:0000000000000898 $d
                 1.s:1180   .text:00000000000008a8 __xian_shi_ru_she_fan_she
                 1.s:1182   .text:00000000000008a8 $t
                 1.s:1208   .text:00000000000008dc __ru_she_shi_bu_zheng
                 1.s:1213   .text:00000000000008e6 __xian_shi_ru_she_shi_bu
                 1.s:1234   .text:0000000000000912 __ru_she_xu_bu_zheng
                 1.s:1239   .text:000000000000091c __xian_shi_ru_she_xu_bu
                 1.s:1260   .text:0000000000000948 __fan_she_shi_bu_zheng
                 1.s:1265   .text:0000000000000952 __xian_shi_fan_she_shi_bu
                 1.s:1287   .text:000000000000097e __fan_she_xu_bu_zheng
                 1.s:1292   .text:0000000000000988 __xian_shi_fan_she_xu_bu
                 1.s:1323   .text:00000000000009bc _lvboqimeidaohuanchongquding
                 1.s:1326   .text:00000000000009c0 _lvboqixunhuan
                 1.s:1330   .text:00000000000009c6 _lvbozonghe
                 1.s:1347   .text:00000000000009e2 _lcdxianshixunhuan
                 1.s:1358   .text:00000000000009f4 _lcdyanshixunhuan
                 1.s:1377   .text:0000000000000a12 __lcd_ming_ling
                 1.s:1374   .text:0000000000000a0e __lcd_shu_ju
                 1.s:1379   .text:0000000000000a14 __xie_lcd_shu_ju
                 1.s:1394   .text:0000000000000a36 __74hc595
                 1.s:1401   .text:0000000000000a42 __595_yiweixunhuan
                 1.s:1406   .text:0000000000000a48 __595_yanshi
                 1.s:1415   .text:0000000000000a56 __ser_0
                 1.s:1412   .text:0000000000000a52 __ser_1
                 1.s:1417   .text:0000000000000a58 __595_yiwei
                 1.s:1421   .text:0000000000000a5c __595_yanshi1
                 1.s:1430   .text:0000000000000a6a __595_yanshi2
                 1.s:1445   .text:0000000000000a7c _xunhuanqiuma
                 1.s:1759   .text:0000000000000c9c _chufa
                 1.s:1464   .text:0000000000000aa0 _qiumafanhui
                 1.s:1459   .text:0000000000000a98 _meidaoxiaoshudian
                 1.s:1467   .text:0000000000000aa4 __ji_suan_fu_du
                 1.s:1477   .text:0000000000000aae _shibubushifushu
                 1.s:1482   .text:0000000000000ab6 _xububushifushu
                 1.s:1487   .text:0000000000000abe _panduanxubushibushi0
                 1.s:1491   .text:0000000000000ac4 _jisuanfudu1
                 1.s:1504   .text:0000000000000ada _alpha_min_beta_max
                 1.s:1496   .text:0000000000000acc _alpha_max_beta_min
                 1.s:1512   .text:0000000000000ae8 $d
                 1.s:1514   .text:0000000000000b10 $t
                 1.s:1519   .text:0000000000000b16 __ji_suan_chu_fa
                 1.s:1533   .text:0000000000000b2a b1
                 1.s:1539   .text:0000000000000b34 b2
                 1.s:1545   .text:0000000000000b3e b3
                 1.s:1554   .text:0000000000000b4a b4
                 1.s:1560   .text:0000000000000b54 b5
                 1.s:1566   .text:0000000000000b5e b6
                 1.s:1578   .text:0000000000000b70 b7
                 1.s:1580   .text:0000000000000b72 b8
                 1.s:1589   .text:0000000000000b82 b9
                 1.s:1591   .text:0000000000000b84 b10
                 1.s:1600   .text:0000000000000b94 a1
                 1.s:1606   .text:0000000000000b9e a2
                 1.s:1688   .text:0000000000000c30 __chengfa
                 1.s:1644   .text:0000000000000be8 __chufa64
                 1.s:1613   .text:0000000000000bae a3
ARM GAS  1.s 			page 40


                 1.s:1626   .text:0000000000000bc6 a4
                 1.s:1632   .text:0000000000000bd0 a5
                 1.s:1639   .text:0000000000000be0 __a6
                 1.s:1684   .text:0000000000000c2a __chu_fa64_fan_hui0
                 1.s:1654   .text:0000000000000bf6 __chu_fa64_ji_suan
                 1.s:1661   .text:0000000000000c02 __chu_fa64_xun_huan
                 1.s:1670   .text:0000000000000c12 __chu_fa_yi_wei
                 1.s:1678   .text:0000000000000c20 __di_yi_wei
                 1.s:1730   .text:0000000000000c70 __cheng_fa_fan_hui
                 1.s:1702   .text:0000000000000c3a __ji_suan_cheng_fa
                 1.s:1734   .text:0000000000000c76 __dai_yu_shu_chufa
                 1.s:1756   .text:0000000000000c9a __dai_yu_shu_chufafanhui
                 1.s:1746   .text:0000000000000c8a __dai_yu_shu_chufaxunhuan
                 1.s:1753   .text:0000000000000c96 __dai_yu_shu_chufaweishubudao0
                 1.s:1781   .text:0000000000000cc0 _chufafanhui
                 1.s:1771   .text:0000000000000cb0 _chufaxunhuan
                 1.s:1778   .text:0000000000000cbc _chufaweishubudao0
                 1.s:1821   .text:0000000000000d04 _chufafanhui1
                 1.s:1795   .text:0000000000000cd8 __pan_duan_bei_chu_shu
                 1.s:1801   .text:0000000000000ce2 __ji_suan_chu_fa11
                 1.s:1807   .text:0000000000000cec _chufaxunhuan1
                 1.s:1814   .text:0000000000000cf8 _chufaweishubudao00
                 1.s:1824   .text:0000000000000d06 __he_bing_dian_ya_biao
                 1.s:1833   .text:0000000000000d16 __he_bing_dian_ya_biao_xun_huan
                 1.s:1845   .text:0000000000000d2e __zheng_dian_ya
                 1.s:1858   .text:0000000000000d42 __zhuan_bcd
                 1.s:1849   .text:0000000000000d36 __dian_ya_biao_jia
                 1.s:1864   .text:0000000000000d4c __bcd_xun_huan
                 1.s:1889   .text:0000000000000d7e $d
                 1.s:1889   .text:0000000000000d80 $d
                 1.s:1891   .text:0000000000000d94 $t

NO UNDEFINED SYMBOLS
