
j.bin:     file format binary


Disassembly of section .data:

00000000 <.data>:
       0:	0400      	lsls	r0, r0, #16
       2:	2000      	movs	r0, #0
       4:	01d3      	lsls	r3, r2, #7
       6:	0800      	lsrs	r0, r0, #32
       8:	01e1      	lsls	r1, r4, #7
       a:	0800      	lsrs	r0, r0, #32
       c:	01e3      	lsls	r3, r4, #7
       e:	0800      	lsrs	r0, r0, #32
      10:	01e5      	lsls	r5, r4, #7
      12:	0800      	lsrs	r0, r0, #32
      14:	01e7      	lsls	r7, r4, #7
      16:	0800      	lsrs	r0, r0, #32
      18:	01e9      	lsls	r1, r5, #7
      1a:	0800      	lsrs	r0, r0, #32
	...
      2c:	01eb      	lsls	r3, r5, #7
      2e:	0800      	lsrs	r0, r0, #32
      30:	01ed      	lsls	r5, r5, #7
      32:	0800      	lsrs	r0, r0, #32
      34:	0000      	movs	r0, r0
      36:	0000      	movs	r0, r0
      38:	01ef      	lsls	r7, r5, #7
      3a:	0800      	lsrs	r0, r0, #32
      3c:	01f1      	lsls	r1, r6, #7
      3e:	0800      	lsrs	r0, r0, #32
      40:	01f3      	lsls	r3, r6, #7
      42:	0800      	lsrs	r0, r0, #32
      44:	01f3      	lsls	r3, r6, #7
      46:	0800      	lsrs	r0, r0, #32
      48:	01f3      	lsls	r3, r6, #7
      4a:	0800      	lsrs	r0, r0, #32
      4c:	01f3      	lsls	r3, r6, #7
      4e:	0800      	lsrs	r0, r0, #32
      50:	01f3      	lsls	r3, r6, #7
      52:	0800      	lsrs	r0, r0, #32
      54:	01f3      	lsls	r3, r6, #7
      56:	0800      	lsrs	r0, r0, #32
      58:	01f3      	lsls	r3, r6, #7
      5a:	0800      	lsrs	r0, r0, #32
      5c:	01f3      	lsls	r3, r6, #7
      5e:	0800      	lsrs	r0, r0, #32
      60:	01f3      	lsls	r3, r6, #7
      62:	0800      	lsrs	r0, r0, #32
      64:	01f3      	lsls	r3, r6, #7
      66:	0800      	lsrs	r0, r0, #32
      68:	01f3      	lsls	r3, r6, #7
      6a:	0800      	lsrs	r0, r0, #32
      6c:	01f3      	lsls	r3, r6, #7
      6e:	0800      	lsrs	r0, r0, #32
      70:	01f3      	lsls	r3, r6, #7
      72:	0800      	lsrs	r0, r0, #32
      74:	01f3      	lsls	r3, r6, #7
      76:	0800      	lsrs	r0, r0, #32
      78:	01f3      	lsls	r3, r6, #7
      7a:	0800      	lsrs	r0, r0, #32
      7c:	01f3      	lsls	r3, r6, #7
      7e:	0800      	lsrs	r0, r0, #32
      80:	01f3      	lsls	r3, r6, #7
      82:	0800      	lsrs	r0, r0, #32
      84:	01f3      	lsls	r3, r6, #7
      86:	0800      	lsrs	r0, r0, #32
      88:	01f3      	lsls	r3, r6, #7
      8a:	0800      	lsrs	r0, r0, #32
      8c:	01f3      	lsls	r3, r6, #7
      8e:	0800      	lsrs	r0, r0, #32
      90:	01f3      	lsls	r3, r6, #7
      92:	0800      	lsrs	r0, r0, #32
      94:	01f3      	lsls	r3, r6, #7
      96:	0800      	lsrs	r0, r0, #32
      98:	01f3      	lsls	r3, r6, #7
      9a:	0800      	lsrs	r0, r0, #32
      9c:	01f3      	lsls	r3, r6, #7
      9e:	0800      	lsrs	r0, r0, #32
      a0:	01f3      	lsls	r3, r6, #7
      a2:	0800      	lsrs	r0, r0, #32
      a4:	01f3      	lsls	r3, r6, #7
      a6:	0800      	lsrs	r0, r0, #32
      a8:	01f3      	lsls	r3, r6, #7
      aa:	0800      	lsrs	r0, r0, #32
      ac:	01f3      	lsls	r3, r6, #7
      ae:	0800      	lsrs	r0, r0, #32
      b0:	01f3      	lsls	r3, r6, #7
      b2:	0800      	lsrs	r0, r0, #32
      b4:	01f3      	lsls	r3, r6, #7
      b6:	0800      	lsrs	r0, r0, #32
      b8:	01f3      	lsls	r3, r6, #7
      ba:	0800      	lsrs	r0, r0, #32
      bc:	01f3      	lsls	r3, r6, #7
      be:	0800      	lsrs	r0, r0, #32
      c0:	01f3      	lsls	r3, r6, #7
      c2:	0800      	lsrs	r0, r0, #32
      c4:	01f3      	lsls	r3, r6, #7
      c6:	0800      	lsrs	r0, r0, #32
      c8:	01f3      	lsls	r3, r6, #7
      ca:	0800      	lsrs	r0, r0, #32
      cc:	01f3      	lsls	r3, r6, #7
      ce:	0800      	lsrs	r0, r0, #32
      d0:	01f3      	lsls	r3, r6, #7
      d2:	0800      	lsrs	r0, r0, #32
      d4:	01f3      	lsls	r3, r6, #7
      d6:	0800      	lsrs	r0, r0, #32
      d8:	01f3      	lsls	r3, r6, #7
      da:	0800      	lsrs	r0, r0, #32
      dc:	01f3      	lsls	r3, r6, #7
      de:	0800      	lsrs	r0, r0, #32
      e0:	01f3      	lsls	r3, r6, #7
      e2:	0800      	lsrs	r0, r0, #32
      e4:	01f3      	lsls	r3, r6, #7
      e6:	0800      	lsrs	r0, r0, #32
      e8:	01f3      	lsls	r3, r6, #7
      ea:	0800      	lsrs	r0, r0, #32
      ec:	01f3      	lsls	r3, r6, #7
      ee:	0800      	lsrs	r0, r0, #32
      f0:	01f3      	lsls	r3, r6, #7
      f2:	0800      	lsrs	r0, r0, #32
      f4:	01f3      	lsls	r3, r6, #7
      f6:	0800      	lsrs	r0, r0, #32
      f8:	01f3      	lsls	r3, r6, #7
      fa:	0800      	lsrs	r0, r0, #32
      fc:	01f3      	lsls	r3, r6, #7
      fe:	0800      	lsrs	r0, r0, #32
     100:	01f3      	lsls	r3, r6, #7
     102:	0800      	lsrs	r0, r0, #32
     104:	01f3      	lsls	r3, r6, #7
     106:	0800      	lsrs	r0, r0, #32
     108:	01f3      	lsls	r3, r6, #7
     10a:	0800      	lsrs	r0, r0, #32
     10c:	01f3      	lsls	r3, r6, #7
     10e:	0800      	lsrs	r0, r0, #32
     110:	01f3      	lsls	r3, r6, #7
     112:	0800      	lsrs	r0, r0, #32
     114:	01f3      	lsls	r3, r6, #7
     116:	0800      	lsrs	r0, r0, #32
     118:	01f3      	lsls	r3, r6, #7
     11a:	0800      	lsrs	r0, r0, #32
     11c:	01f3      	lsls	r3, r6, #7
     11e:	0800      	lsrs	r0, r0, #32
     120:	01f3      	lsls	r3, r6, #7
     122:	0800      	lsrs	r0, r0, #32
     124:	01f3      	lsls	r3, r6, #7
     126:	0800      	lsrs	r0, r0, #32
     128:	01f3      	lsls	r3, r6, #7
     12a:	0800      	lsrs	r0, r0, #32
     12c:	01f3      	lsls	r3, r6, #7
     12e:	0800      	lsrs	r0, r0, #32
     130:	f000 f802 	bl	0x138
     134:	f000 f83c 	bl	0x1b0
     138:	a00a      	add	r0, pc, #40	; (adr r0, 0x164)
     13a:	e890 0c00 	ldmia.w	r0, {sl, fp}
     13e:	4482      	add	sl, r0
     140:	4483      	add	fp, r0
     142:	f1aa 0701 	sub.w	r7, sl, #1
     146:	45da      	cmp	sl, fp
     148:	d101      	bne.n	0x14e
     14a:	f000 f831 	bl	0x1b0
     14e:	f2af 0e09 	subw	lr, pc, #9
     152:	e8ba 000f 	ldmia.w	sl!, {r0, r1, r2, r3}
     156:	f013 0f01 	tst.w	r3, #1
     15a:	bf18      	it	ne
     15c:	1afb      	subne	r3, r7, r3
     15e:	f043 0301 	orr.w	r3, r3, #1
     162:	4718      	bx	r3
     164:	745c      	strb	r4, [r3, #17]
     166:	0000      	movs	r0, r0
     168:	747c      	strb	r4, [r7, #17]
     16a:	0000      	movs	r0, r0
     16c:	3a10      	subs	r2, #16
     16e:	bf24      	itt	cs
     170:	c878      	ldmiacs	r0!, {r3, r4, r5, r6}
     172:	c178      	stmiacs	r1!, {r3, r4, r5, r6}
     174:	d8fa      	bhi.n	0x16c
     176:	0752      	lsls	r2, r2, #29
     178:	bf24      	itt	cs
     17a:	c830      	ldmiacs	r0!, {r4, r5}
     17c:	c130      	stmiacs	r1!, {r4, r5}
     17e:	bf44      	itt	mi
     180:	6804      	ldrmi	r4, [r0, #0]
     182:	600c      	strmi	r4, [r1, #0]
     184:	4770      	bx	lr
     186:	0000      	movs	r0, r0
     188:	2300      	movs	r3, #0
     18a:	2400      	movs	r4, #0
     18c:	2500      	movs	r5, #0
     18e:	2600      	movs	r6, #0
     190:	3a10      	subs	r2, #16
     192:	bf28      	it	cs
     194:	c178      	stmiacs	r1!, {r3, r4, r5, r6}
     196:	d8fb      	bhi.n	0x190
     198:	0752      	lsls	r2, r2, #29
     19a:	bf28      	it	cs
     19c:	c130      	stmiacs	r1!, {r4, r5}
     19e:	bf48      	it	mi
     1a0:	600b      	strmi	r3, [r1, #0]
     1a2:	4770      	bx	lr
     1a4:	b51f      	push	{r0, r1, r2, r3, r4, lr}
     1a6:	f006 fff4 	bl	0x7192
     1aa:	bd1f      	pop	{r0, r1, r2, r3, r4, pc}
     1ac:	b510      	push	{r4, lr}
     1ae:	bd10      	pop	{r4, pc}
     1b0:	f005 f818 	bl	0x51e4
     1b4:	4611      	mov	r1, r2
     1b6:	f7ff fff5 	bl	0x1a4
     1ba:	f002 fce2 	bl	0x2b82
     1be:	f005 f836 	bl	0x522e
     1c2:	b403      	push	{r0, r1}
     1c4:	f7ff fff2 	bl	0x1ac
     1c8:	bc03      	pop	{r0, r1}
     1ca:	f005 f83d 	bl	0x5248
     1ce:	0000      	movs	r0, r0
     1d0:	4770      	bx	lr
     1d2:	480b      	ldr	r0, [pc, #44]	; (0x200)
     1d4:	4780      	blx	r0
     1d6:	490b      	ldr	r1, [pc, #44]	; (0x204)
     1d8:	f381 8808 	msr	MSP, r1
     1dc:	480a      	ldr	r0, [pc, #40]	; (0x208)
     1de:	4700      	bx	r0
     1e0:	e7fe      	b.n	0x1e0
     1e2:	e7fe      	b.n	0x1e2
     1e4:	e7fe      	b.n	0x1e4
     1e6:	e7fe      	b.n	0x1e6
     1e8:	e7fe      	b.n	0x1e8
     1ea:	e7fe      	b.n	0x1ea
     1ec:	e7fe      	b.n	0x1ec
     1ee:	e7fe      	b.n	0x1ee
     1f0:	e7fe      	b.n	0x1f0
     1f2:	e7fe      	b.n	0x1f2
     1f4:	4805      	ldr	r0, [pc, #20]	; (0x20c)
     1f6:	4906      	ldr	r1, [pc, #24]	; (0x210)
     1f8:	4a06      	ldr	r2, [pc, #24]	; (0x214)
     1fa:	4b07      	ldr	r3, [pc, #28]	; (0x218)
     1fc:	4770      	bx	lr
     1fe:	0000      	movs	r0, r0
     200:	01d1      	lsls	r1, r2, #7
     202:	0800      	lsrs	r0, r0, #32
     204:	1960      	adds	r0, r4, r5
     206:	2000      	movs	r0, #0
     208:	0131      	lsls	r1, r6, #4
     20a:	0800      	lsrs	r0, r0, #32
     20c:	1160      	asrs	r0, r4, #5
     20e:	2000      	movs	r0, #0
     210:	1960      	adds	r0, r4, r5
     212:	2000      	movs	r0, #0
     214:	1560      	asrs	r0, r4, #21
     216:	2000      	movs	r0, #0
     218:	1560      	asrs	r0, r4, #21
     21a:	2000      	movs	r0, #0
     21c:	2100      	movs	r1, #0
     21e:	e000      	b.n	0x222
     220:	1c49      	adds	r1, r1, #1
     222:	4281      	cmp	r1, r0
     224:	dbfc      	blt.n	0x220
     226:	4770      	bx	lr
     228:	b510      	push	{r4, lr}
     22a:	4603      	mov	r3, r0
     22c:	2400      	movs	r4, #0
     22e:	e004      	b.n	0x23a
     230:	f642 60e0 	movw	r0, #12000	; 0x2ee0
     234:	f7ff fff2 	bl	0x21c
     238:	1c64      	adds	r4, r4, #1
     23a:	429c      	cmp	r4, r3
     23c:	dbf8      	blt.n	0x230
     23e:	bd10      	pop	{r4, pc}
     240:	4770      	bx	lr
     242:	4601      	mov	r1, r0
     244:	eb01 02c1 	add.w	r2, r1, r1, lsl #3
     248:	f04f 23e0 	mov.w	r3, #3758153728	; 0xe000e000
     24c:	615a      	str	r2, [r3, #20]
     24e:	2200      	movs	r2, #0
     250:	619a      	str	r2, [r3, #24]
     252:	2201      	movs	r2, #1
     254:	611a      	str	r2, [r3, #16]
     256:	bf00      	nop
     258:	f04f 22e0 	mov.w	r2, #3758153728	; 0xe000e000
     25c:	6910      	ldr	r0, [r2, #16]
     25e:	f010 0f01 	tst.w	r0, #1
     262:	d002      	beq.n	0x26a
     264:	f410 3f80 	tst.w	r0, #65536	; 0x10000
     268:	d0f6      	beq.n	0x258
     26a:	2200      	movs	r2, #0
     26c:	f04f 23e0 	mov.w	r3, #3758153728	; 0xe000e000
     270:	611a      	str	r2, [r3, #16]
     272:	619a      	str	r2, [r3, #24]
     274:	4770      	bx	lr
     276:	b538      	push	{r3, r4, r5, lr}
     278:	4604      	mov	r4, r0
     27a:	460d      	mov	r5, r1
     27c:	2101      	movs	r1, #1
     27e:	2004      	movs	r0, #4
     280:	f003 fe57 	bl	0x3f32
     284:	2003      	movs	r0, #3
     286:	f88d 0002 	strb.w	r0, [sp, #2]
     28a:	f88d 5003 	strb.w	r5, [sp, #3]
     28e:	f8ad 4000 	strh.w	r4, [sp]
     292:	4669      	mov	r1, sp
     294:	48ff      	ldr	r0, [pc, #1020]	; (0x694)
     296:	f003 fba9 	bl	0x39ec
     29a:	bd38      	pop	{r3, r4, r5, pc}
     29c:	b538      	push	{r3, r4, r5, lr}
     29e:	4604      	mov	r4, r0
     2a0:	460d      	mov	r5, r1
     2a2:	2101      	movs	r1, #1
     2a4:	2008      	movs	r0, #8
     2a6:	f003 fe44 	bl	0x3f32
     2aa:	2003      	movs	r0, #3
     2ac:	f88d 0002 	strb.w	r0, [sp, #2]
     2b0:	f88d 5003 	strb.w	r5, [sp, #3]
     2b4:	f8ad 4000 	strh.w	r4, [sp]
     2b8:	4669      	mov	r1, sp
     2ba:	48f7      	ldr	r0, [pc, #988]	; (0x698)
     2bc:	f003 fb96 	bl	0x39ec
     2c0:	bd38      	pop	{r3, r4, r5, pc}
     2c2:	b510      	push	{r4, lr}
     2c4:	2101      	movs	r1, #1
     2c6:	4608      	mov	r0, r1
     2c8:	f003 fe33 	bl	0x3f32
     2cc:	2101      	movs	r1, #1
     2ce:	48f3      	ldr	r0, [pc, #972]	; (0x69c)
     2d0:	f003 fc5b 	bl	0x3b8a
     2d4:	2101      	movs	r1, #1
     2d6:	48f2      	ldr	r0, [pc, #968]	; (0x6a0)
     2d8:	f003 fc57 	bl	0x3b8a
     2dc:	bd10      	pop	{r4, pc}
     2de:	b10a      	cbz	r2, 0x2e4
     2e0:	6101      	str	r1, [r0, #16]
     2e2:	e000      	b.n	0x2e6
     2e4:	6141      	str	r1, [r0, #20]
     2e6:	4770      	bx	lr
     2e8:	4602      	mov	r2, r0
     2ea:	48ee      	ldr	r0, [pc, #952]	; (0x6a4)
     2ec:	6800      	ldr	r0, [r0, #0]
     2ee:	f400 4080 	and.w	r0, r0, #16384	; 0x4000
     2f2:	2801      	cmp	r0, #1
     2f4:	d100      	bne.n	0x2f8
     2f6:	4770      	bx	lr
     2f8:	2000      	movs	r0, #0
     2fa:	e7fc      	b.n	0x2f6
     2fc:	4601      	mov	r1, r0
     2fe:	2900      	cmp	r1, #0
     300:	da05      	bge.n	0x30e
     302:	2000      	movs	r0, #0
     304:	e000      	b.n	0x308
     306:	1c40      	adds	r0, r0, #1
     308:	2864      	cmp	r0, #100	; 0x64
     30a:	dbfc      	blt.n	0x306
     30c:	4770      	bx	lr
     30e:	b931      	cbnz	r1, 0x31e
     310:	2000      	movs	r0, #0
     312:	e000      	b.n	0x316
     314:	1c40      	adds	r0, r0, #1
     316:	f5b0 7ffa 	cmp.w	r0, #500	; 0x1f4
     31a:	dbfb      	blt.n	0x314
     31c:	e7f6      	b.n	0x30c
     31e:	e007      	b.n	0x330
     320:	2200      	movs	r2, #0
     322:	e000      	b.n	0x326
     324:	1c52      	adds	r2, r2, #1
     326:	f242 7310 	movw	r3, #10000	; 0x2710
     32a:	429a      	cmp	r2, r3
     32c:	dbfa      	blt.n	0x324
     32e:	1e49      	subs	r1, r1, #1
     330:	2900      	cmp	r1, #0
     332:	d1f5      	bne.n	0x320
     334:	bf00      	nop
     336:	e7e9      	b.n	0x30c
     338:	b5f0      	push	{r4, r5, r6, r7, lr}
     33a:	4605      	mov	r5, r0
     33c:	460c      	mov	r4, r1
     33e:	4616      	mov	r6, r2
     340:	2200      	movs	r2, #0
     342:	2104      	movs	r1, #4
     344:	48d4      	ldr	r0, [pc, #848]	; (0x698)
     346:	f7ff ffca 	bl	0x2de
     34a:	462b      	mov	r3, r5
     34c:	eb05 70d5 	add.w	r0, r5, r5, lsr #31
     350:	1040      	asrs	r0, r0, #1
     352:	eba5 0240 	sub.w	r2, r5, r0, lsl #1
     356:	2102      	movs	r1, #2
     358:	48cf      	ldr	r0, [pc, #828]	; (0x698)
     35a:	f7ff ffc0 	bl	0x2de
     35e:	462f      	mov	r7, r5
     360:	eb05 70d5 	add.w	r0, r5, r5, lsr #31
     364:	1043      	asrs	r3, r0, #1
     366:	eb03 70d3 	add.w	r0, r3, r3, lsr #31
     36a:	1040      	asrs	r0, r0, #1
     36c:	eba3 0240 	sub.w	r2, r3, r0, lsl #1
     370:	2101      	movs	r1, #1
     372:	48c9      	ldr	r0, [pc, #804]	; (0x698)
     374:	f7ff ffb3 	bl	0x2de
     378:	f004 0210 	and.w	r2, r4, #16
     37c:	f44f 6180 	mov.w	r1, #1024	; 0x400
     380:	48c5      	ldr	r0, [pc, #788]	; (0x698)
     382:	f7ff ffac 	bl	0x2de
     386:	f004 0220 	and.w	r2, r4, #32
     38a:	f44f 6100 	mov.w	r1, #2048	; 0x800
     38e:	48c2      	ldr	r0, [pc, #776]	; (0x698)
     390:	f7ff ffa5 	bl	0x2de
     394:	f004 0240 	and.w	r2, r4, #64	; 0x40
     398:	f44f 5180 	mov.w	r1, #4096	; 0x1000
     39c:	48be      	ldr	r0, [pc, #760]	; (0x698)
     39e:	f7ff ff9e 	bl	0x2de
     3a2:	f004 0280 	and.w	r2, r4, #128	; 0x80
     3a6:	f44f 5100 	mov.w	r1, #8192	; 0x2000
     3aa:	48bb      	ldr	r0, [pc, #748]	; (0x698)
     3ac:	f7ff ff97 	bl	0x2de
     3b0:	2201      	movs	r2, #1
     3b2:	2104      	movs	r1, #4
     3b4:	48b8      	ldr	r0, [pc, #736]	; (0x698)
     3b6:	f7ff ff92 	bl	0x2de
     3ba:	f04f 30ff 	mov.w	r0, #4294967295	; 0xffffffff
     3be:	f7ff ff9d 	bl	0x2fc
     3c2:	2200      	movs	r2, #0
     3c4:	2104      	movs	r1, #4
     3c6:	48b4      	ldr	r0, [pc, #720]	; (0x698)
     3c8:	f7ff ff89 	bl	0x2de
     3cc:	2d04      	cmp	r5, #4
     3ce:	d103      	bne.n	0x3d8
     3d0:	4630      	mov	r0, r6
     3d2:	f7ff ff93 	bl	0x2fc
     3d6:	bdf0      	pop	{r4, r5, r6, r7, pc}
     3d8:	f004 0201 	and.w	r2, r4, #1
     3dc:	f44f 6180 	mov.w	r1, #1024	; 0x400
     3e0:	48ad      	ldr	r0, [pc, #692]	; (0x698)
     3e2:	f7ff ff7c 	bl	0x2de
     3e6:	f004 0202 	and.w	r2, r4, #2
     3ea:	f44f 6100 	mov.w	r1, #2048	; 0x800
     3ee:	48aa      	ldr	r0, [pc, #680]	; (0x698)
     3f0:	f7ff ff75 	bl	0x2de
     3f4:	f004 0204 	and.w	r2, r4, #4
     3f8:	f44f 5180 	mov.w	r1, #4096	; 0x1000
     3fc:	48a6      	ldr	r0, [pc, #664]	; (0x698)
     3fe:	f7ff ff6e 	bl	0x2de
     402:	f004 0208 	and.w	r2, r4, #8
     406:	f44f 5100 	mov.w	r1, #8192	; 0x2000
     40a:	48a3      	ldr	r0, [pc, #652]	; (0x698)
     40c:	f7ff ff67 	bl	0x2de
     410:	2201      	movs	r2, #1
     412:	2104      	movs	r1, #4
     414:	48a0      	ldr	r0, [pc, #640]	; (0x698)
     416:	f7ff ff62 	bl	0x2de
     41a:	f04f 30ff 	mov.w	r0, #4294967295	; 0xffffffff
     41e:	f7ff ff6d 	bl	0x2fc
     422:	2200      	movs	r2, #0
     424:	2104      	movs	r1, #4
     426:	489c      	ldr	r0, [pc, #624]	; (0x698)
     428:	f7ff ff59 	bl	0x2de
     42c:	4630      	mov	r0, r6
     42e:	f7ff ff65 	bl	0x2fc
     432:	bf00      	nop
     434:	e7cf      	b.n	0x3d6
     436:	b510      	push	{r4, lr}
     438:	2110      	movs	r1, #16
     43a:	f643 4006 	movw	r0, #15366	; 0x3c06
     43e:	f7ff ff2d 	bl	0x29c
     442:	2014      	movs	r0, #20
     444:	f7ff ff5a 	bl	0x2fc
     448:	2209      	movs	r2, #9
     44a:	2130      	movs	r1, #48	; 0x30
     44c:	2004      	movs	r0, #4
     44e:	f7ff ff73 	bl	0x338
     452:	2205      	movs	r2, #5
     454:	2130      	movs	r1, #48	; 0x30
     456:	2004      	movs	r0, #4
     458:	f7ff ff6e 	bl	0x338
     45c:	2205      	movs	r2, #5
     45e:	2130      	movs	r1, #48	; 0x30
     460:	2004      	movs	r0, #4
     462:	f7ff ff69 	bl	0x338
     466:	2205      	movs	r2, #5
     468:	2120      	movs	r1, #32
     46a:	2004      	movs	r0, #4
     46c:	f7ff ff64 	bl	0x338
     470:	2205      	movs	r2, #5
     472:	2128      	movs	r1, #40	; 0x28
     474:	2000      	movs	r0, #0
     476:	f7ff ff5f 	bl	0x338
     47a:	2205      	movs	r2, #5
     47c:	210c      	movs	r1, #12
     47e:	2000      	movs	r0, #0
     480:	f7ff ff5a 	bl	0x338
     484:	2205      	movs	r2, #5
     486:	2180      	movs	r1, #128	; 0x80
     488:	2000      	movs	r0, #0
     48a:	f7ff ff55 	bl	0x338
     48e:	2205      	movs	r2, #5
     490:	2101      	movs	r1, #1
     492:	2000      	movs	r0, #0
     494:	f7ff ff50 	bl	0x338
     498:	2200      	movs	r2, #0
     49a:	210c      	movs	r1, #12
     49c:	4610      	mov	r0, r2
     49e:	f7ff ff4b 	bl	0x338
     4a2:	bd10      	pop	{r4, pc}
     4a4:	b500      	push	{lr}
     4a6:	2202      	movs	r2, #2
     4a8:	2101      	movs	r1, #1
     4aa:	2000      	movs	r0, #0
     4ac:	f7ff ff44 	bl	0x338
     4b0:	bd00      	pop	{pc}
     4b2:	b510      	push	{r4, lr}
     4b4:	4604      	mov	r4, r0
     4b6:	f104 0080 	add.w	r0, r4, #128	; 0x80
     4ba:	b2c1      	uxtb	r1, r0
     4bc:	2200      	movs	r2, #0
     4be:	4610      	mov	r0, r2
     4c0:	f7ff ff3a 	bl	0x338
     4c4:	bd10      	pop	{r4, pc}
     4c6:	b510      	push	{r4, lr}
     4c8:	4604      	mov	r4, r0
     4ca:	f104 00c0 	add.w	r0, r4, #192	; 0xc0
     4ce:	b2c1      	uxtb	r1, r0
     4d0:	2200      	movs	r2, #0
     4d2:	4610      	mov	r0, r2
     4d4:	f7ff ff30 	bl	0x338
     4d8:	bd10      	pop	{r4, pc}
     4da:	b510      	push	{r4, lr}
     4dc:	4604      	mov	r4, r0
     4de:	4621      	mov	r1, r4
     4e0:	2200      	movs	r2, #0
     4e2:	2001      	movs	r0, #1
     4e4:	f7ff ff28 	bl	0x338
     4e8:	bd10      	pop	{r4, pc}
     4ea:	b510      	push	{r4, lr}
     4ec:	4604      	mov	r4, r0
     4ee:	f104 0094 	add.w	r0, r4, #148	; 0x94
     4f2:	b2c1      	uxtb	r1, r0
     4f4:	2200      	movs	r2, #0
     4f6:	4610      	mov	r0, r2
     4f8:	f7ff ff1e 	bl	0x338
     4fc:	bd10      	pop	{r4, pc}
     4fe:	b510      	push	{r4, lr}
     500:	4604      	mov	r4, r0
     502:	f104 00d4 	add.w	r0, r4, #212	; 0xd4
     506:	b2c1      	uxtb	r1, r0
     508:	2200      	movs	r2, #0
     50a:	4610      	mov	r0, r2
     50c:	f7ff ff14 	bl	0x338
     510:	bd10      	pop	{r4, pc}
     512:	b510      	push	{r4, lr}
     514:	4604      	mov	r4, r0
     516:	e005      	b.n	0x524
     518:	7821      	ldrb	r1, [r4, #0]
     51a:	2200      	movs	r2, #0
     51c:	2001      	movs	r0, #1
     51e:	f7ff ff0b 	bl	0x338
     522:	1c64      	adds	r4, r4, #1
     524:	7820      	ldrb	r0, [r4, #0]
     526:	2800      	cmp	r0, #0
     528:	d1f6      	bne.n	0x518
     52a:	bd10      	pop	{r4, pc}
     52c:	e92d 4fff 	stmdb	sp!, {r0, r1, r2, r3, r4, r5, r6, r7, r8, r9, sl, fp, lr}
     530:	b08f      	sub	sp, #60	; 0x3c
     532:	4683      	mov	fp, r0
     534:	4689      	mov	r9, r1
     536:	4616      	mov	r6, r2
     538:	a15b      	add	r1, pc, #364	; (adr r1, 0x6a8)
     53a:	c903      	ldmia	r1, {r0, r1}
     53c:	e9cd 010c 	strd	r0, r1, [sp, #48]	; 0x30
     540:	2004      	movs	r0, #4
     542:	900a      	str	r0, [sp, #40]	; 0x28
     544:	2003      	movs	r0, #3
     546:	9009      	str	r0, [sp, #36]	; 0x24
     548:	a059      	add	r0, pc, #356	; (adr r0, 0x6b0)
     54a:	6800      	ldr	r0, [r0, #0]
     54c:	9008      	str	r0, [sp, #32]
     54e:	2701      	movs	r7, #1
     550:	f04f 507e 	mov.w	r0, #1065353216	; 0x3f800000
     554:	9006      	str	r0, [sp, #24]
     556:	2100      	movs	r1, #0
     558:	4658      	mov	r0, fp
     55a:	f006 fd1f 	bl	0x6f9c
     55e:	d204      	bcs.n	0x56a
     560:	202d      	movs	r0, #45	; 0x2d
     562:	f88d 0020 	strb.w	r0, [sp, #32]
     566:	f08b 4b00 	eor.w	fp, fp, #2147483648	; 0x80000000
     56a:	2100      	movs	r1, #0
     56c:	4648      	mov	r0, r9
     56e:	f006 fd15 	bl	0x6f9c
     572:	d204      	bcs.n	0x57e
     574:	202d      	movs	r0, #45	; 0x2d
     576:	f88d 0021 	strb.w	r0, [sp, #33]	; 0x21
     57a:	f089 4900 	eor.w	r9, r9, #2147483648	; 0x80000000
     57e:	4649      	mov	r1, r9
     580:	4658      	mov	r0, fp
     582:	f006 fe12 	bl	0x71aa
     586:	d202      	bcs.n	0x58e
     588:	f8cd b01c 	str.w	fp, [sp, #28]
     58c:	e001      	b.n	0x592
     58e:	f8cd 901c 	str.w	r9, [sp, #28]
     592:	2401      	movs	r4, #1
     594:	e004      	b.n	0x5a0
     596:	eb07 0087 	add.w	r0, r7, r7, lsl #2
     59a:	0047      	lsls	r7, r0, #1
     59c:	1c60      	adds	r0, r4, #1
     59e:	b2c4      	uxtb	r4, r0
     5a0:	2c04      	cmp	r4, #4
     5a2:	dbf8      	blt.n	0x596
     5a4:	2400      	movs	r4, #0
     5a6:	e018      	b.n	0x5da
     5a8:	e9dd 1006 	ldrd	r1, r0, [sp, #24]
     5ac:	f006 fd2a 	bl	0x7004
     5b0:	9003      	str	r0, [sp, #12]
     5b2:	f006 fb2f 	bl	0x6c14
     5b6:	2200      	movs	r2, #0
     5b8:	4b3e      	ldr	r3, [pc, #248]	; (0x6b4)
     5ba:	e9cd 0104 	strd	r0, r1, [sp, #16]
     5be:	f006 f917 	bl	0x67f0
     5c2:	d808      	bhi.n	0x5d6
     5c4:	493c      	ldr	r1, [pc, #240]	; (0x6b8)
     5c6:	9806      	ldr	r0, [sp, #24]
     5c8:	f006 fbbe 	bl	0x6d48
     5cc:	9006      	str	r0, [sp, #24]
     5ce:	980a      	ldr	r0, [sp, #40]	; 0x28
     5d0:	1c40      	adds	r0, r0, #1
     5d2:	b2c0      	uxtb	r0, r0
     5d4:	900a      	str	r0, [sp, #40]	; 0x28
     5d6:	1c60      	adds	r0, r4, #1
     5d8:	b2c4      	uxtb	r4, r0
     5da:	2c03      	cmp	r4, #3
     5dc:	dbe4      	blt.n	0x5a8
     5de:	2400      	movs	r4, #0
     5e0:	e018      	b.n	0x614
     5e2:	e9dd 1006 	ldrd	r1, r0, [sp, #24]
     5e6:	f006 fd0d 	bl	0x7004
     5ea:	9003      	str	r0, [sp, #12]
     5ec:	f006 fb12 	bl	0x6c14
     5f0:	4a32      	ldr	r2, [pc, #200]	; (0x6bc)
     5f2:	4b33      	ldr	r3, [pc, #204]	; (0x6c0)
     5f4:	e9cd 0104 	strd	r0, r1, [sp, #16]
     5f8:	f005 ff18 	bl	0x642c
     5fc:	d208      	bcs.n	0x610
     5fe:	492e      	ldr	r1, [pc, #184]	; (0x6b8)
     600:	9806      	ldr	r0, [sp, #24]
     602:	f006 fcff 	bl	0x7004
     606:	9006      	str	r0, [sp, #24]
     608:	980a      	ldr	r0, [sp, #40]	; 0x28
     60a:	1e40      	subs	r0, r0, #1
     60c:	b2c0      	uxtb	r0, r0
     60e:	900a      	str	r0, [sp, #40]	; 0x28
     610:	1c60      	adds	r0, r4, #1
     612:	b2c4      	uxtb	r4, r0
     614:	9812      	ldr	r0, [sp, #72]	; 0x48
     616:	4284      	cmp	r4, r0
     618:	dbe3      	blt.n	0x5e2
     61a:	2401      	movs	r4, #1
     61c:	e00a      	b.n	0x634
     61e:	4929      	ldr	r1, [pc, #164]	; (0x6c4)
     620:	9806      	ldr	r0, [sp, #24]
     622:	f006 fcef 	bl	0x7004
     626:	9006      	str	r0, [sp, #24]
     628:	9809      	ldr	r0, [sp, #36]	; 0x24
     62a:	1e40      	subs	r0, r0, #1
     62c:	b2c0      	uxtb	r0, r0
     62e:	9009      	str	r0, [sp, #36]	; 0x24
     630:	1c60      	adds	r0, r4, #1
     632:	b2c4      	uxtb	r4, r0
     634:	2c04      	cmp	r4, #4
     636:	da18      	bge.n	0x66a
     638:	4638      	mov	r0, r7
     63a:	f005 fecc 	bl	0x63d6
     63e:	4a1f      	ldr	r2, [pc, #124]	; (0x6bc)
     640:	4b1f      	ldr	r3, [pc, #124]	; (0x6c0)
     642:	e9cd 0100 	strd	r0, r1, [sp]
     646:	f005 ff2d 	bl	0x64a4
     64a:	e9cd 0104 	strd	r0, r1, [sp, #16]
     64e:	e9dd 1006 	ldrd	r1, r0, [sp, #24]
     652:	f006 fcd7 	bl	0x7004
     656:	9001      	str	r0, [sp, #4]
     658:	f006 fadc 	bl	0x6c14
     65c:	e9cd 0102 	strd	r0, r1, [sp, #8]
     660:	e9dd 2304 	ldrd	r2, r3, [sp, #16]
     664:	f005 fee2 	bl	0x642c
     668:	d3d9      	bcc.n	0x61e
     66a:	4658      	mov	r0, fp
     66c:	9906      	ldr	r1, [sp, #24]
     66e:	f006 fcc9 	bl	0x7004
     672:	4683      	mov	fp, r0
     674:	4648      	mov	r0, r9
     676:	9906      	ldr	r1, [sp, #24]
     678:	f006 fcc4 	bl	0x7004
     67c:	4681      	mov	r9, r0
     67e:	9906      	ldr	r1, [sp, #24]
     680:	981c      	ldr	r0, [sp, #112]	; 0x70
     682:	f006 fcbf 	bl	0x7004
     686:	9005      	str	r0, [sp, #20]
     688:	f006 fc54 	bl	0x6f34
     68c:	4680      	mov	r8, r0
     68e:	2400      	movs	r4, #0
     690:	e0a3      	b.n	0x7da
     692:	0000      	movs	r0, r0
     694:	0800      	lsrs	r0, r0, #32
     696:	4001      	ands	r1, r0
     698:	0c00      	lsrs	r0, r0, #16
     69a:	4001      	ands	r1, r0
     69c:	0400      	lsls	r0, r0, #16
     69e:	0030      	movs	r0, r6
     6a0:	0200      	lsls	r0, r0, #8
     6a2:	0030      	movs	r0, r6
     6a4:	0c08      	lsrs	r0, r1, #16
     6a6:	4001      	ands	r1, r0
     6a8:	6e70      	ldr	r0, [r6, #100]	; 0x64
     6aa:	6d75      	ldr	r5, [r6, #84]	; 0x54
     6ac:	6b20      	ldr	r0, [r4, #48]	; 0x30
     6ae:	474d      	bx	r9
     6b0:	2b20      	cmp	r3, #32
     6b2:	0000      	movs	r0, r0
     6b4:	3000      	adds	r0, #0
     6b6:	4091      	lsls	r1, r2
     6b8:	0000      	movs	r0, r0
     6ba:	447a      	add	r2, pc
     6bc:	999a      	ldr	r1, [sp, #616]	; 0x268
     6be:	9999      	ldr	r1, [sp, #612]	; 0x264
     6c0:	9999      	ldr	r1, [sp, #612]	; 0x264
     6c2:	3ff1      	subs	r7, #241	; 0xf1
     6c4:	0000      	movs	r0, r0
     6c6:	4120      	asrs	r0, r4
     6c8:	b174      	cbz	r4, 0x6e8
     6ca:	4648      	mov	r0, r9
     6cc:	f006 faa2 	bl	0x6c14
     6d0:	2200      	movs	r2, #0
     6d2:	4bfb      	ldr	r3, [pc, #1004]	; (0xac0)
     6d4:	e9cd 0102 	strd	r0, r1, [sp, #8]
     6d8:	f005 fc0e 	bl	0x5ef8
     6dc:	e9cd 0104 	strd	r0, r1, [sp, #16]
     6e0:	f005 fe1c 	bl	0x631c
     6e4:	4605      	mov	r5, r0
     6e6:	e00d      	b.n	0x704
     6e8:	4658      	mov	r0, fp
     6ea:	f006 fa93 	bl	0x6c14
     6ee:	2200      	movs	r2, #0
     6f0:	4bf3      	ldr	r3, [pc, #972]	; (0xac0)
     6f2:	e9cd 0102 	strd	r0, r1, [sp, #8]
     6f6:	f005 fbff 	bl	0x5ef8
     6fa:	e9cd 0104 	strd	r0, r1, [sp, #16]
     6fe:	f005 fe0d 	bl	0x631c
     702:	4605      	mov	r5, r0
     704:	f1b8 0f00 	cmp.w	r8, #0
     708:	d009      	beq.n	0x71e
     70a:	4640      	mov	r0, r8
     70c:	eb08 71d8 	add.w	r1, r8, r8, lsr #31
     710:	eb05 0561 	add.w	r5, r5, r1, asr #1
     714:	fb95 f1f8 	sdiv	r1, r5, r8
     718:	fb08 5111 	mls	r1, r8, r1, r5
     71c:	1a6d      	subs	r5, r5, r1
     71e:	eb07 0087 	add.w	r0, r7, r7, lsl #2
     722:	ebb5 0f80 	cmp.w	r5, r0, lsl #2
     726:	db17      	blt.n	0x758
     728:	4628      	mov	r0, r5
     72a:	f005 fe54 	bl	0x63d6
     72e:	2200      	movs	r2, #0
     730:	4be3      	ldr	r3, [pc, #908]	; (0xac0)
     732:	e9cd 0100 	strd	r0, r1, [sp]
     736:	f005 fbdf 	bl	0x5ef8
     73a:	2200      	movs	r2, #0
     73c:	4be1      	ldr	r3, [pc, #900]	; (0xac4)
     73e:	e9cd 0102 	strd	r0, r1, [sp, #8]
     742:	f005 fc93 	bl	0x606c
     746:	e9cd 0104 	strd	r0, r1, [sp, #16]
     74a:	f005 fde7 	bl	0x631c
     74e:	4605      	mov	r5, r0
     750:	9809      	ldr	r0, [sp, #36]	; 0x24
     752:	1c40      	adds	r0, r0, #1
     754:	b2c0      	uxtb	r0, r0
     756:	9009      	str	r0, [sp, #36]	; 0x24
     758:	46ba      	mov	sl, r7
     75a:	eb07 0087 	add.w	r0, r7, r7, lsl #2
     75e:	ebb5 0f40 	cmp.w	r5, r0, lsl #1
     762:	db0e      	blt.n	0x782
     764:	eb07 0087 	add.w	r0, r7, r7, lsl #2
     768:	eba5 0540 	sub.w	r5, r5, r0, lsl #1
     76c:	a808      	add	r0, sp, #32
     76e:	5d00      	ldrb	r0, [r0, r4]
     770:	282d      	cmp	r0, #45	; 0x2d
     772:	d103      	bne.n	0x77c
     774:	2000      	movs	r0, #0
     776:	a908      	add	r1, sp, #32
     778:	5508      	strb	r0, [r1, r4]
     77a:	e002      	b.n	0x782
     77c:	2001      	movs	r0, #1
     77e:	a908      	add	r1, sp, #32
     780:	5508      	strb	r0, [r1, r4]
     782:	b10e      	cbz	r6, 0x788
     784:	2e01      	cmp	r6, #1
     786:	d103      	bne.n	0x790
     788:	a908      	add	r1, sp, #32
     78a:	5d08      	ldrb	r0, [r1, r4]
     78c:	f7ff fea5 	bl	0x4da
     790:	2000      	movs	r0, #0
     792:	900b      	str	r0, [sp, #44]	; 0x2c
     794:	e018      	b.n	0x7c8
     796:	fb95 f0fa 	sdiv	r0, r5, sl
     79a:	3030      	adds	r0, #48	; 0x30
     79c:	b2c0      	uxtb	r0, r0
     79e:	9005      	str	r0, [sp, #20]
     7a0:	f7ff fe9b 	bl	0x4da
     7a4:	9909      	ldr	r1, [sp, #36]	; 0x24
     7a6:	980b      	ldr	r0, [sp, #44]	; 0x2c
     7a8:	4288      	cmp	r0, r1
     7aa:	d102      	bne.n	0x7b2
     7ac:	202e      	movs	r0, #46	; 0x2e
     7ae:	f7ff fe94 	bl	0x4da
     7b2:	fb95 f0fa 	sdiv	r0, r5, sl
     7b6:	fb0a 5510 	mls	r5, sl, r0, r5
     7ba:	200a      	movs	r0, #10
     7bc:	fb9a faf0 	sdiv	sl, sl, r0
     7c0:	980b      	ldr	r0, [sp, #44]	; 0x2c
     7c2:	1c40      	adds	r0, r0, #1
     7c4:	b2c0      	uxtb	r0, r0
     7c6:	900b      	str	r0, [sp, #44]	; 0x2c
     7c8:	980b      	ldr	r0, [sp, #44]	; 0x2c
     7ca:	2804      	cmp	r0, #4
     7cc:	dbe3      	blt.n	0x796
     7ce:	b10e      	cbz	r6, 0x7d4
     7d0:	2e02      	cmp	r6, #2
     7d2:	d100      	bne.n	0x7d6
     7d4:	e004      	b.n	0x7e0
     7d6:	1c60      	adds	r0, r4, #1
     7d8:	b2c4      	uxtb	r4, r0
     7da:	2c02      	cmp	r4, #2
     7dc:	f6ff af74 	blt.w	0x6c8
     7e0:	bf00      	nop
     7e2:	b10e      	cbz	r6, 0x7e8
     7e4:	2e01      	cmp	r6, #1
     7e6:	d104      	bne.n	0x7f2
     7e8:	aa0c      	add	r2, sp, #48	; 0x30
     7ea:	990a      	ldr	r1, [sp, #40]	; 0x28
     7ec:	5c50      	ldrb	r0, [r2, r1]
     7ee:	f7ff fe74 	bl	0x4da
     7f2:	b013      	add	sp, #76	; 0x4c
     7f4:	e8bd 8ff0 	ldmia.w	sp!, {r4, r5, r6, r7, r8, r9, sl, fp, pc}
     7f8:	b5f8      	push	{r3, r4, r5, r6, r7, lr}
     7fa:	4606      	mov	r6, r0
     7fc:	460c      	mov	r4, r1
     7fe:	4615      	mov	r5, r2
     800:	4623      	mov	r3, r4
     802:	2200      	movs	r2, #0
     804:	4611      	mov	r1, r2
     806:	4630      	mov	r0, r6
     808:	9500      	str	r5, [sp, #0]
     80a:	f7ff fe8f 	bl	0x52c
     80e:	bdf8      	pop	{r3, r4, r5, r6, r7, pc}
     810:	b57e      	push	{r1, r2, r3, r4, r5, r6, lr}
     812:	4604      	mov	r4, r0
     814:	460d      	mov	r5, r1
     816:	2600      	movs	r6, #0
     818:	a2ab      	add	r2, pc, #684	; (adr r2, 0xac8)
     81a:	ca07      	ldmia	r2, {r0, r1, r2}
     81c:	e88d 0007 	stmia.w	sp, {r0, r1, r2}
     820:	2c00      	cmp	r4, #0
     822:	da04      	bge.n	0x82e
     824:	4264      	negs	r4, r4
     826:	a0ab      	add	r0, pc, #684	; (adr r0, 0xad4)
     828:	f7ff fe73 	bl	0x512
     82c:	e002      	b.n	0x834
     82e:	a0aa      	add	r0, pc, #680	; (adr r0, 0xad8)
     830:	f7ff fe6f 	bl	0x512
     834:	bf00      	nop
     836:	200a      	movs	r0, #10
     838:	fb94 f1f0 	sdiv	r1, r4, r0
     83c:	fb00 4011 	mls	r0, r0, r1, r4
     840:	3030      	adds	r0, #48	; 0x30
     842:	b2c2      	uxtb	r2, r0
     844:	4630      	mov	r0, r6
     846:	1c71      	adds	r1, r6, #1
     848:	b2ce      	uxtb	r6, r1
     84a:	f80d 2000 	strb.w	r2, [sp, r0]
     84e:	200a      	movs	r0, #10
     850:	fb94 f4f0 	sdiv	r4, r4, r0
     854:	2c00      	cmp	r4, #0
     856:	d1ee      	bne.n	0x836
     858:	e006      	b.n	0x868
     85a:	1e69      	subs	r1, r5, #1
     85c:	f81d 0001 	ldrb.w	r0, [sp, r1]
     860:	f7ff fe3b 	bl	0x4da
     864:	1e68      	subs	r0, r5, #1
     866:	b2c5      	uxtb	r5, r0
     868:	2d00      	cmp	r5, #0
     86a:	d1f6      	bne.n	0x85a
     86c:	bd7e      	pop	{r1, r2, r3, r4, r5, r6, pc}
     86e:	b570      	push	{r4, r5, r6, lr}
     870:	4605      	mov	r5, r0
     872:	460e      	mov	r6, r1
     874:	06e8      	lsls	r0, r5, #27
     876:	0e05      	lsrs	r5, r0, #24
     878:	2400      	movs	r4, #0
     87a:	e00e      	b.n	0x89a
     87c:	f105 0040 	add.w	r0, r5, #64	; 0x40
     880:	4420      	add	r0, r4
     882:	b2c1      	uxtb	r1, r0
     884:	2200      	movs	r2, #0
     886:	4610      	mov	r0, r2
     888:	f7ff fd56 	bl	0x338
     88c:	5d31      	ldrb	r1, [r6, r4]
     88e:	2200      	movs	r2, #0
     890:	2001      	movs	r0, #1
     892:	f7ff fd51 	bl	0x338
     896:	1c60      	adds	r0, r4, #1
     898:	b2c4      	uxtb	r4, r0
     89a:	2c08      	cmp	r4, #8
     89c:	dbee      	blt.n	0x87c
     89e:	bd70      	pop	{r4, r5, r6, pc}
     8a0:	b530      	push	{r4, r5, lr}
     8a2:	4601      	mov	r1, r0
     8a4:	4d8d      	ldr	r5, [pc, #564]	; (0xadc)
     8a6:	682a      	ldr	r2, [r5, #0]
     8a8:	17d5      	asrs	r5, r2, #31
     8aa:	eb02 7595 	add.w	r5, r2, r5, lsr #30
     8ae:	10ac      	asrs	r4, r5, #2
     8b0:	2903      	cmp	r1, #3
     8b2:	dd00      	ble.n	0x8b6
     8b4:	2103      	movs	r1, #3
     8b6:	2900      	cmp	r1, #0
     8b8:	da00      	bge.n	0x8bc
     8ba:	2100      	movs	r1, #0
     8bc:	2000      	movs	r0, #0
     8be:	e013      	b.n	0x8e8
     8c0:	fb90 f5f4 	sdiv	r5, r0, r4
     8c4:	186a      	adds	r2, r5, r1
     8c6:	17d5      	asrs	r5, r2, #31
     8c8:	eb02 7595 	add.w	r5, r2, r5, lsr #30
     8cc:	10ad      	asrs	r5, r5, #2
     8ce:	eba2 0385 	sub.w	r3, r2, r5, lsl #2
     8d2:	2b02      	cmp	r3, #2
     8d4:	da04      	bge.n	0x8e0
     8d6:	4a82      	ldr	r2, [pc, #520]	; (0xae0)
     8d8:	6812      	ldr	r2, [r2, #0]
     8da:	4d82      	ldr	r5, [pc, #520]	; (0xae4)
     8dc:	542a      	strb	r2, [r5, r0]
     8de:	e002      	b.n	0x8e6
     8e0:	2200      	movs	r2, #0
     8e2:	4d80      	ldr	r5, [pc, #512]	; (0xae4)
     8e4:	542a      	strb	r2, [r5, r0]
     8e6:	1c40      	adds	r0, r0, #1
     8e8:	4a7c      	ldr	r2, [pc, #496]	; (0xadc)
     8ea:	6812      	ldr	r2, [r2, #0]
     8ec:	4290      	cmp	r0, r2
     8ee:	dbe7      	blt.n	0x8c0
     8f0:	4a7d      	ldr	r2, [pc, #500]	; (0xae8)
     8f2:	6011      	str	r1, [r2, #0]
     8f4:	bd30      	pop	{r4, r5, pc}
     8f6:	e92d 4ff0 	stmdb	sp!, {r4, r5, r6, r7, r8, r9, sl, fp, lr}
     8fa:	b091      	sub	sp, #68	; 0x44
     8fc:	4680      	mov	r8, r0
     8fe:	f04f 0b01 	mov.w	fp, #1
     902:	46d9      	mov	r9, fp
     904:	f1b8 0f05 	cmp.w	r8, #5
     908:	d107      	bne.n	0x91a
     90a:	f242 7010 	movw	r0, #10000	; 0x2710
     90e:	4977      	ldr	r1, [pc, #476]	; (0xaec)
     910:	6008      	str	r0, [r1, #0]
     912:	f04f 0b5a 	mov.w	fp, #90	; 0x5a
     916:	f04f 0950 	mov.w	r9, #80	; 0x50
     91a:	f1b8 0f04 	cmp.w	r8, #4
     91e:	d107      	bne.n	0x930
     920:	f44f 60fa 	mov.w	r0, #2000	; 0x7d0
     924:	4971      	ldr	r1, [pc, #452]	; (0xaec)
     926:	6008      	str	r0, [r1, #0]
     928:	f04f 0b5a 	mov.w	fp, #90	; 0x5a
     92c:	f44f 79c8 	mov.w	r9, #400	; 0x190
     930:	f1b8 0f03 	cmp.w	r8, #3
     934:	d107      	bne.n	0x946
     936:	f44f 707a 	mov.w	r0, #1000	; 0x3e8
     93a:	496c      	ldr	r1, [pc, #432]	; (0xaec)
     93c:	6008      	str	r0, [r1, #0]
     93e:	f04f 0bc8 	mov.w	fp, #200	; 0xc8
     942:	f44f 79b4 	mov.w	r9, #360	; 0x168
     946:	f1b8 0f02 	cmp.w	r8, #2
     94a:	d107      	bne.n	0x95c
     94c:	f44f 70c8 	mov.w	r0, #400	; 0x190
     950:	4966      	ldr	r1, [pc, #408]	; (0xaec)
     952:	6008      	str	r0, [r1, #0]
     954:	f04f 0bb4 	mov.w	fp, #180	; 0xb4
     958:	f44f 797a 	mov.w	r9, #1000	; 0x3e8
     95c:	f1b8 0f01 	cmp.w	r8, #1
     960:	d105      	bne.n	0x96e
     962:	20c8      	movs	r0, #200	; 0xc8
     964:	4961      	ldr	r1, [pc, #388]	; (0xaec)
     966:	6008      	str	r0, [r1, #0]
     968:	4683      	mov	fp, r0
     96a:	f44f 69e1 	mov.w	r9, #1800	; 0x708
     96e:	f1b8 0f00 	cmp.w	r8, #0
     972:	d106      	bne.n	0x982
     974:	2064      	movs	r0, #100	; 0x64
     976:	495d      	ldr	r1, [pc, #372]	; (0xaec)
     978:	6008      	str	r0, [r1, #0]
     97a:	f04f 0bc8 	mov.w	fp, #200	; 0xc8
     97e:	f44f 6961 	mov.w	r9, #3600	; 0xe10
     982:	f1b8 0f32 	cmp.w	r8, #50	; 0x32
     986:	d106      	bne.n	0x996
     988:	4859      	ldr	r0, [pc, #356]	; (0xaf0)
     98a:	4958      	ldr	r1, [pc, #352]	; (0xaec)
     98c:	6008      	str	r0, [r1, #0]
     98e:	f44f 7b7a 	mov.w	fp, #1000	; 0x3e8
     992:	f04f 0901 	mov.w	r9, #1
     996:	4857      	ldr	r0, [pc, #348]	; (0xaf4)
     998:	f8c0 8000 	str.w	r8, [r0]
     99c:	200a      	movs	r0, #10
     99e:	fb99 f0f0 	sdiv	r0, r9, r0
     9a2:	494e      	ldr	r1, [pc, #312]	; (0xadc)
     9a4:	6008      	str	r0, [r1, #0]
     9a6:	484e      	ldr	r0, [pc, #312]	; (0xae0)
     9a8:	f8c0 b000 	str.w	fp, [r0]
     9ac:	2100      	movs	r1, #0
     9ae:	4852      	ldr	r0, [pc, #328]	; (0xaf8)
     9b0:	f003 fdf7 	bl	0x45a2
     9b4:	2100      	movs	r1, #0
     9b6:	f04f 4080 	mov.w	r0, #1073741824	; 0x40000000
     9ba:	f003 fdf2 	bl	0x45a2
     9be:	2200      	movs	r2, #0
     9c0:	f44f 7180 	mov.w	r1, #256	; 0x100
     9c4:	484c      	ldr	r0, [pc, #304]	; (0xaf8)
     9c6:	f003 fe1a 	bl	0x45fe
     9ca:	2200      	movs	r2, #0
     9cc:	f44f 7100 	mov.w	r1, #512	; 0x200
     9d0:	0548      	lsls	r0, r1, #21
     9d2:	f003 fe14 	bl	0x45fe
     9d6:	2200      	movs	r2, #0
     9d8:	f44f 6180 	mov.w	r1, #1024	; 0x400
     9dc:	0508      	lsls	r0, r1, #20
     9de:	f003 fe0e 	bl	0x45fe
     9e2:	f04f 0a00 	mov.w	sl, #0
     9e6:	e040      	b.n	0xa6a
     9e8:	f1ab 0002 	sub.w	r0, fp, #2
     9ec:	f005 fcf3 	bl	0x63d6
     9f0:	e9cd 0108 	strd	r0, r1, [sp, #32]
     9f4:	4648      	mov	r0, r9
     9f6:	f005 fd05 	bl	0x6404
     9fa:	4606      	mov	r6, r0
     9fc:	460f      	mov	r7, r1
     9fe:	4650      	mov	r0, sl
     a00:	f005 fd00 	bl	0x6404
     a04:	4604      	mov	r4, r0
     a06:	4a3d      	ldr	r2, [pc, #244]	; (0xafc)
     a08:	4b3d      	ldr	r3, [pc, #244]	; (0xb00)
     a0a:	f005 fd4b 	bl	0x64a4
     a0e:	4632      	mov	r2, r6
     a10:	463b      	mov	r3, r7
     a12:	e9cd 0100 	strd	r0, r1, [sp]
     a16:	f005 fb29 	bl	0x606c
     a1a:	e9cd 0102 	strd	r0, r1, [sp, #8]
     a1e:	f005 f9bb 	bl	0x5d98
     a22:	2200      	movs	r2, #0
     a24:	4b37      	ldr	r3, [pc, #220]	; (0xb04)
     a26:	e9cd 0104 	strd	r0, r1, [sp, #16]
     a2a:	f005 fa65 	bl	0x5ef8
     a2e:	e9cd 0106 	strd	r0, r1, [sp, #24]
     a32:	e9dd 2308 	ldrd	r2, r3, [sp, #32]
     a36:	f005 fd35 	bl	0x64a4
     a3a:	2200      	movs	r2, #0
     a3c:	f04f 4380 	mov.w	r3, #1073741824	; 0x40000000
     a40:	e9cd 010a 	strd	r0, r1, [sp, #40]	; 0x28
     a44:	f005 fb12 	bl	0x606c
     a48:	2200      	movs	r2, #0
     a4a:	4b2f      	ldr	r3, [pc, #188]	; (0xb08)
     a4c:	e9cd 010c 	strd	r0, r1, [sp, #48]	; 0x30
     a50:	f005 fa52 	bl	0x5ef8
     a54:	e9cd 010e 	strd	r0, r1, [sp, #56]	; 0x38
     a58:	f005 fc90 	bl	0x637c
     a5c:	492b      	ldr	r1, [pc, #172]	; (0xb0c)
     a5e:	f801 000a 	strb.w	r0, [r1, sl]
     a62:	f10a 0001 	add.w	r0, sl, #1
     a66:	fa1f fa80 	uxth.w	sl, r0
     a6a:	45ca      	cmp	sl, r9
     a6c:	dbbc      	blt.n	0x9e8
     a6e:	481e      	ldr	r0, [pc, #120]	; (0xae8)
     a70:	6800      	ldr	r0, [r0, #0]
     a72:	f7ff ff15 	bl	0x8a0
     a76:	2101      	movs	r1, #1
     a78:	4608      	mov	r0, r1
     a7a:	f003 fa4d 	bl	0x3f18
     a7e:	2101      	movs	r1, #1
     a80:	4608      	mov	r0, r1
     a82:	f003 fa63 	bl	0x3f4c
     a86:	2101      	movs	r1, #1
     a88:	2002      	movs	r0, #2
     a8a:	f003 fa5f 	bl	0x3f4c
     a8e:	2118      	movs	r1, #24
     a90:	2040      	movs	r0, #64	; 0x40
     a92:	f7ff fbf0 	bl	0x276
     a96:	211c      	movs	r1, #28
     a98:	2001      	movs	r0, #1
     a9a:	f7ff fbec 	bl	0x276
     a9e:	211c      	movs	r1, #28
     aa0:	2002      	movs	r0, #2
     aa2:	f7ff fbe8 	bl	0x276
     aa6:	2114      	movs	r1, #20
     aa8:	2080      	movs	r0, #128	; 0x80
     aaa:	f7ff fbe4 	bl	0x276
     aae:	f1b8 0f05 	cmp.w	r8, #5
     ab2:	da2f      	bge.n	0xb14
     ab4:	2200      	movs	r2, #0
     ab6:	2180      	movs	r1, #128	; 0x80
     ab8:	4815      	ldr	r0, [pc, #84]	; (0xb10)
     aba:	f7ff fc10 	bl	0x2de
     abe:	e02e      	b.n	0xb1e
     ac0:	0000      	movs	r0, r0
     ac2:	3fe0      	subs	r7, #224	; 0xe0
     ac4:	0000      	movs	r0, r0
     ac6:	4024      	ands	r4, r4
     ac8:	2020      	movs	r0, #32
     aca:	2020      	movs	r0, #32
     acc:	2020      	movs	r0, #32
     ace:	2020      	movs	r0, #32
     ad0:	2020      	movs	r0, #32
     ad2:	0000      	movs	r0, r0
     ad4:	002d      	movs	r5, r5
     ad6:	0000      	movs	r0, r0
     ad8:	0020      	movs	r0, r4
     ada:	0000      	movs	r0, r0
     adc:	0000      	movs	r0, r0
     ade:	2000      	movs	r0, #0
     ae0:	0004      	movs	r4, r0
     ae2:	2000      	movs	r0, #0
     ae4:	0eb4      	lsrs	r4, r6, #26
     ae6:	2000      	movs	r0, #0
     ae8:	0008      	movs	r0, r1
     aea:	2000      	movs	r0, #0
     aec:	0084      	lsls	r4, r0, #2
     aee:	2000      	movs	r0, #0
     af0:	1940      	adds	r0, r0, r5
     af2:	0001      	movs	r1, r0
     af4:	0088      	lsls	r0, r1, #2
     af6:	2000      	movs	r0, #0
     af8:	0400      	lsls	r0, r0, #16
     afa:	4000      	ands	r0, r0
     afc:	1744      	asrs	r4, r0, #29
     afe:	5441      	strb	r1, [r0, r1]
     b00:	21fb      	movs	r1, #251	; 0xfb
     b02:	4019      	ands	r1, r3
     b04:	0000      	movs	r0, r0
     b06:	3ff0      	subs	r7, #240	; 0xf0
     b08:	0000      	movs	r0, r0
     b0a:	3ff8      	subs	r7, #248	; 0xf8
     b0c:	00a4      	lsls	r4, r4, #2
     b0e:	2000      	movs	r0, #0
     b10:	0800      	lsrs	r0, r0, #32
     b12:	4001      	ands	r1, r0
     b14:	2201      	movs	r2, #1
     b16:	2180      	movs	r1, #128	; 0x80
     b18:	48ff      	ldr	r0, [pc, #1020]	; (0xf18)
     b1a:	f7ff fbe0 	bl	0x2de
     b1e:	48ff      	ldr	r0, [pc, #1020]	; (0xf1c)
     b20:	f004 f808 	bl	0x4b34
     b24:	48fd      	ldr	r0, [pc, #1012]	; (0xf1c)
     b26:	3028      	adds	r0, #40	; 0x28
     b28:	f004 f804 	bl	0x4b34
     b2c:	48fb      	ldr	r0, [pc, #1004]	; (0xf1c)
     b2e:	3050      	adds	r0, #80	; 0x50
     b30:	f004 f800 	bl	0x4b34
     b34:	2010      	movs	r0, #16
     b36:	9007      	str	r0, [sp, #28]
     b38:	f8cd 9020 	str.w	r9, [sp, #32]
     b3c:	2000      	movs	r0, #0
     b3e:	9009      	str	r0, [sp, #36]	; 0x24
     b40:	2080      	movs	r0, #128	; 0x80
     b42:	900a      	str	r0, [sp, #40]	; 0x28
     b44:	0040      	lsls	r0, r0, #1
     b46:	900b      	str	r0, [sp, #44]	; 0x2c
     b48:	2000      	movs	r0, #0
     b4a:	900c      	str	r0, [sp, #48]	; 0x30
     b4c:	2020      	movs	r0, #32
     b4e:	900d      	str	r0, [sp, #52]	; 0x34
     b50:	0200      	lsls	r0, r0, #8
     b52:	900e      	str	r0, [sp, #56]	; 0x38
     b54:	2000      	movs	r0, #0
     b56:	900f      	str	r0, [sp, #60]	; 0x3c
     b58:	48f1      	ldr	r0, [pc, #964]	; (0xf20)
     b5a:	9006      	str	r0, [sp, #24]
     b5c:	48f1      	ldr	r0, [pc, #964]	; (0xf24)
     b5e:	9005      	str	r0, [sp, #20]
     b60:	a905      	add	r1, sp, #20
     b62:	48ee      	ldr	r0, [pc, #952]	; (0xf1c)
     b64:	f004 f885 	bl	0x4c72
     b68:	2101      	movs	r1, #1
     b6a:	48ec      	ldr	r0, [pc, #944]	; (0xf1c)
     b6c:	f004 f8ac 	bl	0x4cc8
     b70:	48ed      	ldr	r0, [pc, #948]	; (0xf28)
     b72:	6800      	ldr	r0, [r0, #0]
     b74:	9008      	str	r0, [sp, #32]
     b76:	48ed      	ldr	r0, [pc, #948]	; (0xf2c)
     b78:	9006      	str	r0, [sp, #24]
     b7a:	48ed      	ldr	r0, [pc, #948]	; (0xf30)
     b7c:	9005      	str	r0, [sp, #20]
     b7e:	a905      	add	r1, sp, #20
     b80:	48e6      	ldr	r0, [pc, #920]	; (0xf1c)
     b82:	3028      	adds	r0, #40	; 0x28
     b84:	f004 f875 	bl	0x4c72
     b88:	2101      	movs	r1, #1
     b8a:	48e4      	ldr	r0, [pc, #912]	; (0xf1c)
     b8c:	3028      	adds	r0, #40	; 0x28
     b8e:	f004 f89b 	bl	0x4cc8
     b92:	48e7      	ldr	r0, [pc, #924]	; (0xf30)
     b94:	1d00      	adds	r0, r0, #4
     b96:	9005      	str	r0, [sp, #20]
     b98:	a905      	add	r1, sp, #20
     b9a:	48e0      	ldr	r0, [pc, #896]	; (0xf1c)
     b9c:	3050      	adds	r0, #80	; 0x50
     b9e:	f004 f868 	bl	0x4c72
     ba2:	2101      	movs	r1, #1
     ba4:	48dd      	ldr	r0, [pc, #884]	; (0xf1c)
     ba6:	3050      	adds	r0, #80	; 0x50
     ba8:	f004 f88e 	bl	0x4cc8
     bac:	f1ab 0001 	sub.w	r0, fp, #1
     bb0:	b280      	uxth	r0, r0
     bb2:	f8ad 0038 	strh.w	r0, [sp, #56]	; 0x38
     bb6:	2000      	movs	r0, #0
     bb8:	f8ad 0034 	strh.w	r0, [sp, #52]	; 0x34
     bbc:	f8ad 003a 	strh.w	r0, [sp, #58]	; 0x3a
     bc0:	f8ad 0036 	strh.w	r0, [sp, #54]	; 0x36
     bc4:	a90d      	add	r1, sp, #52	; 0x34
     bc6:	48d7      	ldr	r0, [pc, #860]	; (0xf24)
     bc8:	3834      	subs	r0, #52	; 0x34
     bca:	f003 fa7f 	bl	0x40cc
     bce:	48d6      	ldr	r0, [pc, #856]	; (0xf28)
     bd0:	6800      	ldr	r0, [r0, #0]
     bd2:	fb99 f0f0 	sdiv	r0, r9, r0
     bd6:	1e40      	subs	r0, r0, #1
     bd8:	b280      	uxth	r0, r0
     bda:	f8ad 0034 	strh.w	r0, [sp, #52]	; 0x34
     bde:	a90d      	add	r1, sp, #52	; 0x34
     be0:	f04f 4080 	mov.w	r0, #1073741824	; 0x40000000
     be4:	f003 fa72 	bl	0x40cc
     be8:	2060      	movs	r0, #96	; 0x60
     bea:	f8ad 0024 	strh.w	r0, [sp, #36]	; 0x24
     bee:	2001      	movs	r0, #1
     bf0:	f8ad 0026 	strh.w	r0, [sp, #38]	; 0x26
     bf4:	2000      	movs	r0, #0
     bf6:	f8ad 002a 	strh.w	r0, [sp, #42]	; 0x2a
     bfa:	f8ad 002c 	strh.w	r0, [sp, #44]	; 0x2c
     bfe:	a909      	add	r1, sp, #36	; 0x24
     c00:	48c8      	ldr	r0, [pc, #800]	; (0xf24)
     c02:	3834      	subs	r0, #52	; 0x34
     c04:	f003 fa7b 	bl	0x40fe
     c08:	2000      	movs	r0, #0
     c0a:	f8ad 002c 	strh.w	r0, [sp, #44]	; 0x2c
     c0e:	a909      	add	r1, sp, #36	; 0x24
     c10:	f04f 4080 	mov.w	r0, #1073741824	; 0x40000000
     c14:	f003 fa73 	bl	0x40fe
     c18:	2002      	movs	r0, #2
     c1a:	f8ad 002c 	strh.w	r0, [sp, #44]	; 0x2c
     c1e:	a909      	add	r1, sp, #36	; 0x24
     c20:	0740      	lsls	r0, r0, #29
     c22:	f003 faa3 	bl	0x416c
     c26:	2201      	movs	r2, #1
     c28:	0211      	lsls	r1, r2, #8
     c2a:	48be      	ldr	r0, [pc, #760]	; (0xf24)
     c2c:	3834      	subs	r0, #52	; 0x34
     c2e:	f003 fce6 	bl	0x45fe
     c32:	2201      	movs	r2, #1
     c34:	0251      	lsls	r1, r2, #9
     c36:	0548      	lsls	r0, r1, #21
     c38:	f003 fce1 	bl	0x45fe
     c3c:	2201      	movs	r2, #1
     c3e:	0291      	lsls	r1, r2, #10
     c40:	0508      	lsls	r0, r1, #20
     c42:	f003 fcdc 	bl	0x45fe
     c46:	2101      	movs	r1, #1
     c48:	48b6      	ldr	r0, [pc, #728]	; (0xf24)
     c4a:	3834      	subs	r0, #52	; 0x34
     c4c:	f003 fca9 	bl	0x45a2
     c50:	2101      	movs	r1, #1
     c52:	0788      	lsls	r0, r1, #30
     c54:	f003 fca5 	bl	0x45a2
     c58:	b011      	add	sp, #68	; 0x44
     c5a:	e8bd 8ff0 	ldmia.w	sp!, {r4, r5, r6, r7, r8, r9, sl, fp, pc}
     c5e:	b500      	push	{lr}
     c60:	b087      	sub	sp, #28
     c62:	2101      	movs	r1, #1
     c64:	2004      	movs	r0, #4
     c66:	f003 f971 	bl	0x3f4c
     c6a:	2118      	movs	r1, #24
     c6c:	20c0      	movs	r0, #192	; 0xc0
     c6e:	f7ff fb15 	bl	0x29c
     c72:	f640 600f 	movw	r0, #3599	; 0xe0f
     c76:	f8ad 0014 	strh.w	r0, [sp, #20]
     c7a:	2000      	movs	r0, #0
     c7c:	f8ad 0010 	strh.w	r0, [sp, #16]
     c80:	f8ad 0016 	strh.w	r0, [sp, #22]
     c84:	f8ad 0012 	strh.w	r0, [sp, #18]
     c88:	a904      	add	r1, sp, #16
     c8a:	48aa      	ldr	r0, [pc, #680]	; (0xf34)
     c8c:	f003 fa1e 	bl	0x40cc
     c90:	2060      	movs	r0, #96	; 0x60
     c92:	f8ad 0000 	strh.w	r0, [sp]
     c96:	2001      	movs	r0, #1
     c98:	f8ad 0002 	strh.w	r0, [sp, #2]
     c9c:	f44f 60e1 	mov.w	r0, #1800	; 0x708
     ca0:	f8ad 0006 	strh.w	r0, [sp, #6]
     ca4:	2000      	movs	r0, #0
     ca6:	f8ad 0008 	strh.w	r0, [sp, #8]
     caa:	4669      	mov	r1, sp
     cac:	48a1      	ldr	r0, [pc, #644]	; (0xf34)
     cae:	f003 fa26 	bl	0x40fe
     cb2:	2101      	movs	r1, #1
     cb4:	489f      	ldr	r0, [pc, #636]	; (0xf34)
     cb6:	f003 fc74 	bl	0x45a2
     cba:	b007      	add	sp, #28
     cbc:	bd00      	pop	{pc}
     cbe:	b500      	push	{lr}
     cc0:	b085      	sub	sp, #20
     cc2:	2100      	movs	r1, #0
     cc4:	2010      	movs	r0, #16
     cc6:	f7ff fad6 	bl	0x276
     cca:	2101      	movs	r1, #1
     ccc:	0248      	lsls	r0, r1, #9
     cce:	f003 f930 	bl	0x3f32
     cd2:	2000      	movs	r0, #0
     cd4:	9000      	str	r0, [sp, #0]
     cd6:	f88d 0004 	strb.w	r0, [sp, #4]
     cda:	f88d 0005 	strb.w	r0, [sp, #5]
     cde:	f44f 2060 	mov.w	r0, #917504	; 0xe0000
     ce2:	9002      	str	r0, [sp, #8]
     ce4:	2000      	movs	r0, #0
     ce6:	9003      	str	r0, [sp, #12]
     ce8:	2001      	movs	r0, #1
     cea:	f88d 0010 	strb.w	r0, [sp, #16]
     cee:	4669      	mov	r1, sp
     cf0:	4891      	ldr	r0, [pc, #580]	; (0xf38)
     cf2:	f004 f866 	bl	0x4dc2
     cf6:	2302      	movs	r3, #2
     cf8:	2201      	movs	r2, #1
     cfa:	2104      	movs	r1, #4
     cfc:	488e      	ldr	r0, [pc, #568]	; (0xf38)
     cfe:	f004 f8f8 	bl	0x4ef2
     d02:	2101      	movs	r1, #1
     d04:	488c      	ldr	r0, [pc, #560]	; (0xf38)
     d06:	f004 f888 	bl	0x4e1a
     d0a:	488b      	ldr	r0, [pc, #556]	; (0xf38)
     d0c:	f004 f8a7 	bl	0x4e5e
     d10:	bf00      	nop
     d12:	4889      	ldr	r0, [pc, #548]	; (0xf38)
     d14:	f004 f8a8 	bl	0x4e68
     d18:	2800      	cmp	r0, #0
     d1a:	d1fa      	bne.n	0xd12
     d1c:	4886      	ldr	r0, [pc, #536]	; (0xf38)
     d1e:	f004 f8ad 	bl	0x4e7c
     d22:	bf00      	nop
     d24:	4884      	ldr	r0, [pc, #528]	; (0xf38)
     d26:	f004 f8ae 	bl	0x4e86
     d2a:	2800      	cmp	r0, #0
     d2c:	d1fa      	bne.n	0xd24
     d2e:	b005      	add	sp, #20
     d30:	bd00      	pop	{pc}
     d32:	e92d 47ff 	stmdb	sp!, {r0, r1, r2, r3, r4, r5, r6, r7, r8, r9, sl, lr}
     d36:	f04f 0800 	mov.w	r8, #0
     d3a:	f241 5a16 	movw	sl, #5398	; 0x1516
     d3e:	46c1      	mov	r9, r8
     d40:	e00f      	b.n	0xd62
     d42:	2101      	movs	r1, #1
     d44:	487c      	ldr	r0, [pc, #496]	; (0xf38)
     d46:	f004 f8a8 	bl	0x4e9a
     d4a:	bf00      	nop
     d4c:	487a      	ldr	r0, [pc, #488]	; (0xf38)
     d4e:	6800      	ldr	r0, [r0, #0]
     d50:	f010 0f02 	tst.w	r0, #2
     d54:	d0fa      	beq.n	0xd4c
     d56:	4878      	ldr	r0, [pc, #480]	; (0xf38)
     d58:	f004 f932 	bl	0x4fc0
     d5c:	4480      	add	r8, r0
     d5e:	f109 0901 	add.w	r9, r9, #1
     d62:	45d1      	cmp	r9, sl
     d64:	dbed      	blt.n	0xd42
     d66:	4650      	mov	r0, sl
     d68:	f005 fb35 	bl	0x63d6
     d6c:	4604      	mov	r4, r0
     d6e:	460d      	mov	r5, r1
     d70:	4640      	mov	r0, r8
     d72:	f005 fb30 	bl	0x63d6
     d76:	2200      	movs	r2, #0
     d78:	4b70      	ldr	r3, [pc, #448]	; (0xf3c)
     d7a:	e9cd 0100 	strd	r0, r1, [sp]
     d7e:	f005 fb91 	bl	0x64a4
     d82:	4606      	mov	r6, r0
     d84:	4622      	mov	r2, r4
     d86:	462b      	mov	r3, r5
     d88:	f005 f970 	bl	0x606c
     d8c:	e9cd 0102 	strd	r0, r1, [sp, #8]
     d90:	f005 fac4 	bl	0x631c
     d94:	b004      	add	sp, #16
     d96:	e8bd 87f0 	ldmia.w	sp!, {r4, r5, r6, r7, r8, r9, sl, pc}
     d9a:	b510      	push	{r4, lr}
     d9c:	4868      	ldr	r0, [pc, #416]	; (0xf40)
     d9e:	7800      	ldrb	r0, [r0, #0]
     da0:	bb28      	cbnz	r0, 0xdee
     da2:	2148      	movs	r1, #72	; 0x48
     da4:	f44f 4080 	mov.w	r0, #16384	; 0x4000
     da8:	f7ff fa78 	bl	0x29c
     dac:	2148      	movs	r1, #72	; 0x48
     dae:	f44f 4000 	mov.w	r0, #32768	; 0x8000
     db2:	f7ff fa73 	bl	0x29c
     db6:	2148      	movs	r1, #72	; 0x48
     db8:	f44f 7080 	mov.w	r0, #256	; 0x100
     dbc:	f7ff fa5b 	bl	0x276
     dc0:	2148      	movs	r1, #72	; 0x48
     dc2:	f44f 6000 	mov.w	r0, #2048	; 0x800
     dc6:	f7ff fa56 	bl	0x276
     dca:	2148      	movs	r1, #72	; 0x48
     dcc:	f44f 5080 	mov.w	r0, #4096	; 0x1000
     dd0:	f7ff fa51 	bl	0x276
     dd4:	2148      	movs	r1, #72	; 0x48
     dd6:	f44f 5000 	mov.w	r0, #8192	; 0x2000
     dda:	f7ff fa4c 	bl	0x276
     dde:	2148      	movs	r1, #72	; 0x48
     de0:	f44f 4000 	mov.w	r0, #32768	; 0x8000
     de4:	f7ff fa47 	bl	0x276
     de8:	2001      	movs	r0, #1
     dea:	4955      	ldr	r1, [pc, #340]	; (0xf40)
     dec:	7008      	strb	r0, [r1, #0]
     dee:	4855      	ldr	r0, [pc, #340]	; (0xf44)
     df0:	6800      	ldr	r0, [r0, #0]
     df2:	f410 4f80 	tst.w	r0, #16384	; 0x4000
     df6:	d101      	bne.n	0xdfc
     df8:	2001      	movs	r0, #1
     dfa:	bd10      	pop	{r4, pc}
     dfc:	4851      	ldr	r0, [pc, #324]	; (0xf44)
     dfe:	6800      	ldr	r0, [r0, #0]
     e00:	f410 4f00 	tst.w	r0, #32768	; 0x8000
     e04:	d101      	bne.n	0xe0a
     e06:	2002      	movs	r0, #2
     e08:	e7f7      	b.n	0xdfa
     e0a:	484f      	ldr	r0, [pc, #316]	; (0xf48)
     e0c:	6800      	ldr	r0, [r0, #0]
     e0e:	f410 7f80 	tst.w	r0, #256	; 0x100
     e12:	d101      	bne.n	0xe18
     e14:	2003      	movs	r0, #3
     e16:	e7f0      	b.n	0xdfa
     e18:	484b      	ldr	r0, [pc, #300]	; (0xf48)
     e1a:	6800      	ldr	r0, [r0, #0]
     e1c:	f410 6f00 	tst.w	r0, #2048	; 0x800
     e20:	d101      	bne.n	0xe26
     e22:	2007      	movs	r0, #7
     e24:	e7e9      	b.n	0xdfa
     e26:	4848      	ldr	r0, [pc, #288]	; (0xf48)
     e28:	6800      	ldr	r0, [r0, #0]
     e2a:	f410 5f80 	tst.w	r0, #4096	; 0x1000
     e2e:	d101      	bne.n	0xe34
     e30:	2006      	movs	r0, #6
     e32:	e7e2      	b.n	0xdfa
     e34:	4844      	ldr	r0, [pc, #272]	; (0xf48)
     e36:	6800      	ldr	r0, [r0, #0]
     e38:	f410 5f00 	tst.w	r0, #8192	; 0x2000
     e3c:	d101      	bne.n	0xe42
     e3e:	2005      	movs	r0, #5
     e40:	e7db      	b.n	0xdfa
     e42:	4841      	ldr	r0, [pc, #260]	; (0xf48)
     e44:	6800      	ldr	r0, [r0, #0]
     e46:	f410 4f00 	tst.w	r0, #32768	; 0x8000
     e4a:	d101      	bne.n	0xe50
     e4c:	2004      	movs	r0, #4
     e4e:	e7d4      	b.n	0xdfa
     e50:	2000      	movs	r0, #0
     e52:	e7d2      	b.n	0xdfa
     e54:	b510      	push	{r4, lr}
     e56:	f7ff ffa0 	bl	0xd9a
     e5a:	4604      	mov	r4, r0
     e5c:	b9ac      	cbnz	r4, 0xe8a
     e5e:	2000      	movs	r0, #0
     e60:	493a      	ldr	r1, [pc, #232]	; (0xf4c)
     e62:	6008      	str	r0, [r1, #0]
     e64:	483a      	ldr	r0, [pc, #232]	; (0xf50)
     e66:	6800      	ldr	r0, [r0, #0]
     e68:	b110      	cbz	r0, 0xe70
     e6a:	4839      	ldr	r0, [pc, #228]	; (0xf50)
     e6c:	6800      	ldr	r0, [r0, #0]
     e6e:	b2c4      	uxtb	r4, r0
     e70:	4838      	ldr	r0, [pc, #224]	; (0xf54)
     e72:	6800      	ldr	r0, [r0, #0]
     e74:	b110      	cbz	r0, 0xe7c
     e76:	4837      	ldr	r0, [pc, #220]	; (0xf54)
     e78:	6800      	ldr	r0, [r0, #0]
     e7a:	b2c4      	uxtb	r4, r0
     e7c:	2000      	movs	r0, #0
     e7e:	4935      	ldr	r1, [pc, #212]	; (0xf54)
     e80:	6008      	str	r0, [r1, #0]
     e82:	4933      	ldr	r1, [pc, #204]	; (0xf50)
     e84:	6008      	str	r0, [r1, #0]
     e86:	4620      	mov	r0, r4
     e88:	bd10      	pop	{r4, pc}
     e8a:	4830      	ldr	r0, [pc, #192]	; (0xf4c)
     e8c:	6800      	ldr	r0, [r0, #0]
     e8e:	1c40      	adds	r0, r0, #1
     e90:	492e      	ldr	r1, [pc, #184]	; (0xf4c)
     e92:	6008      	str	r0, [r1, #0]
     e94:	4608      	mov	r0, r1
     e96:	6800      	ldr	r0, [r0, #0]
     e98:	2802      	cmp	r0, #2
     e9a:	d101      	bne.n	0xea0
     e9c:	482c      	ldr	r0, [pc, #176]	; (0xf50)
     e9e:	6004      	str	r4, [r0, #0]
     ea0:	482a      	ldr	r0, [pc, #168]	; (0xf4c)
     ea2:	6800      	ldr	r0, [r0, #0]
     ea4:	28c8      	cmp	r0, #200	; 0xc8
     ea6:	d103      	bne.n	0xeb0
     ea8:	f104 001e 	add.w	r0, r4, #30
     eac:	4929      	ldr	r1, [pc, #164]	; (0xf54)
     eae:	6008      	str	r0, [r1, #0]
     eb0:	2000      	movs	r0, #0
     eb2:	e7e9      	b.n	0xe88
     eb4:	b510      	push	{r4, lr}
     eb6:	2000      	movs	r0, #0
     eb8:	4927      	ldr	r1, [pc, #156]	; (0xf58)
     eba:	7108      	strb	r0, [r1, #4]
     ebc:	2100      	movs	r1, #0
     ebe:	4826      	ldr	r0, [pc, #152]	; (0xf58)
     ec0:	7141      	strb	r1, [r0, #5]
     ec2:	7181      	strb	r1, [r0, #6]
     ec4:	71c1      	strb	r1, [r0, #7]
     ec6:	2002      	movs	r0, #2
     ec8:	4923      	ldr	r1, [pc, #140]	; (0xf58)
     eca:	7008      	strb	r0, [r1, #0]
     ecc:	2003      	movs	r0, #3
     ece:	7048      	strb	r0, [r1, #1]
     ed0:	200b      	movs	r0, #11
     ed2:	7088      	strb	r0, [r1, #2]
     ed4:	2038      	movs	r0, #56	; 0x38
     ed6:	70c8      	strb	r0, [r1, #3]
     ed8:	2000      	movs	r0, #0
     eda:	7208      	strb	r0, [r1, #8]
     edc:	7248      	strb	r0, [r1, #9]
     ede:	7288      	strb	r0, [r1, #10]
     ee0:	201a      	movs	r0, #26
     ee2:	72c8      	strb	r0, [r1, #11]
     ee4:	2000      	movs	r0, #0
     ee6:	7388      	strb	r0, [r1, #14]
     ee8:	2400      	movs	r4, #0
     eea:	e00e      	b.n	0xf0a
     eec:	2100      	movs	r1, #0
     eee:	481a      	ldr	r0, [pc, #104]	; (0xf58)
     ef0:	3028      	adds	r0, #40	; 0x28
     ef2:	f840 1024 	str.w	r1, [r0, r4, lsl #2]
     ef6:	3818      	subs	r0, #24
     ef8:	f840 1024 	str.w	r1, [r0, r4, lsl #2]
     efc:	3048      	adds	r0, #72	; 0x48
     efe:	f840 1024 	str.w	r1, [r0, r4, lsl #2]
     f02:	3818      	subs	r0, #24
     f04:	f840 1024 	str.w	r1, [r0, r4, lsl #2]
     f08:	1c64      	adds	r4, r4, #1
     f0a:	2c06      	cmp	r4, #6
     f0c:	dbee      	blt.n	0xeec
     f0e:	f7ff fac9 	bl	0x4a4
     f12:	a012      	add	r0, pc, #72	; (adr r0, 0xf5c)
     f14:	e02c      	b.n	0xf70
     f16:	0000      	movs	r0, r0
     f18:	0800      	lsrs	r0, r0, #32
     f1a:	4001      	ands	r1, r0
     f1c:	0030      	movs	r0, r6
     f1e:	4002      	ands	r2, r0
     f20:	00a4      	lsls	r4, r4, #2
     f22:	2000      	movs	r0, #0
     f24:	0434      	lsls	r4, r6, #16
     f26:	4000      	ands	r0, r0
     f28:	0000      	movs	r0, r0
     f2a:	2000      	movs	r0, #0
     f2c:	0eb4      	lsrs	r4, r6, #26
     f2e:	2000      	movs	r0, #0
     f30:	0034      	movs	r4, r6
     f32:	4000      	ands	r0, r0
     f34:	0800      	lsrs	r0, r0, #32
     f36:	4000      	ands	r0, r0
     f38:	2400      	movs	r4, #0
     f3a:	4001      	ands	r1, r0
     f3c:	0000      	movs	r0, r0
     f3e:	4024      	ands	r4, r4
     f40:	0080      	lsls	r0, r0, #2
     f42:	2000      	movs	r0, #0
     f44:	0c08      	lsrs	r0, r1, #16
     f46:	4001      	ands	r1, r0
     f48:	0808      	lsrs	r0, r1, #32
     f4a:	4001      	ands	r1, r0
     f4c:	000c      	movs	r4, r1
     f4e:	2000      	movs	r0, #0
     f50:	0010      	movs	r0, r2
     f52:	2000      	movs	r0, #0
     f54:	0014      	movs	r4, r2
     f56:	2000      	movs	r0, #0
     f58:	1030      	asrs	r0, r6, #32
     f5a:	2000      	movs	r0, #0
     f5c:	6f4c      	ldr	r4, [r1, #116]	; 0x74
     f5e:	6461      	str	r1, [r4, #68]	; 0x44
     f60:	6420      	str	r0, [r4, #64]	; 0x40
     f62:	6665      	str	r5, [r4, #100]	; 0x64
     f64:	7561      	strb	r1, [r4, #21]
     f66:	746c      	strb	r4, [r5, #17]
     f68:	6f20      	ldr	r0, [r4, #112]	; 0x70
     f6a:	216b      	movs	r1, #107	; 0x6b
     f6c:	0000      	movs	r0, r0
     f6e:	0000      	movs	r0, r0
     f70:	f7ff facf 	bl	0x512
     f74:	f44f 60fa 	mov.w	r0, #2000	; 0x7d0
     f78:	f7ff f956 	bl	0x228
     f7c:	f7ff fa92 	bl	0x4a4
     f80:	bd10      	pop	{r4, pc}
     f82:	4601      	mov	r1, r0
     f84:	f240 10ff 	movw	r0, #511	; 0x1ff
     f88:	e007      	b.n	0xf9a
     f8a:	f831 2010 	ldrh.w	r2, [r1, r0, lsl #1]
     f8e:	f5a2 437f 	sub.w	r3, r2, #65280	; 0xff00
     f92:	3bff      	subs	r3, #255	; 0xff
     f94:	d000      	beq.n	0xf98
     f96:	e002      	b.n	0xf9e
     f98:	1e40      	subs	r0, r0, #1
     f9a:	2800      	cmp	r0, #0
     f9c:	daf5      	bge.n	0xf8a
     f9e:	bf00      	nop
     fa0:	1c40      	adds	r0, r0, #1
     fa2:	4770      	bx	lr
     fa4:	e92d 41f0 	stmdb	sp!, {r4, r5, r6, r7, r8, lr}
     fa8:	4606      	mov	r6, r0
     faa:	4688      	mov	r8, r1
     fac:	4617      	mov	r7, r2
     fae:	4630      	mov	r0, r6
     fb0:	f7ff ffe7 	bl	0xf82
     fb4:	4604      	mov	r4, r0
     fb6:	f002 fa3c 	bl	0x3432
     fba:	2034      	movs	r0, #52	; 0x34
     fbc:	f002 fca8 	bl	0x3910
     fc0:	19e0      	adds	r0, r4, r7
     fc2:	1c40      	adds	r0, r0, #1
     fc4:	f5b0 7f00 	cmp.w	r0, #512	; 0x200
     fc8:	db03      	blt.n	0xfd2
     fca:	4630      	mov	r0, r6
     fcc:	f002 fa73 	bl	0x34b6
     fd0:	2400      	movs	r4, #0
     fd2:	2500      	movs	r5, #0
     fd4:	e007      	b.n	0xfe6
     fd6:	f838 1015 	ldrh.w	r1, [r8, r5, lsl #1]
     fda:	eb06 0044 	add.w	r0, r6, r4, lsl #1
     fde:	f002 fb32 	bl	0x3646
     fe2:	1c6d      	adds	r5, r5, #1
     fe4:	1c64      	adds	r4, r4, #1
     fe6:	42bd      	cmp	r5, r7
     fe8:	dbf5      	blt.n	0xfd6
     fea:	eb06 0044 	add.w	r0, r6, r4, lsl #1
     fee:	2100      	movs	r1, #0
     ff0:	f002 fb29 	bl	0x3646
     ff4:	f002 fa23 	bl	0x343e
     ff8:	e8bd 81f0 	ldmia.w	sp!, {r4, r5, r6, r7, r8, pc}
     ffc:	b570      	push	{r4, r5, r6, lr}
     ffe:	4604      	mov	r4, r0
    1000:	460e      	mov	r6, r1
    1002:	4620      	mov	r0, r4
    1004:	f7ff ffbd 	bl	0xf82
    1008:	1c71      	adds	r1, r6, #1
    100a:	1a45      	subs	r5, r0, r1
    100c:	2d00      	cmp	r5, #0
    100e:	da01      	bge.n	0x1014
    1010:	2000      	movs	r0, #0
    1012:	bd70      	pop	{r4, r5, r6, pc}
    1014:	2002      	movs	r0, #2
    1016:	fb00 4005 	mla	r0, r0, r5, r4
    101a:	e7fa      	b.n	0x1012
    101c:	e92d 4ff1 	stmdb	sp!, {r0, r4, r5, r6, r7, r8, r9, sl, fp, lr}
    1020:	b086      	sub	sp, #24
    1022:	f04f 0b00 	mov.w	fp, #0
    1026:	f04f 0838 	mov.w	r8, #56	; 0x38
    102a:	48fd      	ldr	r0, [pc, #1012]	; (0x1420)
    102c:	9005      	str	r0, [sp, #20]
    102e:	48fd      	ldr	r0, [pc, #1012]	; (0x1424)
    1030:	9004      	str	r0, [sp, #16]
    1032:	48fd      	ldr	r0, [pc, #1012]	; (0x1428)
    1034:	9003      	str	r0, [sp, #12]
    1036:	f8df 93f4 	ldr.w	r9, [pc, #1012]	; 0x142c
    103a:	9806      	ldr	r0, [sp, #24]
    103c:	b190      	cbz	r0, 0x1064
    103e:	4642      	mov	r2, r8
    1040:	4649      	mov	r1, r9
    1042:	9805      	ldr	r0, [sp, #20]
    1044:	f7ff ffae 	bl	0xfa4
    1048:	4642      	mov	r2, r8
    104a:	4649      	mov	r1, r9
    104c:	9804      	ldr	r0, [sp, #16]
    104e:	f7ff ffa9 	bl	0xfa4
    1052:	4642      	mov	r2, r8
    1054:	4649      	mov	r1, r9
    1056:	9803      	ldr	r0, [sp, #12]
    1058:	f7ff ffa4 	bl	0xfa4
    105c:	2001      	movs	r0, #1
    105e:	b007      	add	sp, #28
    1060:	e8bd 8ff0 	ldmia.w	sp!, {r4, r5, r6, r7, r8, r9, sl, fp, pc}
    1064:	4641      	mov	r1, r8
    1066:	9805      	ldr	r0, [sp, #20]
    1068:	f7ff ffc8 	bl	0xffc
    106c:	9002      	str	r0, [sp, #8]
    106e:	4641      	mov	r1, r8
    1070:	9804      	ldr	r0, [sp, #16]
    1072:	f7ff ffc3 	bl	0xffc
    1076:	9001      	str	r0, [sp, #4]
    1078:	4641      	mov	r1, r8
    107a:	9803      	ldr	r0, [sp, #12]
    107c:	f7ff ffbe 	bl	0xffc
    1080:	4682      	mov	sl, r0
    1082:	9802      	ldr	r0, [sp, #8]
    1084:	b120      	cbz	r0, 0x1090
    1086:	9801      	ldr	r0, [sp, #4]
    1088:	b110      	cbz	r0, 0x1090
    108a:	f1ba 0f00 	cmp.w	sl, #0
    108e:	d101      	bne.n	0x1094
    1090:	2000      	movs	r0, #0
    1092:	e7e4      	b.n	0x105e
    1094:	2400      	movs	r4, #0
    1096:	e024      	b.n	0x10e2
    1098:	9802      	ldr	r0, [sp, #8]
    109a:	f830 5014 	ldrh.w	r5, [r0, r4, lsl #1]
    109e:	9801      	ldr	r0, [sp, #4]
    10a0:	f830 6014 	ldrh.w	r6, [r0, r4, lsl #1]
    10a4:	f83a 7014 	ldrh.w	r7, [sl, r4, lsl #1]
    10a8:	42b5      	cmp	r5, r6
    10aa:	d101      	bne.n	0x10b0
    10ac:	f829 5014 	strh.w	r5, [r9, r4, lsl #1]
    10b0:	42be      	cmp	r6, r7
    10b2:	d101      	bne.n	0x10b8
    10b4:	f829 6014 	strh.w	r6, [r9, r4, lsl #1]
    10b8:	42af      	cmp	r7, r5
    10ba:	d101      	bne.n	0x10c0
    10bc:	f829 7014 	strh.w	r7, [r9, r4, lsl #1]
    10c0:	42b5      	cmp	r5, r6
    10c2:	d005      	beq.n	0x10d0
    10c4:	42be      	cmp	r6, r7
    10c6:	d003      	beq.n	0x10d0
    10c8:	42af      	cmp	r7, r5
    10ca:	d001      	beq.n	0x10d0
    10cc:	2000      	movs	r0, #0
    10ce:	e7c6      	b.n	0x105e
    10d0:	42b5      	cmp	r5, r6
    10d2:	d103      	bne.n	0x10dc
    10d4:	42be      	cmp	r6, r7
    10d6:	d101      	bne.n	0x10dc
    10d8:	42af      	cmp	r7, r5
    10da:	d001      	beq.n	0x10e0
    10dc:	f04f 0b01 	mov.w	fp, #1
    10e0:	1c64      	adds	r4, r4, #1
    10e2:	4544      	cmp	r4, r8
    10e4:	dbd8      	blt.n	0x1098
    10e6:	f1bb 0f00 	cmp.w	fp, #0
    10ea:	d00e      	beq.n	0x110a
    10ec:	4642      	mov	r2, r8
    10ee:	4649      	mov	r1, r9
    10f0:	9805      	ldr	r0, [sp, #20]
    10f2:	f7ff ff57 	bl	0xfa4
    10f6:	4642      	mov	r2, r8
    10f8:	4649      	mov	r1, r9
    10fa:	9804      	ldr	r0, [sp, #16]
    10fc:	f7ff ff52 	bl	0xfa4
    1100:	4642      	mov	r2, r8
    1102:	4649      	mov	r1, r9
    1104:	9803      	ldr	r0, [sp, #12]
    1106:	f7ff ff4d 	bl	0xfa4
    110a:	f04f 0b00 	mov.w	fp, #0
    110e:	2400      	movs	r4, #0
    1110:	e007      	b.n	0x1122
    1112:	f839 0014 	ldrh.w	r0, [r9, r4, lsl #1]
    1116:	f5b0 3f80 	cmp.w	r0, #65536	; 0x10000
    111a:	d101      	bne.n	0x1120
    111c:	f10b 0b01 	add.w	fp, fp, #1
    1120:	1c64      	adds	r4, r4, #1
    1122:	4544      	cmp	r4, r8
    1124:	dbf5      	blt.n	0x1112
    1126:	45c3      	cmp	fp, r8
    1128:	d101      	bne.n	0x112e
    112a:	2000      	movs	r0, #0
    112c:	e797      	b.n	0x105e
    112e:	2001      	movs	r0, #1
    1130:	e795      	b.n	0x105e
    1132:	b510      	push	{r4, lr}
    1134:	4604      	mov	r4, r0
    1136:	48be      	ldr	r0, [pc, #760]	; (0x1430)
    1138:	7800      	ldrb	r0, [r0, #0]
    113a:	b940      	cbnz	r0, 0x114e
    113c:	2110      	movs	r1, #16
    113e:	202c      	movs	r0, #44	; 0x2c
    1140:	f7ff f899 	bl	0x276
    1144:	2110      	movs	r1, #16
    1146:	f44f 704c 	mov.w	r0, #816	; 0x330
    114a:	f7ff f8a7 	bl	0x29c
    114e:	2c03      	cmp	r4, #3
    1150:	dd00      	ble.n	0x1154
    1152:	2403      	movs	r4, #3
    1154:	2c00      	cmp	r4, #0
    1156:	da00      	bge.n	0x115a
    1158:	2400      	movs	r4, #0
    115a:	b95c      	cbnz	r4, 0x1174
    115c:	2200      	movs	r2, #0
    115e:	f44f 7180 	mov.w	r1, #256	; 0x100
    1162:	48b4      	ldr	r0, [pc, #720]	; (0x1434)
    1164:	f7ff f8bb 	bl	0x2de
    1168:	2200      	movs	r2, #0
    116a:	f44f 7100 	mov.w	r1, #512	; 0x200
    116e:	48b1      	ldr	r0, [pc, #708]	; (0x1434)
    1170:	f7ff f8b5 	bl	0x2de
    1174:	2c01      	cmp	r4, #1
    1176:	d109      	bne.n	0x118c
    1178:	2200      	movs	r2, #0
    117a:	0221      	lsls	r1, r4, #8
    117c:	48ad      	ldr	r0, [pc, #692]	; (0x1434)
    117e:	f7ff f8ae 	bl	0x2de
    1182:	2201      	movs	r2, #1
    1184:	0251      	lsls	r1, r2, #9
    1186:	48ab      	ldr	r0, [pc, #684]	; (0x1434)
    1188:	f7ff f8a9 	bl	0x2de
    118c:	2c02      	cmp	r4, #2
    118e:	d109      	bne.n	0x11a4
    1190:	2201      	movs	r2, #1
    1192:	0211      	lsls	r1, r2, #8
    1194:	48a7      	ldr	r0, [pc, #668]	; (0x1434)
    1196:	f7ff f8a2 	bl	0x2de
    119a:	2200      	movs	r2, #0
    119c:	0221      	lsls	r1, r4, #8
    119e:	48a5      	ldr	r0, [pc, #660]	; (0x1434)
    11a0:	f7ff f89d 	bl	0x2de
    11a4:	2c03      	cmp	r4, #3
    11a6:	d109      	bne.n	0x11bc
    11a8:	2201      	movs	r2, #1
    11aa:	0211      	lsls	r1, r2, #8
    11ac:	48a1      	ldr	r0, [pc, #644]	; (0x1434)
    11ae:	f7ff f896 	bl	0x2de
    11b2:	2201      	movs	r2, #1
    11b4:	0251      	lsls	r1, r2, #9
    11b6:	489f      	ldr	r0, [pc, #636]	; (0x1434)
    11b8:	f7ff f891 	bl	0x2de
    11bc:	489e      	ldr	r0, [pc, #632]	; (0x1438)
    11be:	6004      	str	r4, [r0, #0]
    11c0:	bd10      	pop	{r4, pc}
    11c2:	b500      	push	{lr}
    11c4:	4603      	mov	r3, r0
    11c6:	2b04      	cmp	r3, #4
    11c8:	dd00      	ble.n	0x11cc
    11ca:	2304      	movs	r3, #4
    11cc:	2b00      	cmp	r3, #0
    11ce:	da00      	bge.n	0x11d2
    11d0:	2300      	movs	r3, #0
    11d2:	b973      	cbnz	r3, 0x11f2
    11d4:	2200      	movs	r2, #0
    11d6:	2120      	movs	r1, #32
    11d8:	4898      	ldr	r0, [pc, #608]	; (0x143c)
    11da:	f7ff f880 	bl	0x2de
    11de:	2200      	movs	r2, #0
    11e0:	2108      	movs	r1, #8
    11e2:	4896      	ldr	r0, [pc, #600]	; (0x143c)
    11e4:	f7ff f87b 	bl	0x2de
    11e8:	2200      	movs	r2, #0
    11ea:	2110      	movs	r1, #16
    11ec:	4891      	ldr	r0, [pc, #580]	; (0x1434)
    11ee:	f7ff f876 	bl	0x2de
    11f2:	2b01      	cmp	r3, #1
    11f4:	d10e      	bne.n	0x1214
    11f6:	2201      	movs	r2, #1
    11f8:	2120      	movs	r1, #32
    11fa:	4890      	ldr	r0, [pc, #576]	; (0x143c)
    11fc:	f7ff f86f 	bl	0x2de
    1200:	2200      	movs	r2, #0
    1202:	2108      	movs	r1, #8
    1204:	488d      	ldr	r0, [pc, #564]	; (0x143c)
    1206:	f7ff f86a 	bl	0x2de
    120a:	2200      	movs	r2, #0
    120c:	2110      	movs	r1, #16
    120e:	4889      	ldr	r0, [pc, #548]	; (0x1434)
    1210:	f7ff f865 	bl	0x2de
    1214:	2b02      	cmp	r3, #2
    1216:	d10e      	bne.n	0x1236
    1218:	2200      	movs	r2, #0
    121a:	2120      	movs	r1, #32
    121c:	4887      	ldr	r0, [pc, #540]	; (0x143c)
    121e:	f7ff f85e 	bl	0x2de
    1222:	2201      	movs	r2, #1
    1224:	2108      	movs	r1, #8
    1226:	4885      	ldr	r0, [pc, #532]	; (0x143c)
    1228:	f7ff f859 	bl	0x2de
    122c:	2200      	movs	r2, #0
    122e:	2110      	movs	r1, #16
    1230:	4880      	ldr	r0, [pc, #512]	; (0x1434)
    1232:	f7ff f854 	bl	0x2de
    1236:	2b03      	cmp	r3, #3
    1238:	d10e      	bne.n	0x1258
    123a:	2201      	movs	r2, #1
    123c:	2120      	movs	r1, #32
    123e:	487f      	ldr	r0, [pc, #508]	; (0x143c)
    1240:	f7ff f84d 	bl	0x2de
    1244:	2201      	movs	r2, #1
    1246:	2108      	movs	r1, #8
    1248:	487c      	ldr	r0, [pc, #496]	; (0x143c)
    124a:	f7ff f848 	bl	0x2de
    124e:	2200      	movs	r2, #0
    1250:	2110      	movs	r1, #16
    1252:	4878      	ldr	r0, [pc, #480]	; (0x1434)
    1254:	f7ff f843 	bl	0x2de
    1258:	2b04      	cmp	r3, #4
    125a:	d10e      	bne.n	0x127a
    125c:	2201      	movs	r2, #1
    125e:	2120      	movs	r1, #32
    1260:	4876      	ldr	r0, [pc, #472]	; (0x143c)
    1262:	f7ff f83c 	bl	0x2de
    1266:	2201      	movs	r2, #1
    1268:	2108      	movs	r1, #8
    126a:	4874      	ldr	r0, [pc, #464]	; (0x143c)
    126c:	f7ff f837 	bl	0x2de
    1270:	2201      	movs	r2, #1
    1272:	2110      	movs	r1, #16
    1274:	486f      	ldr	r0, [pc, #444]	; (0x1434)
    1276:	f7ff f832 	bl	0x2de
    127a:	4871      	ldr	r0, [pc, #452]	; (0x1440)
    127c:	6003      	str	r3, [r0, #0]
    127e:	bd00      	pop	{pc}
    1280:	b500      	push	{lr}
    1282:	4603      	mov	r3, r0
    1284:	486f      	ldr	r0, [pc, #444]	; (0x1444)
    1286:	6003      	str	r3, [r0, #0]
    1288:	b953      	cbnz	r3, 0x12a0
    128a:	2201      	movs	r2, #1
    128c:	2104      	movs	r1, #4
    128e:	486b      	ldr	r0, [pc, #428]	; (0x143c)
    1290:	f7ff f825 	bl	0x2de
    1294:	2200      	movs	r2, #0
    1296:	2120      	movs	r1, #32
    1298:	4866      	ldr	r0, [pc, #408]	; (0x1434)
    129a:	f7ff f820 	bl	0x2de
    129e:	bd00      	pop	{pc}
    12a0:	2b01      	cmp	r3, #1
    12a2:	d10a      	bne.n	0x12ba
    12a4:	2200      	movs	r2, #0
    12a6:	2104      	movs	r1, #4
    12a8:	4864      	ldr	r0, [pc, #400]	; (0x143c)
    12aa:	f7ff f818 	bl	0x2de
    12ae:	2200      	movs	r2, #0
    12b0:	2120      	movs	r1, #32
    12b2:	4860      	ldr	r0, [pc, #384]	; (0x1434)
    12b4:	f7ff f813 	bl	0x2de
    12b8:	e7f1      	b.n	0x129e
    12ba:	2b02      	cmp	r3, #2
    12bc:	d10a      	bne.n	0x12d4
    12be:	2200      	movs	r2, #0
    12c0:	2104      	movs	r1, #4
    12c2:	485e      	ldr	r0, [pc, #376]	; (0x143c)
    12c4:	f7ff f80b 	bl	0x2de
    12c8:	2201      	movs	r2, #1
    12ca:	2120      	movs	r1, #32
    12cc:	4859      	ldr	r0, [pc, #356]	; (0x1434)
    12ce:	f7ff f806 	bl	0x2de
    12d2:	e7e4      	b.n	0x129e
    12d4:	bf00      	nop
    12d6:	e7e2      	b.n	0x129e
    12d8:	e92d 41f0 	stmdb	sp!, {r4, r5, r6, r7, r8, lr}
    12dc:	f04f 0800 	mov.w	r8, #0
    12e0:	f24c 3750 	movw	r7, #50000	; 0xc350
    12e4:	2000      	movs	r0, #0
    12e6:	f7ff ff6c 	bl	0x11c2
    12ea:	2000      	movs	r0, #0
    12ec:	f7ff ffc8 	bl	0x1280
    12f0:	f44f 7096 	mov.w	r0, #300	; 0x12c
    12f4:	f7fe ff98 	bl	0x228
    12f8:	2000      	movs	r0, #0
    12fa:	f7ff f8e4 	bl	0x4c6
    12fe:	a052      	add	r0, pc, #328	; (adr r0, 0x1448)
    1300:	f7ff f907 	bl	0x512
    1304:	2400      	movs	r4, #0
    1306:	e035      	b.n	0x1374
    1308:	4620      	mov	r0, r4
    130a:	f7ff faf4 	bl	0x8f6
    130e:	2500      	movs	r5, #0
    1310:	e014      	b.n	0x133c
    1312:	4628      	mov	r0, r5
    1314:	f7ff fac4 	bl	0x8a0
    1318:	20be      	movs	r0, #190	; 0xbe
    131a:	f7fe ff85 	bl	0x228
    131e:	f7ff fd08 	bl	0xd32
    1322:	4606      	mov	r6, r0
    1324:	484c      	ldr	r0, [pc, #304]	; (0x1458)
    1326:	eb00 1004 	add.w	r0, r0, r4, lsl #4
    132a:	f840 6025 	str.w	r6, [r0, r5, lsl #2]
    132e:	4546      	cmp	r6, r8
    1330:	dd00      	ble.n	0x1334
    1332:	46b0      	mov	r8, r6
    1334:	42be      	cmp	r6, r7
    1336:	da00      	bge.n	0x133a
    1338:	4637      	mov	r7, r6
    133a:	1c6d      	adds	r5, r5, #1
    133c:	2d04      	cmp	r5, #4
    133e:	dbe8      	blt.n	0x1312
    1340:	2501      	movs	r5, #1
    1342:	e00f      	b.n	0x1364
    1344:	4844      	ldr	r0, [pc, #272]	; (0x1458)
    1346:	eb00 1004 	add.w	r0, r0, r4, lsl #4
    134a:	f850 0025 	ldr.w	r0, [r0, r5, lsl #2]
    134e:	4942      	ldr	r1, [pc, #264]	; (0x1458)
    1350:	eb01 1104 	add.w	r1, r1, r4, lsl #4
    1354:	6809      	ldr	r1, [r1, #0]
    1356:	1a40      	subs	r0, r0, r1
    1358:	493f      	ldr	r1, [pc, #252]	; (0x1458)
    135a:	eb01 1104 	add.w	r1, r1, r4, lsl #4
    135e:	f841 0025 	str.w	r0, [r1, r5, lsl #2]
    1362:	1c6d      	adds	r5, r5, #1
    1364:	2d04      	cmp	r5, #4
    1366:	dbed      	blt.n	0x1344
    1368:	2000      	movs	r0, #0
    136a:	493b      	ldr	r1, [pc, #236]	; (0x1458)
    136c:	eb01 1104 	add.w	r1, r1, r4, lsl #4
    1370:	6008      	str	r0, [r1, #0]
    1372:	1c64      	adds	r4, r4, #1
    1374:	2c06      	cmp	r4, #6
    1376:	dbc7      	blt.n	0x1308
    1378:	2003      	movs	r0, #3
    137a:	f7ff fabc 	bl	0x8f6
    137e:	2000      	movs	r0, #0
    1380:	f7ff f8a1 	bl	0x4c6
    1384:	a035      	add	r0, pc, #212	; (adr r0, 0x145c)
    1386:	f7ff f8c4 	bl	0x512
    138a:	2105      	movs	r1, #5
    138c:	4638      	mov	r0, r7
    138e:	f7ff fa3f 	bl	0x810
    1392:	eba8 0007 	sub.w	r0, r8, r7
    1396:	2896      	cmp	r0, #150	; 0x96
    1398:	dd04      	ble.n	0x13a4
    139a:	a031      	add	r0, pc, #196	; (adr r0, 0x1460)
    139c:	f7ff f8b9 	bl	0x512
    13a0:	bf00      	nop
    13a2:	e7fe      	b.n	0x13a2
    13a4:	f5b7 7f96 	cmp.w	r7, #300	; 0x12c
    13a8:	da04      	bge.n	0x13b4
    13aa:	a02f      	add	r0, pc, #188	; (adr r0, 0x1468)
    13ac:	f7ff f8b1 	bl	0x512
    13b0:	bf00      	nop
    13b2:	e7fe      	b.n	0x13b2
    13b4:	f5b7 7f16 	cmp.w	r7, #600	; 0x258
    13b8:	da08      	bge.n	0x13cc
    13ba:	a02d      	add	r0, pc, #180	; (adr r0, 0x1470)
    13bc:	f7ff f8a9 	bl	0x512
    13c0:	f44f 707a 	mov.w	r0, #1000	; 0x3e8
    13c4:	f7fe ff30 	bl	0x228
    13c8:	e8bd 81f0 	ldmia.w	sp!, {r4, r5, r6, r7, r8, pc}
    13cc:	f640 10c4 	movw	r0, #2500	; 0x9c4
    13d0:	4287      	cmp	r7, r0
    13d2:	da07      	bge.n	0x13e4
    13d4:	a028      	add	r0, pc, #160	; (adr r0, 0x1478)
    13d6:	f7ff f89c 	bl	0x512
    13da:	f44f 707a 	mov.w	r0, #1000	; 0x3e8
    13de:	f7fe ff23 	bl	0x228
    13e2:	e7f1      	b.n	0x13c8
    13e4:	bf00      	nop
    13e6:	e7ef      	b.n	0x13c8
    13e8:	4825      	ldr	r0, [pc, #148]	; (0x1480)
    13ea:	6800      	ldr	r0, [r0, #0]
    13ec:	b948      	cbnz	r0, 0x1402
    13ee:	4824      	ldr	r0, [pc, #144]	; (0x1480)
    13f0:	6840      	ldr	r0, [r0, #4]
    13f2:	b930      	cbnz	r0, 0x1402
    13f4:	4810      	ldr	r0, [pc, #64]	; (0x1438)
    13f6:	6800      	ldr	r0, [r0, #0]
    13f8:	2131      	movs	r1, #49	; 0x31
    13fa:	eb01 0040 	add.w	r0, r1, r0, lsl #1
    13fe:	b2c0      	uxtb	r0, r0
    1400:	4770      	bx	lr
    1402:	481f      	ldr	r0, [pc, #124]	; (0x1480)
    1404:	6800      	ldr	r0, [r0, #0]
    1406:	b950      	cbnz	r0, 0x141e
    1408:	481d      	ldr	r0, [pc, #116]	; (0x1480)
    140a:	6840      	ldr	r0, [r0, #4]
    140c:	2801      	cmp	r0, #1
    140e:	d139      	bne.n	0x1484
    1410:	4809      	ldr	r0, [pc, #36]	; (0x1438)
    1412:	6800      	ldr	r0, [r0, #0]
    1414:	2132      	movs	r1, #50	; 0x32
    1416:	eb01 0040 	add.w	r0, r1, r0, lsl #1
    141a:	b2c0      	uxtb	r0, r0
    141c:	e7f0      	b.n	0x1400
    141e:	e031      	b.n	0x1484
    1420:	fc00 0800 	stc2	8, cr0, [r0], {-0}
    1424:	f800 0800 	strb.w	r0, [r0, <undefined>]
    1428:	f400 0800 	and.w	r8, r0, #8388608	; 0x800000
    142c:	1030      	asrs	r0, r6, #32
    142e:	2000      	movs	r0, #0
    1430:	0081      	lsls	r1, r0, #2
    1432:	2000      	movs	r0, #0
    1434:	0c00      	lsrs	r0, r0, #16
    1436:	4001      	ands	r1, r0
    1438:	0074      	lsls	r4, r6, #1
    143a:	2000      	movs	r0, #0
    143c:	0800      	lsrs	r0, r0, #32
    143e:	4001      	ands	r1, r0
    1440:	0078      	lsls	r0, r7, #1
    1442:	2000      	movs	r0, #0
    1444:	008c      	lsls	r4, r1, #2
    1446:	2000      	movs	r0, #0
    1448:	655a      	str	r2, [r3, #84]	; 0x54
    144a:	6f72      	ldr	r2, [r6, #116]	; 0x74
    144c:	6320      	str	r0, [r4, #48]	; 0x30
    144e:	6568      	str	r0, [r5, #84]	; 0x54
    1450:	6b63      	ldr	r3, [r4, #52]	; 0x34
    1452:	2e2e      	cmp	r6, #46	; 0x2e
    1454:	002e      	movs	r6, r5
    1456:	0000      	movs	r0, r0
    1458:	10a0      	asrs	r0, r4, #2
    145a:	2000      	movs	r0, #0
    145c:	3076      	adds	r0, #118	; 0x76
    145e:	003d      	movs	r5, r7
    1460:	6520      	str	r0, [r4, #80]	; 0x50
    1462:	7272      	strb	r2, [r6, #9]
    1464:	443a      	add	r2, r7
    1466:	0000      	movs	r0, r0
    1468:	6520      	str	r0, [r4, #80]	; 0x50
    146a:	7272      	strb	r2, [r6, #9]
    146c:	0000      	movs	r0, r0
    146e:	0000      	movs	r0, r0
    1470:	6220      	str	r0, [r4, #32]
    1472:	6461      	str	r1, [r4, #68]	; 0x44
    1474:	0000      	movs	r0, r0
    1476:	0000      	movs	r0, r0
    1478:	6720      	str	r0, [r4, #112]	; 0x70
    147a:	6f6f      	ldr	r7, [r5, #116]	; 0x74
    147c:	0064      	lsls	r4, r4, #1
    147e:	0000      	movs	r0, r0
    1480:	0068      	lsls	r0, r5, #1
    1482:	2000      	movs	r0, #0
    1484:	48ff      	ldr	r0, [pc, #1020]	; (0x1884)
    1486:	6800      	ldr	r0, [r0, #0]
    1488:	2801      	cmp	r0, #1
    148a:	d10a      	bne.n	0x14a2
    148c:	48fd      	ldr	r0, [pc, #1012]	; (0x1884)
    148e:	6840      	ldr	r0, [r0, #4]
    1490:	2801      	cmp	r0, #1
    1492:	d106      	bne.n	0x14a2
    1494:	48fc      	ldr	r0, [pc, #1008]	; (0x1888)
    1496:	6800      	ldr	r0, [r0, #0]
    1498:	2131      	movs	r1, #49	; 0x31
    149a:	eb01 0040 	add.w	r0, r1, r0, lsl #1
    149e:	b2c0      	uxtb	r0, r0
    14a0:	e7ae      	b.n	0x1400
    14a2:	48f8      	ldr	r0, [pc, #992]	; (0x1884)
    14a4:	6800      	ldr	r0, [r0, #0]
    14a6:	2801      	cmp	r0, #1
    14a8:	d107      	bne.n	0x14ba
    14aa:	48f6      	ldr	r0, [pc, #984]	; (0x1884)
    14ac:	6840      	ldr	r0, [r0, #4]
    14ae:	b920      	cbnz	r0, 0x14ba
    14b0:	48f5      	ldr	r0, [pc, #980]	; (0x1888)
    14b2:	6800      	ldr	r0, [r0, #0]
    14b4:	b908      	cbnz	r0, 0x14ba
    14b6:	2030      	movs	r0, #48	; 0x30
    14b8:	e7a2      	b.n	0x1400
    14ba:	48f3      	ldr	r0, [pc, #972]	; (0x1888)
    14bc:	6800      	ldr	r0, [r0, #0]
    14be:	2803      	cmp	r0, #3
    14c0:	d11a      	bne.n	0x14f8
    14c2:	48f0      	ldr	r0, [pc, #960]	; (0x1884)
    14c4:	6800      	ldr	r0, [r0, #0]
    14c6:	b928      	cbnz	r0, 0x14d4
    14c8:	48ee      	ldr	r0, [pc, #952]	; (0x1884)
    14ca:	6840      	ldr	r0, [r0, #4]
    14cc:	2802      	cmp	r0, #2
    14ce:	d101      	bne.n	0x14d4
    14d0:	2041      	movs	r0, #65	; 0x41
    14d2:	e795      	b.n	0x1400
    14d4:	48eb      	ldr	r0, [pc, #940]	; (0x1884)
    14d6:	6800      	ldr	r0, [r0, #0]
    14d8:	b928      	cbnz	r0, 0x14e6
    14da:	48ea      	ldr	r0, [pc, #936]	; (0x1884)
    14dc:	6840      	ldr	r0, [r0, #4]
    14de:	2803      	cmp	r0, #3
    14e0:	d101      	bne.n	0x14e6
    14e2:	2042      	movs	r0, #66	; 0x42
    14e4:	e78c      	b.n	0x1400
    14e6:	48e7      	ldr	r0, [pc, #924]	; (0x1884)
    14e8:	6800      	ldr	r0, [r0, #0]
    14ea:	b928      	cbnz	r0, 0x14f8
    14ec:	48e5      	ldr	r0, [pc, #916]	; (0x1884)
    14ee:	6840      	ldr	r0, [r0, #4]
    14f0:	2804      	cmp	r0, #4
    14f2:	d101      	bne.n	0x14f8
    14f4:	2043      	movs	r0, #67	; 0x43
    14f6:	e783      	b.n	0x1400
    14f8:	48e3      	ldr	r0, [pc, #908]	; (0x1888)
    14fa:	6800      	ldr	r0, [r0, #0]
    14fc:	b9d0      	cbnz	r0, 0x1534
    14fe:	48e1      	ldr	r0, [pc, #900]	; (0x1884)
    1500:	6800      	ldr	r0, [r0, #0]
    1502:	2802      	cmp	r0, #2
    1504:	d104      	bne.n	0x1510
    1506:	48df      	ldr	r0, [pc, #892]	; (0x1884)
    1508:	6840      	ldr	r0, [r0, #4]
    150a:	b908      	cbnz	r0, 0x1510
    150c:	2061      	movs	r0, #97	; 0x61
    150e:	e777      	b.n	0x1400
    1510:	48dc      	ldr	r0, [pc, #880]	; (0x1884)
    1512:	6800      	ldr	r0, [r0, #0]
    1514:	2803      	cmp	r0, #3
    1516:	d104      	bne.n	0x1522
    1518:	48da      	ldr	r0, [pc, #872]	; (0x1884)
    151a:	6840      	ldr	r0, [r0, #4]
    151c:	b908      	cbnz	r0, 0x1522
    151e:	2062      	movs	r0, #98	; 0x62
    1520:	e76e      	b.n	0x1400
    1522:	48d8      	ldr	r0, [pc, #864]	; (0x1884)
    1524:	6800      	ldr	r0, [r0, #0]
    1526:	2804      	cmp	r0, #4
    1528:	d104      	bne.n	0x1534
    152a:	48d6      	ldr	r0, [pc, #856]	; (0x1884)
    152c:	6840      	ldr	r0, [r0, #4]
    152e:	b908      	cbnz	r0, 0x1534
    1530:	2063      	movs	r0, #99	; 0x63
    1532:	e765      	b.n	0x1400
    1534:	2058      	movs	r0, #88	; 0x58
    1536:	e763      	b.n	0x1400
    1538:	48d4      	ldr	r0, [pc, #848]	; (0x188c)
    153a:	6800      	ldr	r0, [r0, #0]
    153c:	b908      	cbnz	r0, 0x1542
    153e:	2041      	movs	r0, #65	; 0x41
    1540:	4770      	bx	lr
    1542:	48d2      	ldr	r0, [pc, #840]	; (0x188c)
    1544:	6800      	ldr	r0, [r0, #0]
    1546:	2801      	cmp	r0, #1
    1548:	d101      	bne.n	0x154e
    154a:	2061      	movs	r0, #97	; 0x61
    154c:	e7f8      	b.n	0x1540
    154e:	48cf      	ldr	r0, [pc, #828]	; (0x188c)
    1550:	6800      	ldr	r0, [r0, #0]
    1552:	2802      	cmp	r0, #2
    1554:	d101      	bne.n	0x155a
    1556:	2062      	movs	r0, #98	; 0x62
    1558:	e7f2      	b.n	0x1540
    155a:	48cc      	ldr	r0, [pc, #816]	; (0x188c)
    155c:	6800      	ldr	r0, [r0, #0]
    155e:	2803      	cmp	r0, #3
    1560:	d101      	bne.n	0x1566
    1562:	2042      	movs	r0, #66	; 0x42
    1564:	e7ec      	b.n	0x1540
    1566:	48c9      	ldr	r0, [pc, #804]	; (0x188c)
    1568:	6800      	ldr	r0, [r0, #0]
    156a:	2804      	cmp	r0, #4
    156c:	d101      	bne.n	0x1572
    156e:	2063      	movs	r0, #99	; 0x63
    1570:	e7e6      	b.n	0x1540
    1572:	48c6      	ldr	r0, [pc, #792]	; (0x188c)
    1574:	6800      	ldr	r0, [r0, #0]
    1576:	2805      	cmp	r0, #5
    1578:	d101      	bne.n	0x157e
    157a:	2043      	movs	r0, #67	; 0x43
    157c:	e7e0      	b.n	0x1540
    157e:	204e      	movs	r0, #78	; 0x4e
    1580:	e7de      	b.n	0x1540
    1582:	48c2      	ldr	r0, [pc, #776]	; (0x188c)
    1584:	6800      	ldr	r0, [r0, #0]
    1586:	b908      	cbnz	r0, 0x158c
    1588:	a0c1      	add	r0, pc, #772	; (adr r0, 0x1890)
    158a:	4770      	bx	lr
    158c:	48bf      	ldr	r0, [pc, #764]	; (0x188c)
    158e:	6800      	ldr	r0, [r0, #0]
    1590:	2801      	cmp	r0, #1
    1592:	d101      	bne.n	0x1598
    1594:	a0bf      	add	r0, pc, #764	; (adr r0, 0x1894)
    1596:	e7f8      	b.n	0x158a
    1598:	48bc      	ldr	r0, [pc, #752]	; (0x188c)
    159a:	6800      	ldr	r0, [r0, #0]
    159c:	2802      	cmp	r0, #2
    159e:	d101      	bne.n	0x15a4
    15a0:	a0bd      	add	r0, pc, #756	; (adr r0, 0x1898)
    15a2:	e7f2      	b.n	0x158a
    15a4:	48b9      	ldr	r0, [pc, #740]	; (0x188c)
    15a6:	6800      	ldr	r0, [r0, #0]
    15a8:	2803      	cmp	r0, #3
    15aa:	d101      	bne.n	0x15b0
    15ac:	a0bb      	add	r0, pc, #748	; (adr r0, 0x189c)
    15ae:	e7ec      	b.n	0x158a
    15b0:	48b6      	ldr	r0, [pc, #728]	; (0x188c)
    15b2:	6800      	ldr	r0, [r0, #0]
    15b4:	2804      	cmp	r0, #4
    15b6:	d101      	bne.n	0x15bc
    15b8:	a0b9      	add	r0, pc, #740	; (adr r0, 0x18a0)
    15ba:	e7e6      	b.n	0x158a
    15bc:	48b3      	ldr	r0, [pc, #716]	; (0x188c)
    15be:	6800      	ldr	r0, [r0, #0]
    15c0:	2805      	cmp	r0, #5
    15c2:	d101      	bne.n	0x15c8
    15c4:	a0b7      	add	r0, pc, #732	; (adr r0, 0x18a4)
    15c6:	e7e0      	b.n	0x158a
    15c8:	a0b7      	add	r0, pc, #732	; (adr r0, 0x18a8)
    15ca:	e7de      	b.n	0x158a
    15cc:	b500      	push	{lr}
    15ce:	a0b7      	add	r0, pc, #732	; (adr r0, 0x18ac)
    15d0:	f7fe ff9f 	bl	0x512
    15d4:	48ad      	ldr	r0, [pc, #692]	; (0x188c)
    15d6:	6800      	ldr	r0, [r0, #0]
    15d8:	3030      	adds	r0, #48	; 0x30
    15da:	b2c0      	uxtb	r0, r0
    15dc:	f7fe ff7d 	bl	0x4da
    15e0:	a0b3      	add	r0, pc, #716	; (adr r0, 0x18b0)
    15e2:	f7fe ff96 	bl	0x512
    15e6:	48b3      	ldr	r0, [pc, #716]	; (0x18b4)
    15e8:	6800      	ldr	r0, [r0, #0]
    15ea:	3030      	adds	r0, #48	; 0x30
    15ec:	b2c0      	uxtb	r0, r0
    15ee:	f7fe ff74 	bl	0x4da
    15f2:	a0b1      	add	r0, pc, #708	; (adr r0, 0x18b8)
    15f4:	f7fe ff8d 	bl	0x512
    15f8:	48a3      	ldr	r0, [pc, #652]	; (0x1888)
    15fa:	6800      	ldr	r0, [r0, #0]
    15fc:	3030      	adds	r0, #48	; 0x30
    15fe:	b2c0      	uxtb	r0, r0
    1600:	f7fe ff6b 	bl	0x4da
    1604:	a0ad      	add	r0, pc, #692	; (adr r0, 0x18bc)
    1606:	f7fe ff84 	bl	0x512
    160a:	48ad      	ldr	r0, [pc, #692]	; (0x18c0)
    160c:	6800      	ldr	r0, [r0, #0]
    160e:	3030      	adds	r0, #48	; 0x30
    1610:	b2c0      	uxtb	r0, r0
    1612:	f7fe ff62 	bl	0x4da
    1616:	a0ab      	add	r0, pc, #684	; (adr r0, 0x18c4)
    1618:	f7fe ff7b 	bl	0x512
    161c:	48aa      	ldr	r0, [pc, #680]	; (0x18c8)
    161e:	6800      	ldr	r0, [r0, #0]
    1620:	3030      	adds	r0, #48	; 0x30
    1622:	b2c0      	uxtb	r0, r0
    1624:	f7fe ff59 	bl	0x4da
    1628:	a0a8      	add	r0, pc, #672	; (adr r0, 0x18cc)
    162a:	f7fe ff72 	bl	0x512
    162e:	bd00      	pop	{pc}
    1630:	b510      	push	{r4, lr}
    1632:	4604      	mov	r4, r0
    1634:	f7fe ff36 	bl	0x4a4
    1638:	2000      	movs	r0, #0
    163a:	f7fe ff3a 	bl	0x4b2
    163e:	4620      	mov	r0, r4
    1640:	f7fe ff67 	bl	0x512
    1644:	f44f 707a 	mov.w	r0, #1000	; 0x3e8
    1648:	f7fe fdee 	bl	0x228
    164c:	f7fe ff2a 	bl	0x4a4
    1650:	bd10      	pop	{r4, pc}
    1652:	b510      	push	{r4, lr}
    1654:	4604      	mov	r4, r0
    1656:	2000      	movs	r0, #0
    1658:	f7fe ff2b 	bl	0x4b2
    165c:	4620      	mov	r0, r4
    165e:	f7fe ff58 	bl	0x512
    1662:	2000      	movs	r0, #0
    1664:	f7fe ff2f 	bl	0x4c6
    1668:	4888      	ldr	r0, [pc, #544]	; (0x188c)
    166a:	6800      	ldr	r0, [r0, #0]
    166c:	3041      	adds	r0, #65	; 0x41
    166e:	b2c0      	uxtb	r0, r0
    1670:	f7fe ff33 	bl	0x4da
    1674:	4884      	ldr	r0, [pc, #528]	; (0x1888)
    1676:	6800      	ldr	r0, [r0, #0]
    1678:	3031      	adds	r0, #49	; 0x31
    167a:	b2c0      	uxtb	r0, r0
    167c:	f7fe ff2d 	bl	0x4da
    1680:	a094      	add	r0, pc, #592	; (adr r0, 0x18d4)
    1682:	f7fe ff46 	bl	0x512
    1686:	bd10      	pop	{r4, pc}
    1688:	b500      	push	{lr}
    168a:	2000      	movs	r0, #0
    168c:	f7fe ff11 	bl	0x4b2
    1690:	a094      	add	r0, pc, #592	; (adr r0, 0x18e4)
    1692:	f7fe ff3e 	bl	0x512
    1696:	bd00      	pop	{pc}
    1698:	b503      	push	{r0, r1, lr}
    169a:	b0af      	sub	sp, #188	; 0xbc
    169c:	2000      	movs	r0, #0
    169e:	902d      	str	r0, [sp, #180]	; 0xb4
    16a0:	902c      	str	r0, [sp, #176]	; 0xb0
    16a2:	902b      	str	r0, [sp, #172]	; 0xac
    16a4:	4893      	ldr	r0, [pc, #588]	; (0x18f4)
    16a6:	9021      	str	r0, [sp, #132]	; 0x84
    16a8:	4893      	ldr	r0, [pc, #588]	; (0x18f8)
    16aa:	9020      	str	r0, [sp, #128]	; 0x80
    16ac:	4893      	ldr	r0, [pc, #588]	; (0x18fc)
    16ae:	901f      	str	r0, [sp, #124]	; 0x7c
    16b0:	204c      	movs	r0, #76	; 0x4c
    16b2:	901e      	str	r0, [sp, #120]	; 0x78
    16b4:	4892      	ldr	r0, [pc, #584]	; (0x1900)
    16b6:	4974      	ldr	r1, [pc, #464]	; (0x1888)
    16b8:	6809      	ldr	r1, [r1, #0]
    16ba:	5640      	ldrsb	r0, [r0, r1]
    16bc:	901d      	str	r0, [sp, #116]	; 0x74
    16be:	4890      	ldr	r0, [pc, #576]	; (0x1900)
    16c0:	1f00      	subs	r0, r0, #4
    16c2:	4971      	ldr	r1, [pc, #452]	; (0x1888)
    16c4:	6809      	ldr	r1, [r1, #0]
    16c6:	5640      	ldrsb	r0, [r0, r1]
    16c8:	496f      	ldr	r1, [pc, #444]	; (0x1888)
    16ca:	6809      	ldr	r1, [r1, #0]
    16cc:	2903      	cmp	r1, #3
    16ce:	d101      	bne.n	0x16d4
    16d0:	213c      	movs	r1, #60	; 0x3c
    16d2:	e000      	b.n	0x16d6
    16d4:	2100      	movs	r1, #0
    16d6:	4408      	add	r0, r1
    16d8:	901c      	str	r0, [sp, #112]	; 0x70
    16da:	4889      	ldr	r0, [pc, #548]	; (0x1900)
    16dc:	1f00      	subs	r0, r0, #4
    16de:	f990 0008 	ldrsb.w	r0, [r0, #8]
    16e2:	901b      	str	r0, [sp, #108]	; 0x6c
    16e4:	4886      	ldr	r0, [pc, #536]	; (0x1900)
    16e6:	1f00      	subs	r0, r0, #4
    16e8:	f990 0009 	ldrsb.w	r0, [r0, #9]
    16ec:	901a      	str	r0, [sp, #104]	; 0x68
    16ee:	4884      	ldr	r0, [pc, #528]	; (0x1900)
    16f0:	1f00      	subs	r0, r0, #4
    16f2:	f990 100a 	ldrsb.w	r1, [r0, #10]
    16f6:	9119      	str	r1, [sp, #100]	; 0x64
    16f8:	f990 000b 	ldrsb.w	r0, [r0, #11]
    16fc:	303c      	adds	r0, #60	; 0x3c
    16fe:	9018      	str	r0, [sp, #96]	; 0x60
    1700:	9919      	ldr	r1, [sp, #100]	; 0x64
    1702:	981b      	ldr	r0, [sp, #108]	; 0x6c
    1704:	4408      	add	r0, r1
    1706:	9017      	str	r0, [sp, #92]	; 0x5c
    1708:	9918      	ldr	r1, [sp, #96]	; 0x60
    170a:	981a      	ldr	r0, [sp, #104]	; 0x68
    170c:	4408      	add	r0, r1
    170e:	9016      	str	r0, [sp, #88]	; 0x58
    1710:	2000      	movs	r0, #0
    1712:	9015      	str	r0, [sp, #84]	; 0x54
    1714:	9014      	str	r0, [sp, #80]	; 0x50
    1716:	902e      	str	r0, [sp, #184]	; 0xb8
    1718:	e02d      	b.n	0x1776
    171a:	497a      	ldr	r1, [pc, #488]	; (0x1904)
    171c:	982e      	ldr	r0, [sp, #184]	; 0xb8
    171e:	1c40      	adds	r0, r0, #1
    1720:	f851 0020 	ldr.w	r0, [r1, r0, lsl #2]
    1724:	6809      	ldr	r1, [r1, #0]
    1726:	1a41      	subs	r1, r0, r1
    1728:	4877      	ldr	r0, [pc, #476]	; (0x1908)
    172a:	4a58      	ldr	r2, [pc, #352]	; (0x188c)
    172c:	6812      	ldr	r2, [r2, #0]
    172e:	eb00 1202 	add.w	r2, r0, r2, lsl #4
    1732:	4b76      	ldr	r3, [pc, #472]	; (0x190c)
    1734:	982e      	ldr	r0, [sp, #184]	; 0xb8
    1736:	1c40      	adds	r0, r0, #1
    1738:	f853 0020 	ldr.w	r0, [r3, r0, lsl #2]
    173c:	f852 0020 	ldr.w	r0, [r2, r0, lsl #2]
    1740:	1a08      	subs	r0, r1, r0
    1742:	900e      	str	r0, [sp, #56]	; 0x38
    1744:	f005 fc12 	bl	0x6f6c
    1748:	aa0f      	add	r2, sp, #60	; 0x3c
    174a:	992e      	ldr	r1, [sp, #184]	; 0xb8
    174c:	f842 0021 	str.w	r0, [r2, r1, lsl #2]
    1750:	496e      	ldr	r1, [pc, #440]	; (0x190c)
    1752:	982e      	ldr	r0, [sp, #184]	; 0xb8
    1754:	1c40      	adds	r0, r0, #1
    1756:	f851 0020 	ldr.w	r0, [r1, r0, lsl #2]
    175a:	2801      	cmp	r0, #1
    175c:	dd08      	ble.n	0x1770
    175e:	a90f      	add	r1, sp, #60	; 0x3c
    1760:	982e      	ldr	r0, [sp, #184]	; 0xb8
    1762:	f851 0020 	ldr.w	r0, [r1, r0, lsl #2]
    1766:	f080 4100 	eor.w	r1, r0, #2147483648	; 0x80000000
    176a:	982e      	ldr	r0, [sp, #184]	; 0xb8
    176c:	f842 1020 	str.w	r1, [r2, r0, lsl #2]
    1770:	982e      	ldr	r0, [sp, #184]	; 0xb8
    1772:	1c40      	adds	r0, r0, #1
    1774:	902e      	str	r0, [sp, #184]	; 0xb8
    1776:	982e      	ldr	r0, [sp, #184]	; 0xb8
    1778:	2804      	cmp	r0, #4
    177a:	dbce      	blt.n	0x171a
    177c:	9812      	ldr	r0, [sp, #72]	; 0x48
    177e:	900c      	str	r0, [sp, #48]	; 0x30
    1780:	4601      	mov	r1, r0
    1782:	900b      	str	r0, [sp, #44]	; 0x2c
    1784:	f005 fc3e 	bl	0x7004
    1788:	900e      	str	r0, [sp, #56]	; 0x38
    178a:	9811      	ldr	r0, [sp, #68]	; 0x44
    178c:	900c      	str	r0, [sp, #48]	; 0x30
    178e:	4601      	mov	r1, r0
    1790:	900b      	str	r0, [sp, #44]	; 0x2c
    1792:	f005 fc37 	bl	0x7004
    1796:	900d      	str	r0, [sp, #52]	; 0x34
    1798:	990e      	ldr	r1, [sp, #56]	; 0x38
    179a:	f005 fa67 	bl	0x6c6c
    179e:	902d      	str	r0, [sp, #180]	; 0xb4
    17a0:	9812      	ldr	r0, [sp, #72]	; 0x48
    17a2:	900c      	str	r0, [sp, #48]	; 0x30
    17a4:	9810      	ldr	r0, [sp, #64]	; 0x40
    17a6:	900b      	str	r0, [sp, #44]	; 0x2c
    17a8:	990c      	ldr	r1, [sp, #48]	; 0x30
    17aa:	f005 fc2b 	bl	0x7004
    17ae:	900e      	str	r0, [sp, #56]	; 0x38
    17b0:	9811      	ldr	r0, [sp, #68]	; 0x44
    17b2:	900c      	str	r0, [sp, #48]	; 0x30
    17b4:	980f      	ldr	r0, [sp, #60]	; 0x3c
    17b6:	900b      	str	r0, [sp, #44]	; 0x2c
    17b8:	990c      	ldr	r1, [sp, #48]	; 0x30
    17ba:	f005 fc23 	bl	0x7004
    17be:	900d      	str	r0, [sp, #52]	; 0x34
    17c0:	990e      	ldr	r1, [sp, #56]	; 0x38
    17c2:	f005 fa53 	bl	0x6c6c
    17c6:	f080 4000 	eor.w	r0, r0, #2147483648	; 0x80000000
    17ca:	902c      	str	r0, [sp, #176]	; 0xb0
    17cc:	9812      	ldr	r0, [sp, #72]	; 0x48
    17ce:	900c      	str	r0, [sp, #48]	; 0x30
    17d0:	980f      	ldr	r0, [sp, #60]	; 0x3c
    17d2:	900b      	str	r0, [sp, #44]	; 0x2c
    17d4:	990c      	ldr	r1, [sp, #48]	; 0x30
    17d6:	f005 fc15 	bl	0x7004
    17da:	900e      	str	r0, [sp, #56]	; 0x38
    17dc:	9810      	ldr	r0, [sp, #64]	; 0x40
    17de:	900c      	str	r0, [sp, #48]	; 0x30
    17e0:	9811      	ldr	r0, [sp, #68]	; 0x44
    17e2:	900b      	str	r0, [sp, #44]	; 0x2c
    17e4:	990c      	ldr	r1, [sp, #48]	; 0x30
    17e6:	f005 fc0d 	bl	0x7004
    17ea:	900d      	str	r0, [sp, #52]	; 0x34
    17ec:	990e      	ldr	r1, [sp, #56]	; 0x38
    17ee:	f005 fd17 	bl	0x7220
    17f2:	f080 4000 	eor.w	r0, r0, #2147483648	; 0x80000000
    17f6:	902b      	str	r0, [sp, #172]	; 0xac
    17f8:	4822      	ldr	r0, [pc, #136]	; (0x1884)
    17fa:	6840      	ldr	r0, [r0, #4]
    17fc:	4944      	ldr	r1, [pc, #272]	; (0x1910)
    17fe:	f851 0020 	ldr.w	r0, [r1, r0, lsl #2]
    1802:	900d      	str	r0, [sp, #52]	; 0x34
    1804:	481f      	ldr	r0, [pc, #124]	; (0x1884)
    1806:	6800      	ldr	r0, [r0, #0]
    1808:	f851 0020 	ldr.w	r0, [r1, r0, lsl #2]
    180c:	900c      	str	r0, [sp, #48]	; 0x30
    180e:	990d      	ldr	r1, [sp, #52]	; 0x34
    1810:	f005 fa9a 	bl	0x6d48
    1814:	900e      	str	r0, [sp, #56]	; 0x38
    1816:	992d      	ldr	r1, [sp, #180]	; 0xb4
    1818:	f005 fbf4 	bl	0x7004
    181c:	902d      	str	r0, [sp, #180]	; 0xb4
    181e:	981d      	ldr	r0, [sp, #116]	; 0x74
    1820:	f004 fdd9 	bl	0x63d6
    1824:	2200      	movs	r2, #0
    1826:	4b3b      	ldr	r3, [pc, #236]	; (0x1914)
    1828:	e9cd 0100 	strd	r0, r1, [sp]
    182c:	f004 fc1e 	bl	0x606c
    1830:	2200      	movs	r2, #0
    1832:	4b39      	ldr	r3, [pc, #228]	; (0x1918)
    1834:	e9cd 0102 	strd	r0, r1, [sp, #8]
    1838:	f004 fb5e 	bl	0x5ef8
    183c:	e9cd 0106 	strd	r0, r1, [sp, #24]
    1840:	4836      	ldr	r0, [pc, #216]	; (0x191c)
    1842:	4911      	ldr	r1, [pc, #68]	; (0x1888)
    1844:	6809      	ldr	r1, [r1, #0]
    1846:	f850 0021 	ldr.w	r0, [r0, r1, lsl #2]
    184a:	9003      	str	r0, [sp, #12]
    184c:	f005 f9e2 	bl	0x6c14
    1850:	e9cd 0104 	strd	r0, r1, [sp, #16]
    1854:	e9dd 2306 	ldrd	r2, r3, [sp, #24]
    1858:	f004 fe24 	bl	0x64a4
    185c:	e9cd 010a 	strd	r0, r1, [sp, #40]	; 0x28
    1860:	982d      	ldr	r0, [sp, #180]	; 0xb4
    1862:	f005 f9d7 	bl	0x6c14
    1866:	e9cd 0108 	strd	r0, r1, [sp, #32]
    186a:	e9dd 230a 	ldrd	r2, r3, [sp, #40]	; 0x28
    186e:	f004 fbfd 	bl	0x606c
    1872:	e9cd 010c 	strd	r0, r1, [sp, #48]	; 0x30
    1876:	f004 fb0d 	bl	0x5e94
    187a:	902d      	str	r0, [sp, #180]	; 0xb4
    187c:	4801      	ldr	r0, [pc, #4]	; (0x1884)
    187e:	6800      	ldr	r0, [r0, #0]
    1880:	2801      	cmp	r0, #1
    1882:	e04d      	b.n	0x1920
    1884:	0068      	lsls	r0, r5, #1
    1886:	2000      	movs	r0, #0
    1888:	0074      	lsls	r4, r6, #1
    188a:	2000      	movs	r0, #0
    188c:	0088      	lsls	r0, r1, #2
    188e:	2000      	movs	r0, #0
    1890:	3031      	adds	r0, #49	; 0x31
    1892:	0030      	movs	r0, r6
    1894:	3032      	adds	r0, #50	; 0x32
    1896:	0030      	movs	r0, r6
    1898:	3034      	adds	r0, #52	; 0x34
    189a:	0030      	movs	r0, r6
    189c:	6b31      	ldr	r1, [r6, #48]	; 0x30
    189e:	0020      	movs	r0, r4
    18a0:	6b32      	ldr	r2, [r6, #48]	; 0x30
    18a2:	0020      	movs	r0, r4
    18a4:	3031      	adds	r0, #49	; 0x31
    18a6:	006b      	lsls	r3, r5, #1
    18a8:	6566      	str	r6, [r4, #84]	; 0x54
    18aa:	0071      	lsls	r1, r6, #1
    18ac:	0046      	lsls	r6, r0, #1
    18ae:	0000      	movs	r0, r0
    18b0:	0058      	lsls	r0, r3, #1
    18b2:	0000      	movs	r0, r0
    18b4:	0008      	movs	r0, r1
    18b6:	2000      	movs	r0, #0
    18b8:	5220      	strh	r0, [r4, r0]
    18ba:	0000      	movs	r0, r0
    18bc:	0047      	lsls	r7, r0, #1
    18be:	0000      	movs	r0, r0
    18c0:	0078      	lsls	r0, r7, #1
    18c2:	2000      	movs	r0, #0
    18c4:	5320      	strh	r0, [r4, r4]
    18c6:	0000      	movs	r0, r0
    18c8:	008c      	lsls	r4, r1, #2
    18ca:	2000      	movs	r0, #0
    18cc:	2020      	movs	r0, #32
    18ce:	2020      	movs	r0, #32
    18d0:	0000      	movs	r0, r0
    18d2:	0000      	movs	r0, r0
    18d4:	2020      	movs	r0, #32
    18d6:	2020      	movs	r0, #32
    18d8:	2020      	movs	r0, #32
    18da:	2020      	movs	r0, #32
    18dc:	2020      	movs	r0, #32
    18de:	2020      	movs	r0, #32
    18e0:	2020      	movs	r0, #32
    18e2:	0000      	movs	r0, r0
    18e4:	434c      	muls	r4, r1
    18e6:	2052      	movs	r0, #82	; 0x52
    18e8:	3156      	adds	r1, #86	; 0x56
    18ea:	312e      	adds	r1, #46	; 0x2e
    18ec:	582c      	ldr	r4, [r5, r0]
    18ee:	574a      	ldrsb	r2, [r1, r5]
    18f0:	0000      	movs	r0, r0
    18f2:	0000      	movs	r0, r0
    18f4:	b717      			; <UNDEFINED> instruction: 0xb717
    18f6:	38d1      	subs	r0, #209	; 0xd1
    18f8:	705f      	strb	r7, [r3, #1]
    18fa:	3109      	adds	r1, #9
    18fc:	1d7d      	adds	r5, r7, #5
    18fe:	2690      	movs	r6, #144	; 0x90
    1900:	1034      	asrs	r4, r6, #32
    1902:	2000      	movs	r0, #0
    1904:	101c      	asrs	r4, r3, #32
    1906:	2000      	movs	r0, #0
    1908:	10a0      	asrs	r0, r4, #2
    190a:	2000      	movs	r0, #0
    190c:	0054      	lsls	r4, r2, #1
    190e:	2000      	movs	r0, #0
    1910:	0018      	movs	r0, r3
    1912:	2000      	movs	r0, #0
    1914:	8800      	ldrh	r0, [r0, #0]
    1916:	40c3      	lsrs	r3, r0
    1918:	0000      	movs	r0, r0
    191a:	3ff0      	subs	r7, #240	; 0xf0
    191c:	002c      	movs	r4, r5
    191e:	2000      	movs	r0, #0
    1920:	d10f      	bne.n	0x1942
    1922:	981a      	ldr	r0, [sp, #104]	; 0x68
    1924:	f005 fb22 	bl	0x6f6c
    1928:	900e      	str	r0, [sp, #56]	; 0x38
    192a:	9915      	ldr	r1, [sp, #84]	; 0x54
    192c:	f005 f99e 	bl	0x6c6c
    1930:	9015      	str	r0, [sp, #84]	; 0x54
    1932:	981b      	ldr	r0, [sp, #108]	; 0x6c
    1934:	f005 fb1a 	bl	0x6f6c
    1938:	900e      	str	r0, [sp, #56]	; 0x38
    193a:	9914      	ldr	r1, [sp, #80]	; 0x50
    193c:	f005 f996 	bl	0x6c6c
    1940:	9014      	str	r0, [sp, #80]	; 0x50
    1942:	48ff      	ldr	r0, [pc, #1020]	; (0x1d40)
    1944:	6800      	ldr	r0, [r0, #0]
    1946:	2802      	cmp	r0, #2
    1948:	d10f      	bne.n	0x196a
    194a:	9818      	ldr	r0, [sp, #96]	; 0x60
    194c:	f005 fb0e 	bl	0x6f6c
    1950:	900e      	str	r0, [sp, #56]	; 0x38
    1952:	9915      	ldr	r1, [sp, #84]	; 0x54
    1954:	f005 f98a 	bl	0x6c6c
    1958:	9015      	str	r0, [sp, #84]	; 0x54
    195a:	9819      	ldr	r0, [sp, #100]	; 0x64
    195c:	f005 fb06 	bl	0x6f6c
    1960:	900e      	str	r0, [sp, #56]	; 0x38
    1962:	9914      	ldr	r1, [sp, #80]	; 0x50
    1964:	f005 f982 	bl	0x6c6c
    1968:	9014      	str	r0, [sp, #80]	; 0x50
    196a:	48f5      	ldr	r0, [pc, #980]	; (0x1d40)
    196c:	6800      	ldr	r0, [r0, #0]
    196e:	2803      	cmp	r0, #3
    1970:	db0f      	blt.n	0x1992
    1972:	9816      	ldr	r0, [sp, #88]	; 0x58
    1974:	f005 fafa 	bl	0x6f6c
    1978:	900e      	str	r0, [sp, #56]	; 0x38
    197a:	9915      	ldr	r1, [sp, #84]	; 0x54
    197c:	f005 f976 	bl	0x6c6c
    1980:	9015      	str	r0, [sp, #84]	; 0x54
    1982:	9817      	ldr	r0, [sp, #92]	; 0x5c
    1984:	f005 faf2 	bl	0x6f6c
    1988:	900e      	str	r0, [sp, #56]	; 0x38
    198a:	9914      	ldr	r1, [sp, #80]	; 0x50
    198c:	f005 f96e 	bl	0x6c6c
    1990:	9014      	str	r0, [sp, #80]	; 0x50
    1992:	48eb      	ldr	r0, [pc, #940]	; (0x1d40)
    1994:	6840      	ldr	r0, [r0, #4]
    1996:	2801      	cmp	r0, #1
    1998:	d10f      	bne.n	0x19ba
    199a:	981a      	ldr	r0, [sp, #104]	; 0x68
    199c:	f005 fae6 	bl	0x6f6c
    19a0:	900e      	str	r0, [sp, #56]	; 0x38
    19a2:	9915      	ldr	r1, [sp, #84]	; 0x54
    19a4:	f005 fc32 	bl	0x720c
    19a8:	9015      	str	r0, [sp, #84]	; 0x54
    19aa:	981b      	ldr	r0, [sp, #108]	; 0x6c
    19ac:	f005 fade 	bl	0x6f6c
    19b0:	900e      	str	r0, [sp, #56]	; 0x38
    19b2:	9914      	ldr	r1, [sp, #80]	; 0x50
    19b4:	f005 fc2a 	bl	0x720c
    19b8:	9014      	str	r0, [sp, #80]	; 0x50
    19ba:	48e1      	ldr	r0, [pc, #900]	; (0x1d40)
    19bc:	6840      	ldr	r0, [r0, #4]
    19be:	2802      	cmp	r0, #2
    19c0:	d10f      	bne.n	0x19e2
    19c2:	9818      	ldr	r0, [sp, #96]	; 0x60
    19c4:	f005 fad2 	bl	0x6f6c
    19c8:	900e      	str	r0, [sp, #56]	; 0x38
    19ca:	9915      	ldr	r1, [sp, #84]	; 0x54
    19cc:	f005 fc1e 	bl	0x720c
    19d0:	9015      	str	r0, [sp, #84]	; 0x54
    19d2:	9819      	ldr	r0, [sp, #100]	; 0x64
    19d4:	f005 faca 	bl	0x6f6c
    19d8:	900e      	str	r0, [sp, #56]	; 0x38
    19da:	9914      	ldr	r1, [sp, #80]	; 0x50
    19dc:	f005 fc16 	bl	0x720c
    19e0:	9014      	str	r0, [sp, #80]	; 0x50
    19e2:	48d7      	ldr	r0, [pc, #860]	; (0x1d40)
    19e4:	6840      	ldr	r0, [r0, #4]
    19e6:	2803      	cmp	r0, #3
    19e8:	db0f      	blt.n	0x1a0a
    19ea:	9816      	ldr	r0, [sp, #88]	; 0x58
    19ec:	f005 fabe 	bl	0x6f6c
    19f0:	900e      	str	r0, [sp, #56]	; 0x38
    19f2:	9915      	ldr	r1, [sp, #84]	; 0x54
    19f4:	f005 fc0a 	bl	0x720c
    19f8:	9015      	str	r0, [sp, #84]	; 0x54
    19fa:	9817      	ldr	r0, [sp, #92]	; 0x5c
    19fc:	f005 fab6 	bl	0x6f6c
    1a00:	900e      	str	r0, [sp, #56]	; 0x38
    1a02:	9914      	ldr	r1, [sp, #80]	; 0x50
    1a04:	f005 fc02 	bl	0x720c
    1a08:	9014      	str	r0, [sp, #80]	; 0x50
    1a0a:	48ce      	ldr	r0, [pc, #824]	; (0x1d44)
    1a0c:	6800      	ldr	r0, [r0, #0]
    1a0e:	f005 faad 	bl	0x6f6c
    1a12:	900c      	str	r0, [sp, #48]	; 0x30
    1a14:	981c      	ldr	r0, [sp, #112]	; 0x70
    1a16:	f005 faa9 	bl	0x6f6c
    1a1a:	900a      	str	r0, [sp, #40]	; 0x28
    1a1c:	9915      	ldr	r1, [sp, #84]	; 0x54
    1a1e:	f005 fbf5 	bl	0x720c
    1a22:	900b      	str	r0, [sp, #44]	; 0x2c
    1a24:	990c      	ldr	r1, [sp, #48]	; 0x30
    1a26:	f005 faed 	bl	0x7004
    1a2a:	49c7      	ldr	r1, [pc, #796]	; (0x1d48)
    1a2c:	900d      	str	r0, [sp, #52]	; 0x34
    1a2e:	f005 f98b 	bl	0x6d48
    1a32:	49c6      	ldr	r1, [pc, #792]	; (0x1d4c)
    1a34:	900e      	str	r0, [sp, #56]	; 0x38
    1a36:	f005 f987 	bl	0x6d48
    1a3a:	9015      	str	r0, [sp, #84]	; 0x54
    1a3c:	9915      	ldr	r1, [sp, #84]	; 0x54
    1a3e:	4608      	mov	r0, r1
    1a40:	f005 fae0 	bl	0x7004
    1a44:	f04f 4180 	mov.w	r1, #1073741824	; 0x40000000
    1a48:	900d      	str	r0, [sp, #52]	; 0x34
    1a4a:	f005 f97d 	bl	0x6d48
    1a4e:	f04f 517e 	mov.w	r1, #1065353216	; 0x3f800000
    1a52:	900e      	str	r0, [sp, #56]	; 0x38
    1a54:	f005 fbda 	bl	0x720c
    1a58:	9013      	str	r0, [sp, #76]	; 0x4c
    1a5a:	982c      	ldr	r0, [sp, #176]	; 0xb0
    1a5c:	902a      	str	r0, [sp, #168]	; 0xa8
    1a5e:	9914      	ldr	r1, [sp, #80]	; 0x50
    1a60:	982d      	ldr	r0, [sp, #180]	; 0xb4
    1a62:	f005 facf 	bl	0x7004
    1a66:	49ba      	ldr	r1, [pc, #744]	; (0x1d50)
    1a68:	900d      	str	r0, [sp, #52]	; 0x34
    1a6a:	f005 f96d 	bl	0x6d48
    1a6e:	900e      	str	r0, [sp, #56]	; 0x38
    1a70:	992d      	ldr	r1, [sp, #180]	; 0xb4
    1a72:	f005 f8fb 	bl	0x6c6c
    1a76:	902d      	str	r0, [sp, #180]	; 0xb4
    1a78:	9915      	ldr	r1, [sp, #84]	; 0x54
    1a7a:	982b      	ldr	r0, [sp, #172]	; 0xac
    1a7c:	f005 fac2 	bl	0x7004
    1a80:	900e      	str	r0, [sp, #56]	; 0x38
    1a82:	9913      	ldr	r1, [sp, #76]	; 0x4c
    1a84:	982a      	ldr	r0, [sp, #168]	; 0xa8
    1a86:	f005 fabd 	bl	0x7004
    1a8a:	900d      	str	r0, [sp, #52]	; 0x34
    1a8c:	990e      	ldr	r1, [sp, #56]	; 0x38
    1a8e:	f005 fbc7 	bl	0x7220
    1a92:	902c      	str	r0, [sp, #176]	; 0xb0
    1a94:	9913      	ldr	r1, [sp, #76]	; 0x4c
    1a96:	982b      	ldr	r0, [sp, #172]	; 0xac
    1a98:	f005 fab4 	bl	0x7004
    1a9c:	900e      	str	r0, [sp, #56]	; 0x38
    1a9e:	9915      	ldr	r1, [sp, #84]	; 0x54
    1aa0:	982a      	ldr	r0, [sp, #168]	; 0xa8
    1aa2:	f005 faaf 	bl	0x7004
    1aa6:	900d      	str	r0, [sp, #52]	; 0x34
    1aa8:	990e      	ldr	r1, [sp, #56]	; 0x38
    1aaa:	f005 f8df 	bl	0x6c6c
    1aae:	902b      	str	r0, [sp, #172]	; 0xac
    1ab0:	982f      	ldr	r0, [sp, #188]	; 0xbc
    1ab2:	2814      	cmp	r0, #20
    1ab4:	d141      	bne.n	0x1b3a
    1ab6:	48a7      	ldr	r0, [pc, #668]	; (0x1d54)
    1ab8:	6800      	ldr	r0, [r0, #0]
    1aba:	2803      	cmp	r0, #3
    1abc:	d124      	bne.n	0x1b08
    1abe:	992b      	ldr	r1, [sp, #172]	; 0xac
    1ac0:	4608      	mov	r0, r1
    1ac2:	f005 fa9f 	bl	0x7004
    1ac6:	900d      	str	r0, [sp, #52]	; 0x34
    1ac8:	992c      	ldr	r1, [sp, #176]	; 0xb0
    1aca:	4608      	mov	r0, r1
    1acc:	f005 fa9a 	bl	0x7004
    1ad0:	900c      	str	r0, [sp, #48]	; 0x30
    1ad2:	990d      	ldr	r1, [sp, #52]	; 0x34
    1ad4:	f005 f8ca 	bl	0x6c6c
    1ad8:	900e      	str	r0, [sp, #56]	; 0x38
    1ada:	992d      	ldr	r1, [sp, #180]	; 0xb4
    1adc:	f005 f934 	bl	0x6d48
    1ae0:	902d      	str	r0, [sp, #180]	; 0xb4
    1ae2:	e9dd 012c 	ldrd	r0, r1, [sp, #176]	; 0xb0
    1ae6:	f005 f92f 	bl	0x6d48
    1aea:	499b      	ldr	r1, [pc, #620]	; (0x1d58)
    1aec:	4a9b      	ldr	r2, [pc, #620]	; (0x1d5c)
    1aee:	6812      	ldr	r2, [r2, #0]
    1af0:	f841 0022 	str.w	r0, [r1, r2, lsl #2]
    1af4:	992d      	ldr	r1, [sp, #180]	; 0xb4
    1af6:	982b      	ldr	r0, [sp, #172]	; 0xac
    1af8:	f005 f926 	bl	0x6d48
    1afc:	4996      	ldr	r1, [pc, #600]	; (0x1d58)
    1afe:	3118      	adds	r1, #24
    1b00:	4a96      	ldr	r2, [pc, #600]	; (0x1d5c)
    1b02:	6812      	ldr	r2, [r2, #0]
    1b04:	f841 0022 	str.w	r0, [r1, r2, lsl #2]
    1b08:	4892      	ldr	r0, [pc, #584]	; (0x1d54)
    1b0a:	6800      	ldr	r0, [r0, #0]
    1b0c:	b998      	cbnz	r0, 0x1b36
    1b0e:	e9dd 012c 	ldrd	r0, r1, [sp, #176]	; 0xb0
    1b12:	f005 f919 	bl	0x6d48
    1b16:	4990      	ldr	r1, [pc, #576]	; (0x1d58)
    1b18:	3930      	subs	r1, #48	; 0x30
    1b1a:	4a90      	ldr	r2, [pc, #576]	; (0x1d5c)
    1b1c:	6812      	ldr	r2, [r2, #0]
    1b1e:	f841 0022 	str.w	r0, [r1, r2, lsl #2]
    1b22:	992d      	ldr	r1, [sp, #180]	; 0xb4
    1b24:	982b      	ldr	r0, [sp, #172]	; 0xac
    1b26:	f005 f90f 	bl	0x6d48
    1b2a:	498b      	ldr	r1, [pc, #556]	; (0x1d58)
    1b2c:	3918      	subs	r1, #24
    1b2e:	4a8b      	ldr	r2, [pc, #556]	; (0x1d5c)
    1b30:	6812      	ldr	r2, [r2, #0]
    1b32:	f841 0022 	str.w	r0, [r1, r2, lsl #2]
    1b36:	b031      	add	sp, #196	; 0xc4
    1b38:	bd00      	pop	{pc}
    1b3a:	4887      	ldr	r0, [pc, #540]	; (0x1d58)
    1b3c:	3830      	subs	r0, #48	; 0x30
    1b3e:	4987      	ldr	r1, [pc, #540]	; (0x1d5c)
    1b40:	6809      	ldr	r1, [r1, #0]
    1b42:	f850 0021 	ldr.w	r0, [r0, r1, lsl #2]
    1b46:	900d      	str	r0, [sp, #52]	; 0x34
    1b48:	992d      	ldr	r1, [sp, #180]	; 0xb4
    1b4a:	f005 fa5b 	bl	0x7004
    1b4e:	900e      	str	r0, [sp, #56]	; 0x38
    1b50:	992c      	ldr	r1, [sp, #176]	; 0xb0
    1b52:	f005 fb5b 	bl	0x720c
    1b56:	902c      	str	r0, [sp, #176]	; 0xb0
    1b58:	487f      	ldr	r0, [pc, #508]	; (0x1d58)
    1b5a:	3818      	subs	r0, #24
    1b5c:	497f      	ldr	r1, [pc, #508]	; (0x1d5c)
    1b5e:	6809      	ldr	r1, [r1, #0]
    1b60:	f850 0021 	ldr.w	r0, [r0, r1, lsl #2]
    1b64:	900d      	str	r0, [sp, #52]	; 0x34
    1b66:	992d      	ldr	r1, [sp, #180]	; 0xb4
    1b68:	f005 fa4c 	bl	0x7004
    1b6c:	900e      	str	r0, [sp, #56]	; 0x38
    1b6e:	992b      	ldr	r1, [sp, #172]	; 0xac
    1b70:	f005 fb4c 	bl	0x720c
    1b74:	902b      	str	r0, [sp, #172]	; 0xac
    1b76:	992b      	ldr	r1, [sp, #172]	; 0xac
    1b78:	4608      	mov	r0, r1
    1b7a:	f005 fa43 	bl	0x7004
    1b7e:	900d      	str	r0, [sp, #52]	; 0x34
    1b80:	992c      	ldr	r1, [sp, #176]	; 0xb0
    1b82:	4608      	mov	r0, r1
    1b84:	f005 fa3e 	bl	0x7004
    1b88:	900c      	str	r0, [sp, #48]	; 0x30
    1b8a:	990d      	ldr	r1, [sp, #52]	; 0x34
    1b8c:	f005 f86e 	bl	0x6c6c
    1b90:	900e      	str	r0, [sp, #56]	; 0x38
    1b92:	992d      	ldr	r1, [sp, #180]	; 0xb4
    1b94:	f005 f8d8 	bl	0x6d48
    1b98:	902d      	str	r0, [sp, #180]	; 0xb4
    1b9a:	486f      	ldr	r0, [pc, #444]	; (0x1d58)
    1b9c:	496f      	ldr	r1, [pc, #444]	; (0x1d5c)
    1b9e:	6809      	ldr	r1, [r1, #0]
    1ba0:	f850 0021 	ldr.w	r0, [r0, r1, lsl #2]
    1ba4:	900d      	str	r0, [sp, #52]	; 0x34
    1ba6:	992d      	ldr	r1, [sp, #180]	; 0xb4
    1ba8:	f005 fa2c 	bl	0x7004
    1bac:	900e      	str	r0, [sp, #56]	; 0x38
    1bae:	992c      	ldr	r1, [sp, #176]	; 0xb0
    1bb0:	f005 fb2c 	bl	0x720c
    1bb4:	902c      	str	r0, [sp, #176]	; 0xb0
    1bb6:	4868      	ldr	r0, [pc, #416]	; (0x1d58)
    1bb8:	3018      	adds	r0, #24
    1bba:	4968      	ldr	r1, [pc, #416]	; (0x1d5c)
    1bbc:	6809      	ldr	r1, [r1, #0]
    1bbe:	f850 0021 	ldr.w	r0, [r0, r1, lsl #2]
    1bc2:	900d      	str	r0, [sp, #52]	; 0x34
    1bc4:	992d      	ldr	r1, [sp, #180]	; 0xb4
    1bc6:	f005 fa1d 	bl	0x7004
    1bca:	900e      	str	r0, [sp, #56]	; 0x38
    1bcc:	992b      	ldr	r1, [sp, #172]	; 0xac
    1bce:	f005 fb1d 	bl	0x720c
    1bd2:	902b      	str	r0, [sp, #172]	; 0xac
    1bd4:	992b      	ldr	r1, [sp, #172]	; 0xac
    1bd6:	4608      	mov	r0, r1
    1bd8:	f005 fa14 	bl	0x7004
    1bdc:	900d      	str	r0, [sp, #52]	; 0x34
    1bde:	992c      	ldr	r1, [sp, #176]	; 0xb0
    1be0:	4608      	mov	r0, r1
    1be2:	f005 fa0f 	bl	0x7004
    1be6:	900c      	str	r0, [sp, #48]	; 0x30
    1be8:	990d      	ldr	r1, [sp, #52]	; 0x34
    1bea:	f005 f83f 	bl	0x6c6c
    1bee:	900e      	str	r0, [sp, #56]	; 0x38
    1bf0:	992d      	ldr	r1, [sp, #180]	; 0xb4
    1bf2:	f005 f8a9 	bl	0x6d48
    1bf6:	902d      	str	r0, [sp, #180]	; 0xb4
    1bf8:	4852      	ldr	r0, [pc, #328]	; (0x1d44)
    1bfa:	6800      	ldr	r0, [r0, #0]
    1bfc:	f004 fbeb 	bl	0x63d6
    1c00:	4a57      	ldr	r2, [pc, #348]	; (0x1d60)
    1c02:	4b58      	ldr	r3, [pc, #352]	; (0x1d64)
    1c04:	e9cd 010a 	strd	r0, r1, [sp, #40]	; 0x28
    1c08:	f004 fc4c 	bl	0x64a4
    1c0c:	e9cd 010c 	strd	r0, r1, [sp, #48]	; 0x30
    1c10:	f004 f940 	bl	0x5e94
    1c14:	9029      	str	r0, [sp, #164]	; 0xa4
    1c16:	982d      	ldr	r0, [sp, #180]	; 0xb4
    1c18:	f004 fffc 	bl	0x6c14
    1c1c:	e9cd 010a 	strd	r0, r1, [sp, #40]	; 0x28
    1c20:	992b      	ldr	r1, [sp, #172]	; 0xac
    1c22:	4608      	mov	r0, r1
    1c24:	f005 f9ee 	bl	0x7004
    1c28:	9004      	str	r0, [sp, #16]
    1c2a:	992c      	ldr	r1, [sp, #176]	; 0xb0
    1c2c:	4608      	mov	r0, r1
    1c2e:	f005 f9e9 	bl	0x7004
    1c32:	9003      	str	r0, [sp, #12]
    1c34:	9904      	ldr	r1, [sp, #16]
    1c36:	f005 f819 	bl	0x6c6c
    1c3a:	9005      	str	r0, [sp, #20]
    1c3c:	f004 ffea 	bl	0x6c14
    1c40:	e9cd 0106 	strd	r0, r1, [sp, #24]
    1c44:	f004 f900 	bl	0x5e48
    1c48:	e9cd 0108 	strd	r0, r1, [sp, #32]
    1c4c:	e9dd 230a 	ldrd	r2, r3, [sp, #40]	; 0x28
    1c50:	f004 fa0c 	bl	0x606c
    1c54:	e9cd 010c 	strd	r0, r1, [sp, #48]	; 0x30
    1c58:	f004 f91c 	bl	0x5e94
    1c5c:	9027      	str	r0, [sp, #156]	; 0x9c
    1c5e:	f06f 0095 	mvn.w	r0, #149	; 0x95
    1c62:	900e      	str	r0, [sp, #56]	; 0x38
    1c64:	4840      	ldr	r0, [pc, #256]	; (0x1d68)
    1c66:	900d      	str	r0, [sp, #52]	; 0x34
    1c68:	2002      	movs	r0, #2
    1c6a:	900c      	str	r0, [sp, #48]	; 0x30
    1c6c:	2005      	movs	r0, #5
    1c6e:	900b      	str	r0, [sp, #44]	; 0x2c
    1c70:	2000      	movs	r0, #0
    1c72:	900a      	str	r0, [sp, #40]	; 0x28
    1c74:	4839      	ldr	r0, [pc, #228]	; (0x1d5c)
    1c76:	6800      	ldr	r0, [r0, #0]
    1c78:	b908      	cbnz	r0, 0x1c7e
    1c7a:	483c      	ldr	r0, [pc, #240]	; (0x1d6c)
    1c7c:	900a      	str	r0, [sp, #40]	; 0x28
    1c7e:	4837      	ldr	r0, [pc, #220]	; (0x1d5c)
    1c80:	6800      	ldr	r0, [r0, #0]
    1c82:	2801      	cmp	r0, #1
    1c84:	d101      	bne.n	0x1c8a
    1c86:	4839      	ldr	r0, [pc, #228]	; (0x1d6c)
    1c88:	900a      	str	r0, [sp, #40]	; 0x28
    1c8a:	4834      	ldr	r0, [pc, #208]	; (0x1d5c)
    1c8c:	6800      	ldr	r0, [r0, #0]
    1c8e:	2803      	cmp	r0, #3
    1c90:	d101      	bne.n	0x1c96
    1c92:	4837      	ldr	r0, [pc, #220]	; (0x1d70)
    1c94:	900a      	str	r0, [sp, #40]	; 0x28
    1c96:	4831      	ldr	r0, [pc, #196]	; (0x1d5c)
    1c98:	6800      	ldr	r0, [r0, #0]
    1c9a:	2804      	cmp	r0, #4
    1c9c:	d101      	bne.n	0x1ca2
    1c9e:	4834      	ldr	r0, [pc, #208]	; (0x1d70)
    1ca0:	900a      	str	r0, [sp, #40]	; 0x28
    1ca2:	992d      	ldr	r1, [sp, #180]	; 0xb4
    1ca4:	982b      	ldr	r0, [sp, #172]	; 0xac
    1ca6:	f005 f84f 	bl	0x6d48
    1caa:	9024      	str	r0, [sp, #144]	; 0x90
    1cac:	e9dd 012b 	ldrd	r0, r1, [sp, #172]	; 0xac
    1cb0:	f005 f84a 	bl	0x6d48
    1cb4:	9007      	str	r0, [sp, #28]
    1cb6:	f004 ffad 	bl	0x6c14
    1cba:	f021 4100 	bic.w	r1, r1, #2147483648	; 0x80000000
    1cbe:	e9cd 0108 	strd	r0, r1, [sp, #32]
    1cc2:	f004 f8e7 	bl	0x5e94
    1cc6:	9023      	str	r0, [sp, #140]	; 0x8c
    1cc8:	980d      	ldr	r0, [sp, #52]	; 0x34
    1cca:	f005 f94f 	bl	0x6f6c
    1cce:	9009      	str	r0, [sp, #36]	; 0x24
    1cd0:	9924      	ldr	r1, [sp, #144]	; 0x90
    1cd2:	f005 fa6a 	bl	0x71aa
    1cd6:	d203      	bcs.n	0x1ce0
    1cd8:	980d      	ldr	r0, [sp, #52]	; 0x34
    1cda:	f005 f947 	bl	0x6f6c
    1cde:	9024      	str	r0, [sp, #144]	; 0x90
    1ce0:	980e      	ldr	r0, [sp, #56]	; 0x38
    1ce2:	f005 f943 	bl	0x6f6c
    1ce6:	9009      	str	r0, [sp, #36]	; 0x24
    1ce8:	9924      	ldr	r1, [sp, #144]	; 0x90
    1cea:	f005 f957 	bl	0x6f9c
    1cee:	d203      	bcs.n	0x1cf8
    1cf0:	980e      	ldr	r0, [sp, #56]	; 0x38
    1cf2:	f005 f93b 	bl	0x6f6c
    1cf6:	9024      	str	r0, [sp, #144]	; 0x90
    1cf8:	980b      	ldr	r0, [sp, #44]	; 0x2c
    1cfa:	f005 f937 	bl	0x6f6c
    1cfe:	9009      	str	r0, [sp, #36]	; 0x24
    1d00:	9923      	ldr	r1, [sp, #140]	; 0x8c
    1d02:	f005 f94b 	bl	0x6f9c
    1d06:	d203      	bcs.n	0x1d10
    1d08:	980b      	ldr	r0, [sp, #44]	; 0x2c
    1d0a:	f005 f92f 	bl	0x6f6c
    1d0e:	9023      	str	r0, [sp, #140]	; 0x8c
    1d10:	980c      	ldr	r0, [sp, #48]	; 0x30
    1d12:	f005 f92b 	bl	0x6f6c
    1d16:	9009      	str	r0, [sp, #36]	; 0x24
    1d18:	9923      	ldr	r1, [sp, #140]	; 0x8c
    1d1a:	f005 fa46 	bl	0x71aa
    1d1e:	d203      	bcs.n	0x1d28
    1d20:	980c      	ldr	r0, [sp, #48]	; 0x30
    1d22:	f005 f923 	bl	0x6f6c
    1d26:	9023      	str	r0, [sp, #140]	; 0x8c
    1d28:	e9dd 010b 	ldrd	r0, r1, [sp, #44]	; 0x2c
    1d2c:	1a40      	subs	r0, r0, r1
    1d2e:	9005      	str	r0, [sp, #20]
    1d30:	f005 f91c 	bl	0x6f6c
    1d34:	9007      	str	r0, [sp, #28]
    1d36:	980c      	ldr	r0, [sp, #48]	; 0x30
    1d38:	f005 f918 	bl	0x6f6c
    1d3c:	9003      	str	r0, [sp, #12]
    1d3e:	e019      	b.n	0x1d74
    1d40:	0068      	lsls	r0, r5, #1
    1d42:	2000      	movs	r0, #0
    1d44:	0084      	lsls	r4, r0, #2
    1d46:	2000      	movs	r0, #0
    1d48:	6000      	str	r0, [r0, #0]
    1d4a:	46ea      	mov	sl, sp
    1d4c:	0000      	movs	r0, r0
    1d4e:	447a      	add	r2, pc
    1d50:	4000      	ands	r0, r0
    1d52:	461c      	mov	r4, r3
    1d54:	0074      	lsls	r4, r6, #1
    1d56:	2000      	movs	r0, #0
    1d58:	1070      	asrs	r0, r6, #1
    1d5a:	2000      	movs	r0, #0
    1d5c:	0088      	lsls	r0, r1, #2
    1d5e:	2000      	movs	r0, #0
    1d60:	d84a      	bhi.n	0x1df8
    1d62:	4d12      	ldr	r5, [pc, #72]	; (0x1dac)
    1d64:	21fb      	movs	r1, #251	; 0xfb
    1d66:	4019      	ands	r1, r3
    1d68:	fe0c ffff 	mcr2	15, 0, pc, cr12, cr15, {7}	; <UNPREDICTABLE>
    1d6c:	126f      	asrs	r7, r5, #9
    1d6e:	3a83      	subs	r2, #131	; 0x83
    1d70:	9ba6      	ldr	r3, [sp, #664]	; 0x298
    1d72:	bac4      	revsh	r4, r0
    1d74:	9923      	ldr	r1, [sp, #140]	; 0x8c
    1d76:	f005 fa49 	bl	0x720c
    1d7a:	9005      	str	r0, [sp, #20]
    1d7c:	e9dd 010d 	ldrd	r0, r1, [sp, #52]	; 0x34
    1d80:	1a40      	subs	r0, r0, r1
    1d82:	9001      	str	r0, [sp, #4]
    1d84:	f005 f8f2 	bl	0x6f6c
    1d88:	9003      	str	r0, [sp, #12]
    1d8a:	980e      	ldr	r0, [sp, #56]	; 0x38
    1d8c:	f005 f8ee 	bl	0x6f6c
    1d90:	9000      	str	r0, [sp, #0]
    1d92:	9924      	ldr	r1, [sp, #144]	; 0x90
    1d94:	f005 fa3a 	bl	0x720c
    1d98:	9001      	str	r0, [sp, #4]
    1d9a:	990a      	ldr	r1, [sp, #40]	; 0x28
    1d9c:	f005 f932 	bl	0x7004
    1da0:	9002      	str	r0, [sp, #8]
    1da2:	9903      	ldr	r1, [sp, #12]
    1da4:	f004 ffd0 	bl	0x6d48
    1da8:	9004      	str	r0, [sp, #16]
    1daa:	9905      	ldr	r1, [sp, #20]
    1dac:	f005 f92a 	bl	0x7004
    1db0:	9006      	str	r0, [sp, #24]
    1db2:	9907      	ldr	r1, [sp, #28]
    1db4:	f004 ffc8 	bl	0x6d48
    1db8:	f04f 517e 	mov.w	r1, #1065353216	; 0x3f800000
    1dbc:	9008      	str	r0, [sp, #32]
    1dbe:	f004 ff55 	bl	0x6c6c
    1dc2:	9009      	str	r0, [sp, #36]	; 0x24
    1dc4:	992b      	ldr	r1, [sp, #172]	; 0xac
    1dc6:	f005 f91d 	bl	0x7004
    1dca:	902b      	str	r0, [sp, #172]	; 0xac
    1dcc:	982f      	ldr	r0, [sp, #188]	; 0xbc
    1dce:	b1e0      	cbz	r0, 0x1e0a
    1dd0:	992b      	ldr	r1, [sp, #172]	; 0xac
    1dd2:	4608      	mov	r0, r1
    1dd4:	f005 f916 	bl	0x7004
    1dd8:	900d      	str	r0, [sp, #52]	; 0x34
    1dda:	992c      	ldr	r1, [sp, #176]	; 0xb0
    1ddc:	4608      	mov	r0, r1
    1dde:	f005 f911 	bl	0x7004
    1de2:	900c      	str	r0, [sp, #48]	; 0x30
    1de4:	990d      	ldr	r1, [sp, #52]	; 0x34
    1de6:	f004 ff41 	bl	0x6c6c
    1dea:	900e      	str	r0, [sp, #56]	; 0x38
    1dec:	992d      	ldr	r1, [sp, #180]	; 0xb4
    1dee:	f004 ffab 	bl	0x6d48
    1df2:	902d      	str	r0, [sp, #180]	; 0xb4
    1df4:	e9dd 102c 	ldrd	r1, r0, [sp, #176]	; 0xb0
    1df8:	f004 ffa6 	bl	0x6d48
    1dfc:	9025      	str	r0, [sp, #148]	; 0x94
    1dfe:	992b      	ldr	r1, [sp, #172]	; 0xac
    1e00:	982d      	ldr	r0, [sp, #180]	; 0xb4
    1e02:	f004 ffa1 	bl	0x6d48
    1e06:	9024      	str	r0, [sp, #144]	; 0x90
    1e08:	e009      	b.n	0x1e1e
    1e0a:	e9dd 012c 	ldrd	r0, r1, [sp, #176]	; 0xb0
    1e0e:	f004 ff9b 	bl	0x6d48
    1e12:	9025      	str	r0, [sp, #148]	; 0x94
    1e14:	992d      	ldr	r1, [sp, #180]	; 0xb4
    1e16:	982b      	ldr	r0, [sp, #172]	; 0xac
    1e18:	f004 ff96 	bl	0x6d48
    1e1c:	9024      	str	r0, [sp, #144]	; 0x90
    1e1e:	9924      	ldr	r1, [sp, #144]	; 0x90
    1e20:	9829      	ldr	r0, [sp, #164]	; 0xa4
    1e22:	f005 f8ef 	bl	0x7004
    1e26:	4601      	mov	r1, r0
    1e28:	900e      	str	r0, [sp, #56]	; 0x38
    1e2a:	48fb      	ldr	r0, [pc, #1004]	; (0x2218)
    1e2c:	f004 ff8c 	bl	0x6d48
    1e30:	9026      	str	r0, [sp, #152]	; 0x98
    1e32:	9929      	ldr	r1, [sp, #164]	; 0xa4
    1e34:	9824      	ldr	r0, [sp, #144]	; 0x90
    1e36:	f004 ff87 	bl	0x6d48
    1e3a:	9028      	str	r0, [sp, #160]	; 0xa0
    1e3c:	e9dd 012b 	ldrd	r0, r1, [sp, #172]	; 0xac
    1e40:	f004 ff82 	bl	0x6d48
    1e44:	900b      	str	r0, [sp, #44]	; 0x2c
    1e46:	f004 fee5 	bl	0x6c14
    1e4a:	f021 4100 	bic.w	r1, r1, #2147483648	; 0x80000000
    1e4e:	e9cd 010c 	strd	r0, r1, [sp, #48]	; 0x30
    1e52:	f004 f81f 	bl	0x5e94
    1e56:	9023      	str	r0, [sp, #140]	; 0x8c
    1e58:	2100      	movs	r1, #0
    1e5a:	982c      	ldr	r0, [sp, #176]	; 0xb0
    1e5c:	f005 f836 	bl	0x6ecc
    1e60:	d004      	beq.n	0x1e6c
    1e62:	49ee      	ldr	r1, [pc, #952]	; (0x221c)
    1e64:	9823      	ldr	r0, [sp, #140]	; 0x8c
    1e66:	f005 f9a0 	bl	0x71aa
    1e6a:	d201      	bcs.n	0x1e70
    1e6c:	48eb      	ldr	r0, [pc, #940]	; (0x221c)
    1e6e:	9023      	str	r0, [sp, #140]	; 0x8c
    1e70:	e9dd 102b 	ldrd	r1, r0, [sp, #172]	; 0xac
    1e74:	f004 ff68 	bl	0x6d48
    1e78:	900b      	str	r0, [sp, #44]	; 0x2c
    1e7a:	f004 fecb 	bl	0x6c14
    1e7e:	f021 4100 	bic.w	r1, r1, #2147483648	; 0x80000000
    1e82:	e9cd 010c 	strd	r0, r1, [sp, #48]	; 0x30
    1e86:	f004 f805 	bl	0x5e94
    1e8a:	9022      	str	r0, [sp, #136]	; 0x88
    1e8c:	2100      	movs	r1, #0
    1e8e:	982c      	ldr	r0, [sp, #176]	; 0xb0
    1e90:	f005 f81c 	bl	0x6ecc
    1e94:	d004      	beq.n	0x1ea0
    1e96:	49e1      	ldr	r1, [pc, #900]	; (0x221c)
    1e98:	9822      	ldr	r0, [sp, #136]	; 0x88
    1e9a:	f005 f986 	bl	0x71aa
    1e9e:	d201      	bcs.n	0x1ea4
    1ea0:	48de      	ldr	r0, [pc, #888]	; (0x221c)
    1ea2:	9022      	str	r0, [sp, #136]	; 0x88
    1ea4:	48de      	ldr	r0, [pc, #888]	; (0x2220)
    1ea6:	6800      	ldr	r0, [r0, #0]
    1ea8:	f004 fa95 	bl	0x63d6
    1eac:	4602      	mov	r2, r0
    1eae:	460b      	mov	r3, r1
    1eb0:	e9cd 0106 	strd	r0, r1, [sp, #24]
    1eb4:	2000      	movs	r0, #0
    1eb6:	49db      	ldr	r1, [pc, #876]	; (0x2224)
    1eb8:	f004 f8d8 	bl	0x606c
    1ebc:	e9cd 010a 	strd	r0, r1, [sp, #40]	; 0x28
    1ec0:	9820      	ldr	r0, [sp, #128]	; 0x80
    1ec2:	f004 fea7 	bl	0x6c14
    1ec6:	e9cd 0108 	strd	r0, r1, [sp, #32]
    1eca:	e9dd 230a 	ldrd	r2, r3, [sp, #40]	; 0x28
    1ece:	f004 fae9 	bl	0x64a4
    1ed2:	e9cd 010c 	strd	r0, r1, [sp, #48]	; 0x30
    1ed6:	f003 ffdd 	bl	0x5e94
    1eda:	9020      	str	r0, [sp, #128]	; 0x80
    1edc:	48d0      	ldr	r0, [pc, #832]	; (0x2220)
    1ede:	6800      	ldr	r0, [r0, #0]
    1ee0:	f004 fa79 	bl	0x63d6
    1ee4:	4602      	mov	r2, r0
    1ee6:	460b      	mov	r3, r1
    1ee8:	e9cd 0106 	strd	r0, r1, [sp, #24]
    1eec:	2000      	movs	r0, #0
    1eee:	49cd      	ldr	r1, [pc, #820]	; (0x2224)
    1ef0:	f004 f8bc 	bl	0x606c
    1ef4:	e9cd 010a 	strd	r0, r1, [sp, #40]	; 0x28
    1ef8:	981f      	ldr	r0, [sp, #124]	; 0x7c
    1efa:	f004 fe8b 	bl	0x6c14
    1efe:	e9cd 0108 	strd	r0, r1, [sp, #32]
    1f02:	e9dd 230a 	ldrd	r2, r3, [sp, #40]	; 0x28
    1f06:	f004 facd 	bl	0x64a4
    1f0a:	e9cd 010c 	strd	r0, r1, [sp, #48]	; 0x30
    1f0e:	f003 ffc1 	bl	0x5e94
    1f12:	901f      	str	r0, [sp, #124]	; 0x7c
    1f14:	48c4      	ldr	r0, [pc, #784]	; (0x2228)
    1f16:	6800      	ldr	r0, [r0, #0]
    1f18:	2801      	cmp	r0, #1
    1f1a:	dd09      	ble.n	0x1f30
    1f1c:	9826      	ldr	r0, [sp, #152]	; 0x98
    1f1e:	f004 fe79 	bl	0x6c14
    1f22:	4ac2      	ldr	r2, [pc, #776]	; (0x222c)
    1f24:	4bc2      	ldr	r3, [pc, #776]	; (0x2230)
    1f26:	e9cd 010c 	strd	r0, r1, [sp, #48]	; 0x30
    1f2a:	f004 fc61 	bl	0x67f0
    1f2e:	d30d      	bcc.n	0x1f4c
    1f30:	48bd      	ldr	r0, [pc, #756]	; (0x2228)
    1f32:	6800      	ldr	r0, [r0, #0]
    1f34:	2802      	cmp	r0, #2
    1f36:	da0b      	bge.n	0x1f50
    1f38:	9828      	ldr	r0, [sp, #160]	; 0xa0
    1f3a:	f004 fe6b 	bl	0x6c14
    1f3e:	4abd      	ldr	r2, [pc, #756]	; (0x2234)
    1f40:	4bbd      	ldr	r3, [pc, #756]	; (0x2238)
    1f42:	e9cd 010c 	strd	r0, r1, [sp, #48]	; 0x30
    1f46:	f004 fa71 	bl	0x642c
    1f4a:	d201      	bcs.n	0x1f50
    1f4c:	2043      	movs	r0, #67	; 0x43
    1f4e:	901e      	str	r0, [sp, #120]	; 0x78
    1f50:	9830      	ldr	r0, [sp, #192]	; 0xc0
    1f52:	2801      	cmp	r0, #1
    1f54:	d16d      	bne.n	0x2032
    1f56:	2000      	movs	r0, #0
    1f58:	f7fe faab 	bl	0x4b2
    1f5c:	9825      	ldr	r0, [sp, #148]	; 0x94
    1f5e:	f004 fe59 	bl	0x6c14
    1f62:	f021 4100 	bic.w	r1, r1, #2147483648	; 0x80000000
    1f66:	2200      	movs	r2, #0
    1f68:	4bb4      	ldr	r3, [pc, #720]	; (0x223c)
    1f6a:	e9cd 010c 	strd	r0, r1, [sp, #48]	; 0x30
    1f6e:	f004 fa5d 	bl	0x642c
    1f72:	d208      	bcs.n	0x1f86
    1f74:	2101      	movs	r1, #1
    1f76:	9a21      	ldr	r2, [sp, #132]	; 0x84
    1f78:	9825      	ldr	r0, [sp, #148]	; 0x94
    1f7a:	f7fe fc3d 	bl	0x7f8
    1f7e:	20f4      	movs	r0, #244	; 0xf4
    1f80:	f7fe faab 	bl	0x4da
    1f84:	e002      	b.n	0x1f8c
    1f86:	a0ae      	add	r0, pc, #696	; (adr r0, 0x2240)
    1f88:	f7fe fac3 	bl	0x512
    1f8c:	981e      	ldr	r0, [sp, #120]	; 0x78
    1f8e:	2843      	cmp	r0, #67	; 0x43
    1f90:	d108      	bne.n	0x1fa4
    1f92:	2104      	movs	r1, #4
    1f94:	9a1f      	ldr	r2, [sp, #124]	; 0x7c
    1f96:	9826      	ldr	r0, [sp, #152]	; 0x98
    1f98:	f7fe fc2e 	bl	0x7f8
    1f9c:	f2af 60f4 	subw	r0, pc, #1780	; 0x6f4
    1fa0:	f7fe fab7 	bl	0x512
    1fa4:	981e      	ldr	r0, [sp, #120]	; 0x78
    1fa6:	284c      	cmp	r0, #76	; 0x4c
    1fa8:	d107      	bne.n	0x1fba
    1faa:	2102      	movs	r1, #2
    1fac:	9a20      	ldr	r2, [sp, #128]	; 0x80
    1fae:	9828      	ldr	r0, [sp, #160]	; 0xa0
    1fb0:	f7fe fc22 	bl	0x7f8
    1fb4:	a0a5      	add	r0, pc, #660	; (adr r0, 0x224c)
    1fb6:	f7fe faac 	bl	0x512
    1fba:	2000      	movs	r0, #0
    1fbc:	f7fe fa83 	bl	0x4c6
    1fc0:	981e      	ldr	r0, [sp, #120]	; 0x78
    1fc2:	284c      	cmp	r0, #76	; 0x4c
    1fc4:	d004      	beq.n	0x1fd0
    1fc6:	49a2      	ldr	r1, [pc, #648]	; (0x2250)
    1fc8:	9822      	ldr	r0, [sp, #136]	; 0x88
    1fca:	f005 f8ee 	bl	0x71aa
    1fce:	d20a      	bcs.n	0x1fe6
    1fd0:	a0a0      	add	r0, pc, #640	; (adr r0, 0x2254)
    1fd2:	f7fe fa9e 	bl	0x512
    1fd6:	2300      	movs	r3, #0
    1fd8:	2202      	movs	r2, #2
    1fda:	4619      	mov	r1, r3
    1fdc:	9300      	str	r3, [sp, #0]
    1fde:	9823      	ldr	r0, [sp, #140]	; 0x8c
    1fe0:	f7fe faa4 	bl	0x52c
    1fe4:	e009      	b.n	0x1ffa
    1fe6:	a09c      	add	r0, pc, #624	; (adr r0, 0x2258)
    1fe8:	f7fe fa93 	bl	0x512
    1fec:	2300      	movs	r3, #0
    1fee:	2202      	movs	r2, #2
    1ff0:	4619      	mov	r1, r3
    1ff2:	9300      	str	r3, [sp, #0]
    1ff4:	9822      	ldr	r0, [sp, #136]	; 0x88
    1ff6:	f7fe fa99 	bl	0x52c
    1ffa:	a098      	add	r0, pc, #608	; (adr r0, 0x225c)
    1ffc:	f7fe fa89 	bl	0x512
    2000:	f7ff fabf 	bl	0x1582
    2004:	900e      	str	r0, [sp, #56]	; 0x38
    2006:	f7fe fa84 	bl	0x512
    200a:	4896      	ldr	r0, [pc, #600]	; (0x2264)
    200c:	6800      	ldr	r0, [r0, #0]
    200e:	b118      	cbz	r0, 0x2018
    2010:	a095      	add	r0, pc, #596	; (adr r0, 0x2268)
    2012:	f7fe fa7e 	bl	0x512
    2016:	e002      	b.n	0x201e
    2018:	a08c      	add	r0, pc, #560	; (adr r0, 0x224c)
    201a:	f7fe fa7a 	bl	0x512
    201e:	982f      	ldr	r0, [sp, #188]	; 0xbc
    2020:	b118      	cbz	r0, 0x202a
    2022:	a092      	add	r0, pc, #584	; (adr r0, 0x226c)
    2024:	f7fe fa75 	bl	0x512
    2028:	e002      	b.n	0x2030
    202a:	a091      	add	r0, pc, #580	; (adr r0, 0x2270)
    202c:	f7fe fa71 	bl	0x512
    2030:	e581      	b.n	0x1b36
    2032:	9830      	ldr	r0, [sp, #192]	; 0xc0
    2034:	280a      	cmp	r0, #10
    2036:	d172      	bne.n	0x211e
    2038:	2000      	movs	r0, #0
    203a:	f7fe fa3a 	bl	0x4b2
    203e:	a08d      	add	r0, pc, #564	; (adr r0, 0x2274)
    2040:	f7fe fa67 	bl	0x512
    2044:	9825      	ldr	r0, [sp, #148]	; 0x94
    2046:	f004 fde5 	bl	0x6c14
    204a:	f021 4100 	bic.w	r1, r1, #2147483648	; 0x80000000
    204e:	2200      	movs	r2, #0
    2050:	4b7a      	ldr	r3, [pc, #488]	; (0x223c)
    2052:	e9cd 010c 	strd	r0, r1, [sp, #48]	; 0x30
    2056:	f004 f9e9 	bl	0x642c
    205a:	d208      	bcs.n	0x206e
    205c:	2101      	movs	r1, #1
    205e:	9a21      	ldr	r2, [sp, #132]	; 0x84
    2060:	9825      	ldr	r0, [sp, #148]	; 0x94
    2062:	f7fe fbc9 	bl	0x7f8
    2066:	20f4      	movs	r0, #244	; 0xf4
    2068:	f7fe fa37 	bl	0x4da
    206c:	e002      	b.n	0x2074
    206e:	a082      	add	r0, pc, #520	; (adr r0, 0x2278)
    2070:	f7fe fa4f 	bl	0x512
    2074:	a083      	add	r0, pc, #524	; (adr r0, 0x2284)
    2076:	f7fe fa4c 	bl	0x512
    207a:	2000      	movs	r0, #0
    207c:	f7fe fa23 	bl	0x4c6
    2080:	981e      	ldr	r0, [sp, #120]	; 0x78
    2082:	2843      	cmp	r0, #67	; 0x43
    2084:	d10b      	bne.n	0x209e
    2086:	a082      	add	r0, pc, #520	; (adr r0, 0x2290)
    2088:	f7fe fa43 	bl	0x512
    208c:	2104      	movs	r1, #4
    208e:	9a1f      	ldr	r2, [sp, #124]	; 0x7c
    2090:	9826      	ldr	r0, [sp, #152]	; 0x98
    2092:	f7fe fbb1 	bl	0x7f8
    2096:	f2af 70ec 	subw	r0, pc, #2028	; 0x7ec
    209a:	f7fe fa3a 	bl	0x512
    209e:	981e      	ldr	r0, [sp, #120]	; 0x78
    20a0:	284c      	cmp	r0, #76	; 0x4c
    20a2:	d10a      	bne.n	0x20ba
    20a4:	a07b      	add	r0, pc, #492	; (adr r0, 0x2294)
    20a6:	f7fe fa34 	bl	0x512
    20aa:	2102      	movs	r1, #2
    20ac:	9a20      	ldr	r2, [sp, #128]	; 0x80
    20ae:	9828      	ldr	r0, [sp, #160]	; 0xa0
    20b0:	f7fe fba2 	bl	0x7f8
    20b4:	a065      	add	r0, pc, #404	; (adr r0, 0x224c)
    20b6:	f7fe fa2c 	bl	0x512
    20ba:	981e      	ldr	r0, [sp, #120]	; 0x78
    20bc:	284c      	cmp	r0, #76	; 0x4c
    20be:	d004      	beq.n	0x20ca
    20c0:	4963      	ldr	r1, [pc, #396]	; (0x2250)
    20c2:	9822      	ldr	r0, [sp, #136]	; 0x88
    20c4:	f005 f871 	bl	0x71aa
    20c8:	d208      	bcs.n	0x20dc
    20ca:	a073      	add	r0, pc, #460	; (adr r0, 0x2298)
    20cc:	f7fe fa21 	bl	0x512
    20d0:	2200      	movs	r2, #0
    20d2:	4611      	mov	r1, r2
    20d4:	9823      	ldr	r0, [sp, #140]	; 0x8c
    20d6:	f7fe fb8f 	bl	0x7f8
    20da:	e007      	b.n	0x20ec
    20dc:	a06f      	add	r0, pc, #444	; (adr r0, 0x229c)
    20de:	f7fe fa18 	bl	0x512
    20e2:	2200      	movs	r2, #0
    20e4:	4611      	mov	r1, r2
    20e6:	9822      	ldr	r0, [sp, #136]	; 0x88
    20e8:	f7fe fb86 	bl	0x7f8
    20ec:	2000      	movs	r0, #0
    20ee:	f7fe f9fc 	bl	0x4ea
    20f2:	a06b      	add	r0, pc, #428	; (adr r0, 0x22a0)
    20f4:	f7fe fa0d 	bl	0x512
    20f8:	9827      	ldr	r0, [sp, #156]	; 0x9c
    20fa:	f004 fd8b 	bl	0x6c14
    20fe:	2200      	movs	r2, #0
    2100:	4b4e      	ldr	r3, [pc, #312]	; (0x223c)
    2102:	e9cd 010c 	strd	r0, r1, [sp, #48]	; 0x30
    2106:	f004 f991 	bl	0x642c
    210a:	d209      	bcs.n	0x2120
    210c:	2101      	movs	r1, #1
    210e:	9a21      	ldr	r2, [sp, #132]	; 0x84
    2110:	9827      	ldr	r0, [sp, #156]	; 0x9c
    2112:	f7fe fb71 	bl	0x7f8
    2116:	20f4      	movs	r0, #244	; 0xf4
    2118:	f7fe f9df 	bl	0x4da
    211c:	e003      	b.n	0x2126
    211e:	e04b      	b.n	0x21b8
    2120:	a060      	add	r0, pc, #384	; (adr r0, 0x22a4)
    2122:	f7fe f9f6 	bl	0x512
    2126:	a062      	add	r0, pc, #392	; (adr r0, 0x22b0)
    2128:	f7fe f9f3 	bl	0x512
    212c:	982c      	ldr	r0, [sp, #176]	; 0xb0
    212e:	f004 fd71 	bl	0x6c14
    2132:	e9cd 0106 	strd	r0, r1, [sp, #24]
    2136:	982b      	ldr	r0, [sp, #172]	; 0xac
    2138:	f004 fd6c 	bl	0x6c14
    213c:	e9cd 0104 	strd	r0, r1, [sp, #16]
    2140:	e9dd 2306 	ldrd	r2, r3, [sp, #24]
    2144:	f003 fcc6 	bl	0x5ad4
    2148:	4a5a      	ldr	r2, [pc, #360]	; (0x22b4)
    214a:	4b5b      	ldr	r3, [pc, #364]	; (0x22b8)
    214c:	e9cd 0108 	strd	r0, r1, [sp, #32]
    2150:	f003 ff8c 	bl	0x606c
    2154:	2200      	movs	r2, #0
    2156:	4b59      	ldr	r3, [pc, #356]	; (0x22bc)
    2158:	e9cd 010a 	strd	r0, r1, [sp, #40]	; 0x28
    215c:	f004 f9a2 	bl	0x64a4
    2160:	e9cd 010c 	strd	r0, r1, [sp, #48]	; 0x30
    2164:	f003 fe96 	bl	0x5e94
    2168:	2200      	movs	r2, #0
    216a:	4611      	mov	r1, r2
    216c:	900e      	str	r0, [sp, #56]	; 0x38
    216e:	f7fe fb43 	bl	0x7f8
    2172:	2000      	movs	r0, #0
    2174:	f7fe f9c3 	bl	0x4fe
    2178:	a051      	add	r0, pc, #324	; (adr r0, 0x22c0)
    217a:	f7fe f9ca 	bl	0x512
    217e:	f7ff fa00 	bl	0x1582
    2182:	900e      	str	r0, [sp, #56]	; 0x38
    2184:	f7fe f9c5 	bl	0x512
    2188:	4836      	ldr	r0, [pc, #216]	; (0x2264)
    218a:	6800      	ldr	r0, [r0, #0]
    218c:	b118      	cbz	r0, 0x2196
    218e:	a036      	add	r0, pc, #216	; (adr r0, 0x2268)
    2190:	f7fe f9bf 	bl	0x512
    2194:	e002      	b.n	0x219c
    2196:	a02d      	add	r0, pc, #180	; (adr r0, 0x224c)
    2198:	f7fe f9bb 	bl	0x512
    219c:	f6af 00d4 	subw	r0, pc, #2260	; 0x8d4
    21a0:	f7fe f9b7 	bl	0x512
    21a4:	982f      	ldr	r0, [sp, #188]	; 0xbc
    21a6:	b118      	cbz	r0, 0x21b0
    21a8:	a046      	add	r0, pc, #280	; (adr r0, 0x22c4)
    21aa:	f7fe f9b2 	bl	0x512
    21ae:	e002      	b.n	0x21b6
    21b0:	a047      	add	r0, pc, #284	; (adr r0, 0x22d0)
    21b2:	f7fe f9ae 	bl	0x512
    21b6:	e4be      	b.n	0x1b36
    21b8:	9830      	ldr	r0, [sp, #192]	; 0xc0
    21ba:	2802      	cmp	r0, #2
    21bc:	d114      	bne.n	0x21e8
    21be:	2000      	movs	r0, #0
    21c0:	f7fe f981 	bl	0x4c6
    21c4:	2101      	movs	r1, #1
    21c6:	9a21      	ldr	r2, [sp, #132]	; 0x84
    21c8:	9825      	ldr	r0, [sp, #148]	; 0x94
    21ca:	f7fe fb15 	bl	0x7f8
    21ce:	a043      	add	r0, pc, #268	; (adr r0, 0x22dc)
    21d0:	f7fe f99f 	bl	0x512
    21d4:	e9dd 012b 	ldrd	r0, r1, [sp, #172]	; 0xac
    21d8:	f004 fdb6 	bl	0x6d48
    21dc:	2200      	movs	r2, #0
    21de:	4611      	mov	r1, r2
    21e0:	900e      	str	r0, [sp, #56]	; 0x38
    21e2:	f7fe fb09 	bl	0x7f8
    21e6:	e4a6      	b.n	0x1b36
    21e8:	9830      	ldr	r0, [sp, #192]	; 0xc0
    21ea:	2803      	cmp	r0, #3
    21ec:	d17b      	bne.n	0x22e6
    21ee:	2000      	movs	r0, #0
    21f0:	f7fe f969 	bl	0x4c6
    21f4:	4a3a      	ldr	r2, [pc, #232]	; (0x22e0)
    21f6:	2100      	movs	r1, #0
    21f8:	9824      	ldr	r0, [sp, #144]	; 0x90
    21fa:	f7fe fafd 	bl	0x7f8
    21fe:	a037      	add	r0, pc, #220	; (adr r0, 0x22dc)
    2200:	f7fe f987 	bl	0x512
    2204:	e9dd 012b 	ldrd	r0, r1, [sp, #172]	; 0xac
    2208:	f004 fd9e 	bl	0x6d48
    220c:	2200      	movs	r2, #0
    220e:	4611      	mov	r1, r2
    2210:	900e      	str	r0, [sp, #56]	; 0x38
    2212:	f7fe faf1 	bl	0x7f8
    2216:	e48e      	b.n	0x1b36
    2218:	0000      	movs	r0, r0
    221a:	bf80      	nop	{8}
    221c:	c000      	stmia	r0!, {}
    221e:	4479      	add	r1, pc
    2220:	0084      	lsls	r4, r0, #2
    2222:	2000      	movs	r0, #0
    2224:	8800      	ldrh	r0, [r0, #0]
    2226:	40c3      	lsrs	r3, r0
    2228:	0074      	lsls	r4, r6, #1
    222a:	2000      	movs	r0, #0
    222c:	ea11 812d 			; <UNDEFINED> instruction: 0xea11812d
    2230:	9799      	str	r7, [sp, #612]	; 0x264
    2232:	bd81      	pop	{r0, r7, pc}
    2234:	af48      	add	r7, sp, #288	; 0x120
    2236:	9abc      	ldr	r2, [sp, #752]	; 0x2f0
    2238:	d7f2      	bvc.n	0x2220
    223a:	be8a      	bkpt	0x008a
    223c:	12d0      	asrs	r0, r2, #11
    223e:	4163      	adcs	r3, r4
    2240:	3e52      	subs	r6, #82	; 0x52
    2242:	3031      	adds	r0, #49	; 0x31
    2244:	4d20      	ldr	r5, [pc, #128]	; (0x22c8)
    2246:	20f4      	movs	r0, #244	; 0xf4
    2248:	0000      	movs	r0, r0
    224a:	0000      	movs	r0, r0
    224c:	0048      	lsls	r0, r1, #1
    224e:	0000      	movs	r0, r0
    2250:	0000      	movs	r0, r0
    2252:	43fa      	mvns	r2, r7
    2254:	3d51      	subs	r5, #81	; 0x51
    2256:	0000      	movs	r0, r0
    2258:	3d44      	subs	r5, #68	; 0x44
    225a:	0000      	movs	r0, r0
    225c:	2020      	movs	r0, #32
    225e:	3d46      	subs	r5, #70	; 0x46
    2260:	0000      	movs	r0, r0
    2262:	0000      	movs	r0, r0
    2264:	0070      	lsls	r0, r6, #1
    2266:	2000      	movs	r0, #0
    2268:	0020      	movs	r0, r4
    226a:	0000      	movs	r0, r0
    226c:	0050      	lsls	r0, r2, #1
    226e:	0000      	movs	r0, r0
    2270:	0053      	lsls	r3, r2, #1
    2272:	0000      	movs	r0, r0
    2274:	3d52      	subs	r5, #82	; 0x52
    2276:	0000      	movs	r0, r0
    2278:	2020      	movs	r0, #32
    227a:	313e      	adds	r1, #62	; 0x3e
    227c:	2030      	movs	r0, #48	; 0x30
    227e:	f44d 0000 	orr.w	r0, sp, #8388608	; 0x800000
    2282:	0000      	movs	r0, r0
    2284:	2020      	movs	r0, #32
    2286:	2020      	movs	r0, #32
    2288:	685b      	ldr	r3, [r3, #4]
    228a:	7851      	ldrb	r1, [r2, #1]
    228c:	205d      	movs	r0, #93	; 0x5d
    228e:	0000      	movs	r0, r0
    2290:	3d43      	subs	r5, #67	; 0x43
    2292:	0000      	movs	r0, r0
    2294:	3d4c      	subs	r5, #76	; 0x4c
    2296:	0000      	movs	r0, r0
    2298:	5120      	str	r0, [r4, r4]
    229a:	003d      	movs	r5, r7
    229c:	4420      	add	r0, r4
    229e:	003d      	movs	r5, r7
    22a0:	3d5a      	subs	r5, #90	; 0x5a
    22a2:	0000      	movs	r0, r0
    22a4:	2d20      	cmp	r5, #32
    22a6:	2d2d      	cmp	r5, #45	; 0x2d
    22a8:	2d2d      	cmp	r5, #45	; 0x2d
    22aa:	f44d 0000 	orr.w	r0, sp, #8388608	; 0x800000
    22ae:	0000      	movs	r0, r0
    22b0:	f220 003d 			; <UNDEFINED> instruction: 0xf220003d
    22b4:	d84a      	bhi.n	0x234c
    22b6:	4d12      	ldr	r5, [pc, #72]	; (0x2300)
    22b8:	21fb      	movs	r1, #251	; 0xfb
    22ba:	4009      	ands	r1, r1
    22bc:	8000      	strh	r0, [r0, #0]
    22be:	4066      	eors	r6, r4
    22c0:	3d46      	subs	r5, #70	; 0x46
    22c2:	0020      	movs	r0, r4
    22c4:	3d6d      	subs	r5, #109	; 0x6d
    22c6:	6220      	str	r0, [r4, #32]
    22c8:	6e69      	ldr	r1, [r5, #100]	; 0x64
    22ca:	2067      	movs	r0, #103	; 0x67
    22cc:	0000      	movs	r0, r0
    22ce:	0000      	movs	r0, r0
    22d0:	3d6d      	subs	r5, #109	; 0x6d
    22d2:	6320      	str	r0, [r4, #48]	; 0x30
    22d4:	7568      	strb	r0, [r5, #21]
    22d6:	6e61      	ldr	r1, [r4, #100]	; 0x64
    22d8:	0000      	movs	r0, r0
    22da:	0000      	movs	r0, r0
    22dc:	20f4      	movs	r0, #244	; 0xf4
    22de:	0000      	movs	r0, r0
    22e0:	d70a      	bvc.n	0x22f8
    22e2:	3c23      	subs	r4, #35	; 0x23
    22e4:	e7ff      	b.n	0x22e6
    22e6:	9830      	ldr	r0, [sp, #192]	; 0xc0
    22e8:	2804      	cmp	r0, #4
    22ea:	d114      	bne.n	0x2316
    22ec:	2000      	movs	r0, #0
    22ee:	f7fe f8ea 	bl	0x4c6
    22f2:	4aff      	ldr	r2, [pc, #1020]	; (0x26f0)
    22f4:	2104      	movs	r1, #4
    22f6:	9826      	ldr	r0, [sp, #152]	; 0x98
    22f8:	f7fe fa7e 	bl	0x7f8
    22fc:	a0fd      	add	r0, pc, #1012	; (adr r0, 0x26f4)
    22fe:	f7fe f908 	bl	0x512
    2302:	e9dd 012b 	ldrd	r0, r1, [sp, #172]	; 0xac
    2306:	f004 fd1f 	bl	0x6d48
    230a:	2200      	movs	r2, #0
    230c:	4611      	mov	r1, r2
    230e:	900e      	str	r0, [sp, #56]	; 0x38
    2310:	f7fe fa72 	bl	0x7f8
    2314:	e40f      	b.n	0x1b36
    2316:	2000      	movs	r0, #0
    2318:	f7fe f8cb 	bl	0x4b2
    231c:	48f6      	ldr	r0, [pc, #984]	; (0x26f8)
    231e:	6800      	ldr	r0, [r0, #0]
    2320:	b118      	cbz	r0, 0x232a
    2322:	a0f6      	add	r0, pc, #984	; (adr r0, 0x26fc)
    2324:	f7fe f8f5 	bl	0x512
    2328:	e003      	b.n	0x2332
    232a:	f2af 00e0 	subw	r0, pc, #224	; 0xe0
    232e:	f7fe f8f0 	bl	0x512
    2332:	982f      	ldr	r0, [sp, #188]	; 0xbc
    2334:	b118      	cbz	r0, 0x233e
    2336:	a0f2      	add	r0, pc, #968	; (adr r0, 0x2700)
    2338:	f7fe f8eb 	bl	0x512
    233c:	e002      	b.n	0x2344
    233e:	a0f1      	add	r0, pc, #964	; (adr r0, 0x2704)
    2340:	f7fe f8e7 	bl	0x512
    2344:	982f      	ldr	r0, [sp, #188]	; 0xbc
    2346:	b150      	cbz	r0, 0x235e
    2348:	2101      	movs	r1, #1
    234a:	9a21      	ldr	r2, [sp, #132]	; 0x84
    234c:	9825      	ldr	r0, [sp, #148]	; 0x94
    234e:	f7fe fa53 	bl	0x7f8
    2352:	2101      	movs	r1, #1
    2354:	9a21      	ldr	r2, [sp, #132]	; 0x84
    2356:	9824      	ldr	r0, [sp, #144]	; 0x90
    2358:	f7fe fa4e 	bl	0x7f8
    235c:	e00a      	b.n	0x2374
    235e:	9b21      	ldr	r3, [sp, #132]	; 0x84
    2360:	9300      	str	r3, [sp, #0]
    2362:	2301      	movs	r3, #1
    2364:	461a      	mov	r2, r3
    2366:	e9dd 1024 	ldrd	r1, r0, [sp, #144]	; 0x90
    236a:	f7fe f8df 	bl	0x52c
    236e:	20f4      	movs	r0, #244	; 0xf4
    2370:	f7fe f8b3 	bl	0x4da
    2374:	2000      	movs	r0, #0
    2376:	f7fe f8a6 	bl	0x4c6
    237a:	f7ff f8dd 	bl	0x1538
    237e:	900e      	str	r0, [sp, #56]	; 0x38
    2380:	f7fe f8ab 	bl	0x4da
    2384:	f7ff f830 	bl	0x13e8
    2388:	900e      	str	r0, [sp, #56]	; 0x38
    238a:	f7fe f8a6 	bl	0x4da
    238e:	981e      	ldr	r0, [sp, #120]	; 0x78
    2390:	2843      	cmp	r0, #67	; 0x43
    2392:	d107      	bne.n	0x23a4
    2394:	2104      	movs	r1, #4
    2396:	9a1f      	ldr	r2, [sp, #124]	; 0x7c
    2398:	9826      	ldr	r0, [sp, #152]	; 0x98
    239a:	f7fe fa2d 	bl	0x7f8
    239e:	2046      	movs	r0, #70	; 0x46
    23a0:	f7fe f89b 	bl	0x4da
    23a4:	981e      	ldr	r0, [sp, #120]	; 0x78
    23a6:	284c      	cmp	r0, #76	; 0x4c
    23a8:	d107      	bne.n	0x23ba
    23aa:	2102      	movs	r1, #2
    23ac:	9a20      	ldr	r2, [sp, #128]	; 0x80
    23ae:	9828      	ldr	r0, [sp, #160]	; 0xa0
    23b0:	f7fe fa22 	bl	0x7f8
    23b4:	2048      	movs	r0, #72	; 0x48
    23b6:	f7fe f890 	bl	0x4da
    23ba:	2200      	movs	r2, #0
    23bc:	4611      	mov	r1, r2
    23be:	9823      	ldr	r0, [sp, #140]	; 0x8c
    23c0:	f7fe fa1a 	bl	0x7f8
    23c4:	48d0      	ldr	r0, [pc, #832]	; (0x2708)
    23c6:	7b80      	ldrb	r0, [r0, #14]
    23c8:	2801      	cmp	r0, #1
    23ca:	d119      	bne.n	0x2400
    23cc:	2010      	movs	r0, #16
    23ce:	f7fe f870 	bl	0x4b2
    23d2:	f6af 3008 	subw	r0, pc, #2824	; 0xb08
    23d6:	f7fe f89c 	bl	0x512
    23da:	2010      	movs	r0, #16
    23dc:	f7fe f873 	bl	0x4c6
    23e0:	f6af 3018 	subw	r0, pc, #2840	; 0xb18
    23e4:	f7fe f895 	bl	0x512
    23e8:	2000      	movs	r0, #0
    23ea:	f7fe f87e 	bl	0x4ea
    23ee:	a0c7      	add	r0, pc, #796	; (adr r0, 0x270c)
    23f0:	f7fe f88f 	bl	0x512
    23f4:	2000      	movs	r0, #0
    23f6:	f7fe f882 	bl	0x4fe
    23fa:	a0c4      	add	r0, pc, #784	; (adr r0, 0x270c)
    23fc:	f7fe f889 	bl	0x512
    2400:	bf00      	nop
    2402:	e615      	b.n	0x2030
    2404:	b510      	push	{r4, lr}
    2406:	4604      	mov	r4, r0
    2408:	4620      	mov	r0, r4
    240a:	f7fe feda 	bl	0x11c2
    240e:	48c5      	ldr	r0, [pc, #788]	; (0x2724)
    2410:	6800      	ldr	r0, [r0, #0]
    2412:	2801      	cmp	r0, #1
    2414:	d003      	beq.n	0x241e
    2416:	48c3      	ldr	r0, [pc, #780]	; (0x2724)
    2418:	6800      	ldr	r0, [r0, #0]
    241a:	2802      	cmp	r0, #2
    241c:	d103      	bne.n	0x2426
    241e:	48c2      	ldr	r0, [pc, #776]	; (0x2728)
    2420:	6800      	ldr	r0, [r0, #0]
    2422:	49c2      	ldr	r1, [pc, #776]	; (0x272c)
    2424:	6008      	str	r0, [r1, #0]
    2426:	48bf      	ldr	r0, [pc, #764]	; (0x2724)
    2428:	6800      	ldr	r0, [r0, #0]
    242a:	2803      	cmp	r0, #3
    242c:	d003      	beq.n	0x2436
    242e:	48bd      	ldr	r0, [pc, #756]	; (0x2724)
    2430:	6800      	ldr	r0, [r0, #0]
    2432:	2804      	cmp	r0, #4
    2434:	d103      	bne.n	0x243e
    2436:	48bc      	ldr	r0, [pc, #752]	; (0x2728)
    2438:	6800      	ldr	r0, [r0, #0]
    243a:	49bc      	ldr	r1, [pc, #752]	; (0x272c)
    243c:	6048      	str	r0, [r1, #4]
    243e:	bd10      	pop	{r4, pc}
    2440:	e92d 5ff0 	stmdb	sp!, {r4, r5, r6, r7, r8, r9, sl, fp, ip, lr}
    2444:	48ba      	ldr	r0, [pc, #744]	; (0x2730)
    2446:	6800      	ldr	r0, [r0, #0]
    2448:	1c40      	adds	r0, r0, #1
    244a:	49b9      	ldr	r1, [pc, #740]	; (0x2730)
    244c:	6008      	str	r0, [r1, #0]
    244e:	49b9      	ldr	r1, [pc, #740]	; (0x2734)
    2450:	6809      	ldr	r1, [r1, #0]
    2452:	4ab9      	ldr	r2, [pc, #740]	; (0x2738)
    2454:	6812      	ldr	r2, [r2, #0]
    2456:	4411      	add	r1, r2
    2458:	4288      	cmp	r0, r1
    245a:	d001      	beq.n	0x2460
    245c:	e8bd 9ff0 	ldmia.w	sp!, {r4, r5, r6, r7, r8, r9, sl, fp, ip, pc}
    2460:	48b3      	ldr	r0, [pc, #716]	; (0x2730)
    2462:	6800      	ldr	r0, [r0, #0]
    2464:	49b3      	ldr	r1, [pc, #716]	; (0x2734)
    2466:	6008      	str	r0, [r1, #0]
    2468:	2013      	movs	r0, #19
    246a:	49b3      	ldr	r1, [pc, #716]	; (0x2738)
    246c:	6008      	str	r0, [r1, #0]
    246e:	f7fe fc60 	bl	0xd32
    2472:	4607      	mov	r7, r0
    2474:	48ab      	ldr	r0, [pc, #684]	; (0x2724)
    2476:	6800      	ldr	r0, [r0, #0]
    2478:	b9b0      	cbnz	r0, 0x24a8
    247a:	48b0      	ldr	r0, [pc, #704]	; (0x273c)
    247c:	6800      	ldr	r0, [r0, #0]
    247e:	1a38      	subs	r0, r7, r0
    2480:	2864      	cmp	r0, #100	; 0x64
    2482:	dc04      	bgt.n	0x248e
    2484:	48ad      	ldr	r0, [pc, #692]	; (0x273c)
    2486:	6800      	ldr	r0, [r0, #0]
    2488:	1bc0      	subs	r0, r0, r7
    248a:	2864      	cmp	r0, #100	; 0x64
    248c:	dd0c      	ble.n	0x24a8
    248e:	f44f 7096 	mov.w	r0, #300	; 0x12c
    2492:	f7fd fec9 	bl	0x228
    2496:	f7fe fc4c 	bl	0xd32
    249a:	4607      	mov	r7, r0
    249c:	2000      	movs	r0, #0
    249e:	f7fe f808 	bl	0x4b2
    24a2:	a0a7      	add	r0, pc, #668	; (adr r0, 0x2740)
    24a4:	f7fe f835 	bl	0x512
    24a8:	48a4      	ldr	r0, [pc, #656]	; (0x273c)
    24aa:	499e      	ldr	r1, [pc, #632]	; (0x2724)
    24ac:	6809      	ldr	r1, [r1, #0]
    24ae:	f840 7021 	str.w	r7, [r0, r1, lsl #2]
    24b2:	499c      	ldr	r1, [pc, #624]	; (0x2724)
    24b4:	6809      	ldr	r1, [r1, #0]
    24b6:	f850 0021 	ldr.w	r0, [r0, r1, lsl #2]
    24ba:	f249 0188 	movw	r1, #37000	; 0x9088
    24be:	4288      	cmp	r0, r1
    24c0:	dd20      	ble.n	0x2504
    24c2:	488d      	ldr	r0, [pc, #564]	; (0x26f8)
    24c4:	6800      	ldr	r0, [r0, #0]
    24c6:	b1e8      	cbz	r0, 0x2504
    24c8:	2009      	movs	r0, #9
    24ca:	499b      	ldr	r1, [pc, #620]	; (0x2738)
    24cc:	6008      	str	r0, [r1, #0]
    24ce:	4896      	ldr	r0, [pc, #600]	; (0x2728)
    24d0:	6800      	ldr	r0, [r0, #0]
    24d2:	b130      	cbz	r0, 0x24e2
    24d4:	a09d      	add	r0, pc, #628	; (adr r0, 0x274c)
    24d6:	f7ff f8bc 	bl	0x1652
    24da:	2000      	movs	r0, #0
    24dc:	f7ff ff92 	bl	0x2404
    24e0:	e7bc      	b.n	0x245c
    24e2:	4890      	ldr	r0, [pc, #576]	; (0x2724)
    24e4:	6800      	ldr	r0, [r0, #0]
    24e6:	2802      	cmp	r0, #2
    24e8:	dd08      	ble.n	0x24fc
    24ea:	a09d      	add	r0, pc, #628	; (adr r0, 0x2760)
    24ec:	f7ff f8b1 	bl	0x1652
    24f0:	49a0      	ldr	r1, [pc, #640]	; (0x2774)
    24f2:	6809      	ldr	r1, [r1, #0]
    24f4:	1e48      	subs	r0, r1, #1
    24f6:	f7fe fe1c 	bl	0x1132
    24fa:	e7af      	b.n	0x245c
    24fc:	a09e      	add	r0, pc, #632	; (adr r0, 0x2778)
    24fe:	f7ff f8a8 	bl	0x1652
    2502:	e7ab      	b.n	0x245c
    2504:	488d      	ldr	r0, [pc, #564]	; (0x273c)
    2506:	4987      	ldr	r1, [pc, #540]	; (0x2724)
    2508:	6809      	ldr	r1, [r1, #0]
    250a:	f850 1021 	ldr.w	r1, [r0, r1, lsl #2]
    250e:	6800      	ldr	r0, [r0, #0]
    2510:	38c8      	subs	r0, #200	; 0xc8
    2512:	4281      	cmp	r1, r0
    2514:	da18      	bge.n	0x2548
    2516:	4883      	ldr	r0, [pc, #524]	; (0x2724)
    2518:	6800      	ldr	r0, [r0, #0]
    251a:	b1a8      	cbz	r0, 0x2548
    251c:	499b      	ldr	r1, [pc, #620]	; (0x278c)
    251e:	6809      	ldr	r1, [r1, #0]
    2520:	1c88      	adds	r0, r1, #2
    2522:	17c1      	asrs	r1, r0, #31
    2524:	eb00 7191 	add.w	r1, r0, r1, lsr #30
    2528:	1089      	asrs	r1, r1, #2
    252a:	eba0 0181 	sub.w	r1, r0, r1, lsl #2
    252e:	4a98      	ldr	r2, [pc, #608]	; (0x2790)
    2530:	4b7c      	ldr	r3, [pc, #496]	; (0x2724)
    2532:	681b      	ldr	r3, [r3, #0]
    2534:	f842 1023 	str.w	r1, [r2, r3, lsl #2]
    2538:	4611      	mov	r1, r2
    253a:	4a7a      	ldr	r2, [pc, #488]	; (0x2724)
    253c:	6812      	ldr	r2, [r2, #0]
    253e:	f851 0022 	ldr.w	r0, [r1, r2, lsl #2]
    2542:	f7fe f9ad 	bl	0x8a0
    2546:	e789      	b.n	0x245c
    2548:	4876      	ldr	r0, [pc, #472]	; (0x2724)
    254a:	6800      	ldr	r0, [r0, #0]
    254c:	1c40      	adds	r0, r0, #1
    254e:	4975      	ldr	r1, [pc, #468]	; (0x2724)
    2550:	6008      	str	r0, [r1, #0]
    2552:	2105      	movs	r1, #5
    2554:	fb90 f2f1 	sdiv	r2, r0, r1
    2558:	fb01 0012 	mls	r0, r1, r2, r0
    255c:	4971      	ldr	r1, [pc, #452]	; (0x2724)
    255e:	6008      	str	r0, [r1, #0]
    2560:	498b      	ldr	r1, [pc, #556]	; (0x2790)
    2562:	4a70      	ldr	r2, [pc, #448]	; (0x2724)
    2564:	6812      	ldr	r2, [r2, #0]
    2566:	f851 0022 	ldr.w	r0, [r1, r2, lsl #2]
    256a:	f7fe f999 	bl	0x8a0
    256e:	486d      	ldr	r0, [pc, #436]	; (0x2724)
    2570:	6800      	ldr	r0, [r0, #0]
    2572:	b928      	cbnz	r0, 0x2580
    2574:	2000      	movs	r0, #0
    2576:	f7fe fe83 	bl	0x1280
    257a:	2000      	movs	r0, #0
    257c:	f7fe fe21 	bl	0x11c2
    2580:	4868      	ldr	r0, [pc, #416]	; (0x2724)
    2582:	6800      	ldr	r0, [r0, #0]
    2584:	2801      	cmp	r0, #1
    2586:	d103      	bne.n	0x2590
    2588:	f7fe fe7a 	bl	0x1280
    258c:	4867      	ldr	r0, [pc, #412]	; (0x272c)
    258e:	6806      	ldr	r6, [r0, #0]
    2590:	4864      	ldr	r0, [pc, #400]	; (0x2724)
    2592:	6800      	ldr	r0, [r0, #0]
    2594:	2803      	cmp	r0, #3
    2596:	d104      	bne.n	0x25a2
    2598:	2002      	movs	r0, #2
    259a:	f7fe fe71 	bl	0x1280
    259e:	4863      	ldr	r0, [pc, #396]	; (0x272c)
    25a0:	6846      	ldr	r6, [r0, #4]
    25a2:	4860      	ldr	r0, [pc, #384]	; (0x2724)
    25a4:	6800      	ldr	r0, [r0, #0]
    25a6:	2801      	cmp	r0, #1
    25a8:	d004      	beq.n	0x25b4
    25aa:	485e      	ldr	r0, [pc, #376]	; (0x2724)
    25ac:	6800      	ldr	r0, [r0, #0]
    25ae:	2803      	cmp	r0, #3
    25b0:	d000      	beq.n	0x25b4
    25b2:	e753      	b.n	0x245c
    25b4:	4850      	ldr	r0, [pc, #320]	; (0x26f8)
    25b6:	6800      	ldr	r0, [r0, #0]
    25b8:	b918      	cbnz	r0, 0x25c2
    25ba:	4630      	mov	r0, r6
    25bc:	f7fe fe01 	bl	0x11c2
    25c0:	e74c      	b.n	0x245c
    25c2:	4858      	ldr	r0, [pc, #352]	; (0x2724)
    25c4:	6800      	ldr	r0, [r0, #0]
    25c6:	2801      	cmp	r0, #1
    25c8:	d13a      	bne.n	0x2640
    25ca:	485c      	ldr	r0, [pc, #368]	; (0x273c)
    25cc:	6840      	ldr	r0, [r0, #4]
    25ce:	495b      	ldr	r1, [pc, #364]	; (0x273c)
    25d0:	6889      	ldr	r1, [r1, #8]
    25d2:	4288      	cmp	r0, r1
    25d4:	dd05      	ble.n	0x25e2
    25d6:	4859      	ldr	r0, [pc, #356]	; (0x273c)
    25d8:	6840      	ldr	r0, [r0, #4]
    25da:	4958      	ldr	r1, [pc, #352]	; (0x273c)
    25dc:	6809      	ldr	r1, [r1, #0]
    25de:	1a40      	subs	r0, r0, r1
    25e0:	e004      	b.n	0x25ec
    25e2:	4856      	ldr	r0, [pc, #344]	; (0x273c)
    25e4:	6880      	ldr	r0, [r0, #8]
    25e6:	4955      	ldr	r1, [pc, #340]	; (0x273c)
    25e8:	6809      	ldr	r1, [r1, #0]
    25ea:	1a40      	subs	r0, r0, r1
    25ec:	4607      	mov	r7, r0
    25ee:	4861      	ldr	r0, [pc, #388]	; (0x2774)
    25f0:	6800      	ldr	r0, [r0, #0]
    25f2:	bb00      	cbnz	r0, 0x2636
    25f4:	4638      	mov	r0, r7
    25f6:	f003 feee 	bl	0x63d6
    25fa:	4604      	mov	r4, r0
    25fc:	2200      	movs	r2, #0
    25fe:	4b65      	ldr	r3, [pc, #404]	; (0x2794)
    2600:	f003 ff14 	bl	0x642c
    2604:	d201      	bcs.n	0x260a
    2606:	1cf6      	adds	r6, r6, #3
    2608:	e017      	b.n	0x263a
    260a:	4638      	mov	r0, r7
    260c:	f003 fee3 	bl	0x63d6
    2610:	4604      	mov	r4, r0
    2612:	2200      	movs	r2, #0
    2614:	4b60      	ldr	r3, [pc, #384]	; (0x2798)
    2616:	f003 ff09 	bl	0x642c
    261a:	d201      	bcs.n	0x2620
    261c:	1cb6      	adds	r6, r6, #2
    261e:	e00c      	b.n	0x263a
    2620:	4638      	mov	r0, r7
    2622:	f003 fed8 	bl	0x63d6
    2626:	4604      	mov	r4, r0
    2628:	2200      	movs	r2, #0
    262a:	4b5c      	ldr	r3, [pc, #368]	; (0x279c)
    262c:	f003 fefe 	bl	0x642c
    2630:	d203      	bcs.n	0x263a
    2632:	1c76      	adds	r6, r6, #1
    2634:	e001      	b.n	0x263a
    2636:	b106      	cbz	r6, 0x263a
    2638:	2600      	movs	r6, #0
    263a:	4630      	mov	r0, r6
    263c:	f7ff fee2 	bl	0x2404
    2640:	4838      	ldr	r0, [pc, #224]	; (0x2724)
    2642:	6800      	ldr	r0, [r0, #0]
    2644:	2803      	cmp	r0, #3
    2646:	d151      	bne.n	0x26ec
    2648:	483c      	ldr	r0, [pc, #240]	; (0x273c)
    264a:	68c0      	ldr	r0, [r0, #12]
    264c:	493b      	ldr	r1, [pc, #236]	; (0x273c)
    264e:	6909      	ldr	r1, [r1, #16]
    2650:	4288      	cmp	r0, r1
    2652:	dd05      	ble.n	0x2660
    2654:	4839      	ldr	r0, [pc, #228]	; (0x273c)
    2656:	68c0      	ldr	r0, [r0, #12]
    2658:	4938      	ldr	r1, [pc, #224]	; (0x273c)
    265a:	6809      	ldr	r1, [r1, #0]
    265c:	1a40      	subs	r0, r0, r1
    265e:	e004      	b.n	0x266a
    2660:	4836      	ldr	r0, [pc, #216]	; (0x273c)
    2662:	6900      	ldr	r0, [r0, #16]
    2664:	4935      	ldr	r1, [pc, #212]	; (0x273c)
    2666:	6809      	ldr	r1, [r1, #0]
    2668:	1a40      	subs	r0, r0, r1
    266a:	4607      	mov	r7, r0
    266c:	4841      	ldr	r0, [pc, #260]	; (0x2774)
    266e:	6800      	ldr	r0, [r0, #0]
    2670:	2803      	cmp	r0, #3
    2672:	d120      	bne.n	0x26b6
    2674:	4638      	mov	r0, r7
    2676:	f003 feae 	bl	0x63d6
    267a:	4604      	mov	r4, r0
    267c:	2200      	movs	r2, #0
    267e:	4b45      	ldr	r3, [pc, #276]	; (0x2794)
    2680:	f003 fed4 	bl	0x642c
    2684:	d201      	bcs.n	0x268a
    2686:	1cf6      	adds	r6, r6, #3
    2688:	e0c1      	b.n	0x280e
    268a:	4638      	mov	r0, r7
    268c:	f003 fea3 	bl	0x63d6
    2690:	4604      	mov	r4, r0
    2692:	2200      	movs	r2, #0
    2694:	4b40      	ldr	r3, [pc, #256]	; (0x2798)
    2696:	f003 fec9 	bl	0x642c
    269a:	d201      	bcs.n	0x26a0
    269c:	1cb6      	adds	r6, r6, #2
    269e:	e0b6      	b.n	0x280e
    26a0:	4638      	mov	r0, r7
    26a2:	f003 fe98 	bl	0x63d6
    26a6:	4604      	mov	r4, r0
    26a8:	2200      	movs	r2, #0
    26aa:	4b3c      	ldr	r3, [pc, #240]	; (0x279c)
    26ac:	f003 febe 	bl	0x642c
    26b0:	d200      	bcs.n	0x26b4
    26b2:	1c76      	adds	r6, r6, #1
    26b4:	e0ab      	b.n	0x280e
    26b6:	4810      	ldr	r0, [pc, #64]	; (0x26f8)
    26b8:	6800      	ldr	r0, [r0, #0]
    26ba:	b1b0      	cbz	r0, 0x26ea
    26bc:	4938      	ldr	r1, [pc, #224]	; (0x27a0)
    26be:	f851 0026 	ldr.w	r0, [r1, r6, lsl #2]
    26c2:	f004 faa7 	bl	0x6c14
    26c6:	4680      	mov	r8, r0
    26c8:	2200      	movs	r2, #0
    26ca:	4b36      	ldr	r3, [pc, #216]	; (0x27a4)
    26cc:	f003 feea 	bl	0x64a4
    26d0:	4682      	mov	sl, r0
    26d2:	468b      	mov	fp, r1
    26d4:	4638      	mov	r0, r7
    26d6:	f003 fe7e 	bl	0x63d6
    26da:	4604      	mov	r4, r0
    26dc:	4652      	mov	r2, sl
    26de:	465b      	mov	r3, fp
    26e0:	f003 fea4 	bl	0x642c
    26e4:	d268      	bcs.n	0x27b8
    26e6:	2000      	movs	r0, #0
    26e8:	e05e      	b.n	0x27a8
    26ea:	e083      	b.n	0x27f4
    26ec:	e092      	b.n	0x2814
    26ee:	e063      	b.n	0x27b8
    26f0:	2e13      	cmp	r6, #19
    26f2:	29e1      	cmp	r1, #225	; 0xe1
    26f4:	2046      	movs	r0, #70	; 0x46
    26f6:	0000      	movs	r0, r0
    26f8:	0070      	lsls	r0, r6, #1
    26fa:	2000      	movs	r0, #0
    26fc:	005a      	lsls	r2, r3, #1
    26fe:	0000      	movs	r0, r0
    2700:	0070      	lsls	r0, r6, #1
    2702:	0000      	movs	r0, r0
    2704:	0073      	lsls	r3, r6, #1
    2706:	0000      	movs	r0, r0
    2708:	1030      	asrs	r0, r6, #32
    270a:	2000      	movs	r0, #0
    270c:	2020      	movs	r0, #32
    270e:	2020      	movs	r0, #32
    2710:	2020      	movs	r0, #32
    2712:	2020      	movs	r0, #32
    2714:	2020      	movs	r0, #32
    2716:	2020      	movs	r0, #32
    2718:	2020      	movs	r0, #32
    271a:	2020      	movs	r0, #32
    271c:	2020      	movs	r0, #32
    271e:	2020      	movs	r0, #32
    2720:	0000      	movs	r0, r0
    2722:	0000      	movs	r0, r0
    2724:	0044      	lsls	r4, r0, #1
    2726:	2000      	movs	r0, #0
    2728:	0078      	lsls	r0, r7, #1
    272a:	2000      	movs	r0, #0
    272c:	0068      	lsls	r0, r5, #1
    272e:	2000      	movs	r0, #0
    2730:	004c      	lsls	r4, r1, #1
    2732:	2000      	movs	r0, #0
    2734:	0050      	lsls	r0, r2, #1
    2736:	2000      	movs	r0, #0
    2738:	0048      	lsls	r0, r1, #1
    273a:	2000      	movs	r0, #0
    273c:	101c      	asrs	r4, r3, #32
    273e:	2000      	movs	r0, #0
    2740:	657a      	str	r2, [r7, #84]	; 0x54
    2742:	6f72      	ldr	r2, [r6, #116]	; 0x74
    2744:	7220      	strb	r0, [r4, #8]
    2746:	6165      	str	r5, [r4, #20]
    2748:	2e64      	cmp	r6, #100	; 0x64
    274a:	0020      	movs	r0, r4
    274c:	6147      	str	r7, [r0, #20]
    274e:	6e69      	ldr	r1, [r5, #100]	; 0x64
    2750:	7420      	strb	r0, [r4, #16]
    2752:	6f6f      	ldr	r7, [r5, #116]	; 0x74
    2754:	6c20      	ldr	r0, [r4, #64]	; 0x40
    2756:	6761      	str	r1, [r4, #116]	; 0x74
    2758:	7265      	strb	r5, [r4, #9]
    275a:	2020      	movs	r0, #32
    275c:	0000      	movs	r0, r0
    275e:	0000      	movs	r0, r0
    2760:	6e52      	ldr	r2, [r2, #100]	; 0x64
    2762:	2067      	movs	r0, #103	; 0x67
    2764:	7420      	strb	r0, [r4, #16]
    2766:	6f6f      	ldr	r7, [r5, #116]	; 0x74
    2768:	6c20      	ldr	r0, [r4, #64]	; 0x40
    276a:	6761      	str	r1, [r4, #116]	; 0x74
    276c:	7265      	strb	r5, [r4, #9]
    276e:	2020      	movs	r0, #32
    2770:	0000      	movs	r0, r0
    2772:	0000      	movs	r0, r0
    2774:	0074      	lsls	r4, r6, #1
    2776:	2000      	movs	r0, #0
    2778:	6e53      	ldr	r3, [r2, #100]	; 0x64
    277a:	2067      	movs	r0, #103	; 0x67
    277c:	7420      	strb	r0, [r4, #16]
    277e:	6f6f      	ldr	r7, [r5, #116]	; 0x74
    2780:	6c20      	ldr	r0, [r4, #64]	; 0x40
    2782:	6761      	str	r1, [r4, #116]	; 0x74
    2784:	7265      	strb	r5, [r4, #9]
    2786:	2020      	movs	r0, #32
    2788:	0000      	movs	r0, r0
    278a:	0000      	movs	r0, r0
    278c:	0008      	movs	r0, r1
    278e:	2000      	movs	r0, #0
    2790:	0054      	lsls	r4, r2, #1
    2792:	2000      	movs	r0, #0
    2794:	1400      	asrs	r0, r0, #16
    2796:	4093      	lsls	r3, r2
    2798:	e800 40ac 			; <UNDEFINED> instruction: 0xe80040ac
    279c:	ae00      	add	r6, sp, #0
    279e:	40c5      	lsrs	r5, r0
    27a0:	0018      	movs	r0, r3
    27a2:	2000      	movs	r0, #0
    27a4:	d000      	beq.n	0x27a8
    27a6:	4074      	eors	r4, r6
    27a8:	f7ff fe2c 	bl	0x2404
    27ac:	48ff      	ldr	r0, [pc, #1020]	; (0x2bac)
    27ae:	6800      	ldr	r0, [r0, #0]
    27b0:	1c80      	adds	r0, r0, #2
    27b2:	f7fe fcbe 	bl	0x1132
    27b6:	e651      	b.n	0x245c
    27b8:	49fd      	ldr	r1, [pc, #1012]	; (0x2bb0)
    27ba:	f851 0026 	ldr.w	r0, [r1, r6, lsl #2]
    27be:	f004 fa29 	bl	0x6c14
    27c2:	4604      	mov	r4, r0
    27c4:	2200      	movs	r2, #0
    27c6:	4bfb      	ldr	r3, [pc, #1004]	; (0x2bb4)
    27c8:	f003 fe6c 	bl	0x64a4
    27cc:	4680      	mov	r8, r0
    27ce:	4689      	mov	r9, r1
    27d0:	4638      	mov	r0, r7
    27d2:	f003 fe00 	bl	0x63d6
    27d6:	4682      	mov	sl, r0
    27d8:	4642      	mov	r2, r8
    27da:	464b      	mov	r3, r9
    27dc:	f003 fe26 	bl	0x642c
    27e0:	d208      	bcs.n	0x27f4
    27e2:	2000      	movs	r0, #0
    27e4:	f7ff fe0e 	bl	0x2404
    27e8:	48f0      	ldr	r0, [pc, #960]	; (0x2bac)
    27ea:	6800      	ldr	r0, [r0, #0]
    27ec:	1c40      	adds	r0, r0, #1
    27ee:	f7fe fca0 	bl	0x1132
    27f2:	e633      	b.n	0x245c
    27f4:	2e01      	cmp	r6, #1
    27f6:	dd00      	ble.n	0x27fa
    27f8:	2600      	movs	r6, #0
    27fa:	4638      	mov	r0, r7
    27fc:	f003 fdeb 	bl	0x63d6
    2800:	4604      	mov	r4, r0
    2802:	2200      	movs	r2, #0
    2804:	4bec      	ldr	r3, [pc, #944]	; (0x2bb8)
    2806:	f003 fe11 	bl	0x642c
    280a:	d200      	bcs.n	0x280e
    280c:	2601      	movs	r6, #1
    280e:	4630      	mov	r0, r6
    2810:	f7ff fdf8 	bl	0x2404
    2814:	bf00      	nop
    2816:	e621      	b.n	0x245c
    2818:	b570      	push	{r4, r5, r6, lr}
    281a:	243c      	movs	r4, #60	; 0x3c
    281c:	48e7      	ldr	r0, [pc, #924]	; (0x2bbc)
    281e:	6800      	ldr	r0, [r0, #0]
    2820:	1c40      	adds	r0, r0, #1
    2822:	d002      	beq.n	0x282a
    2824:	48e6      	ldr	r0, [pc, #920]	; (0x2bc0)
    2826:	6800      	ldr	r0, [r0, #0]
    2828:	b100      	cbz	r0, 0x282c
    282a:	bd70      	pop	{r4, r5, r6, pc}
    282c:	48df      	ldr	r0, [pc, #892]	; (0x2bac)
    282e:	6800      	ldr	r0, [r0, #0]
    2830:	b188      	cbz	r0, 0x2856
    2832:	48de      	ldr	r0, [pc, #888]	; (0x2bac)
    2834:	6800      	ldr	r0, [r0, #0]
    2836:	2803      	cmp	r0, #3
    2838:	d00d      	beq.n	0x2856
    283a:	f7fd fe33 	bl	0x4a4
    283e:	a0e1      	add	r0, pc, #900	; (adr r0, 0x2bc4)
    2840:	f7fd fe67 	bl	0x512
    2844:	f44f 60fa 	mov.w	r0, #2000	; 0x7d0
    2848:	f7fd fcee 	bl	0x228
    284c:	f04f 30ff 	mov.w	r0, #4294967295	; 0xffffffff
    2850:	49da      	ldr	r1, [pc, #872]	; (0x2bbc)
    2852:	6008      	str	r0, [r1, #0]
    2854:	e7e9      	b.n	0x282a
    2856:	48d5      	ldr	r0, [pc, #852]	; (0x2bac)
    2858:	6800      	ldr	r0, [r0, #0]
    285a:	b900      	cbnz	r0, 0x285e
    285c:	2428      	movs	r4, #40	; 0x28
    285e:	48d3      	ldr	r0, [pc, #844]	; (0x2bac)
    2860:	6800      	ldr	r0, [r0, #0]
    2862:	2803      	cmp	r0, #3
    2864:	d100      	bne.n	0x2868
    2866:	243c      	movs	r4, #60	; 0x3c
    2868:	eb04 0084 	add.w	r0, r4, r4, lsl #2
    286c:	49d3      	ldr	r1, [pc, #844]	; (0x2bbc)
    286e:	6809      	ldr	r1, [r1, #0]
    2870:	4288      	cmp	r0, r1
    2872:	da0e      	bge.n	0x2892
    2874:	2001      	movs	r0, #1
    2876:	f7fe fbd1 	bl	0x101c
    287a:	a0d7      	add	r0, pc, #860	; (adr r0, 0x2bd8)
    287c:	f7fd fe49 	bl	0x512
    2880:	f44f 60fa 	mov.w	r0, #2000	; 0x7d0
    2884:	f7fd fcd0 	bl	0x228
    2888:	f04f 30ff 	mov.w	r0, #4294967295	; 0xffffffff
    288c:	49cb      	ldr	r1, [pc, #812]	; (0x2bbc)
    288e:	6008      	str	r0, [r1, #0]
    2890:	e7cb      	b.n	0x282a
    2892:	48ca      	ldr	r0, [pc, #808]	; (0x2bbc)
    2894:	6800      	ldr	r0, [r0, #0]
    2896:	fb90 f1f4 	sdiv	r1, r0, r4
    289a:	fb04 0011 	mls	r0, r4, r1, r0
    289e:	bb40      	cbnz	r0, 0x28f2
    28a0:	f7fd fe00 	bl	0x4a4
    28a4:	48c1      	ldr	r0, [pc, #772]	; (0x2bac)
    28a6:	6800      	ldr	r0, [r0, #0]
    28a8:	b910      	cbnz	r0, 0x28b0
    28aa:	a0cd      	add	r0, pc, #820	; (adr r0, 0x2be0)
    28ac:	f7fd fe31 	bl	0x512
    28b0:	48be      	ldr	r0, [pc, #760]	; (0x2bac)
    28b2:	6800      	ldr	r0, [r0, #0]
    28b4:	2803      	cmp	r0, #3
    28b6:	d102      	bne.n	0x28be
    28b8:	a0cd      	add	r0, pc, #820	; (adr r0, 0x2bf0)
    28ba:	f7fd fe2a 	bl	0x512
    28be:	2000      	movs	r0, #0
    28c0:	f7fd fe01 	bl	0x4c6
    28c4:	a0ce      	add	r0, pc, #824	; (adr r0, 0x2c00)
    28c6:	f7fd fe24 	bl	0x512
    28ca:	2105      	movs	r1, #5
    28cc:	48cd      	ldr	r0, [pc, #820]	; (0x2c04)
    28ce:	6800      	ldr	r0, [r0, #0]
    28d0:	f7fd ff9e 	bl	0x810
    28d4:	2100      	movs	r1, #0
    28d6:	2014      	movs	r0, #20
    28d8:	f7fe fede 	bl	0x1698
    28dc:	48ca      	ldr	r0, [pc, #808]	; (0x2c08)
    28de:	6800      	ldr	r0, [r0, #0]
    28e0:	1c40      	adds	r0, r0, #1
    28e2:	2106      	movs	r1, #6
    28e4:	fb90 f2f1 	sdiv	r2, r0, r1
    28e8:	fb01 0512 	mls	r5, r1, r2, r0
    28ec:	4628      	mov	r0, r5
    28ee:	f7fe f802 	bl	0x8f6
    28f2:	48b2      	ldr	r0, [pc, #712]	; (0x2bbc)
    28f4:	6800      	ldr	r0, [r0, #0]
    28f6:	1c40      	adds	r0, r0, #1
    28f8:	49b0      	ldr	r1, [pc, #704]	; (0x2bbc)
    28fa:	6008      	str	r0, [r1, #0]
    28fc:	bf00      	nop
    28fe:	e794      	b.n	0x282a
    2900:	f7fd fdd0 	bl	0x4a4
    2904:	e023      	b.n	0x294e
    2906:	48c1      	ldr	r0, [pc, #772]	; (0x2c0c)
    2908:	f04f 21e0 	mov.w	r1, #3758153728	; 0xe000e000
    290c:	6148      	str	r0, [r1, #20]
    290e:	2000      	movs	r0, #0
    2910:	6188      	str	r0, [r1, #24]
    2912:	2001      	movs	r0, #1
    2914:	6108      	str	r0, [r1, #16]
    2916:	f7fe fa0c 	bl	0xd32
    291a:	f04f 20e0 	mov.w	r0, #3758153728	; 0xe000e000
    291e:	6984      	ldr	r4, [r0, #24]
    2920:	48ba      	ldr	r0, [pc, #744]	; (0x2c0c)
    2922:	1b00      	subs	r0, r0, r4
    2924:	2109      	movs	r1, #9
    2926:	fbb0 f4f1 	udiv	r4, r0, r1
    292a:	2000      	movs	r0, #0
    292c:	f7fd fdcb 	bl	0x4c6
    2930:	2106      	movs	r1, #6
    2932:	4620      	mov	r0, r4
    2934:	f7fd ff6c 	bl	0x810
    2938:	a0b5      	add	r0, pc, #724	; (adr r0, 0x2c10)
    293a:	f7fd fdea 	bl	0x512
    293e:	200a      	movs	r0, #10
    2940:	f7fd fc6c 	bl	0x21c
    2944:	2000      	movs	r0, #0
    2946:	f04f 21e0 	mov.w	r1, #3758153728	; 0xe000e000
    294a:	6108      	str	r0, [r1, #16]
    294c:	6188      	str	r0, [r1, #24]
    294e:	e7da      	b.n	0x2906
    2950:	e92d 4ff0 	stmdb	sp!, {r4, r5, r6, r7, r8, r9, sl, fp, lr}
    2954:	b08b      	sub	sp, #44	; 0x2c
    2956:	2000      	movs	r0, #0
    2958:	4604      	mov	r4, r0
    295a:	4605      	mov	r5, r0
    295c:	2700      	movs	r7, #0
    295e:	900a      	str	r0, [sp, #40]	; 0x28
    2960:	49ac      	ldr	r1, [pc, #688]	; (0x2c14)
    2962:	6808      	ldr	r0, [r1, #0]
    2964:	f003 fd4e 	bl	0x6404
    2968:	2200      	movs	r2, #0
    296a:	4bab      	ldr	r3, [pc, #684]	; (0x2c18)
    296c:	e9cd 0106 	strd	r0, r1, [sp, #24]
    2970:	f003 fd98 	bl	0x64a4
    2974:	4622      	mov	r2, r4
    2976:	462b      	mov	r3, r5
    2978:	e9cd 0108 	strd	r0, r1, [sp, #32]
    297c:	f003 fabc 	bl	0x5ef8
    2980:	4604      	mov	r4, r0
    2982:	460d      	mov	r5, r1
    2984:	49a5      	ldr	r1, [pc, #660]	; (0x2c1c)
    2986:	f8d1 07ec 	ldr.w	r0, [r1, #2028]	; 0x7ec
    298a:	f003 fd3b 	bl	0x6404
    298e:	2200      	movs	r2, #0
    2990:	f04f 4380 	mov.w	r3, #1073741824	; 0x40000000
    2994:	e9cd 0106 	strd	r0, r1, [sp, #24]
    2998:	f003 fd84 	bl	0x64a4
    299c:	4622      	mov	r2, r4
    299e:	462b      	mov	r3, r5
    29a0:	e9cd 0108 	strd	r0, r1, [sp, #32]
    29a4:	f003 faa8 	bl	0x5ef8
    29a8:	4604      	mov	r4, r0
    29aa:	460d      	mov	r5, r1
    29ac:	499c      	ldr	r1, [pc, #624]	; (0x2c20)
    29ae:	6808      	ldr	r0, [r1, #0]
    29b0:	f003 fd28 	bl	0x6404
    29b4:	2200      	movs	r2, #0
    29b6:	4b9b      	ldr	r3, [pc, #620]	; (0x2c24)
    29b8:	e9cd 0106 	strd	r0, r1, [sp, #24]
    29bc:	f003 fd72 	bl	0x64a4
    29c0:	4622      	mov	r2, r4
    29c2:	462b      	mov	r3, r5
    29c4:	e9cd 0108 	strd	r0, r1, [sp, #32]
    29c8:	f003 fa96 	bl	0x5ef8
    29cc:	4604      	mov	r4, r0
    29ce:	460d      	mov	r5, r1
    29d0:	2200      	movs	r2, #0
    29d2:	4b95      	ldr	r3, [pc, #596]	; (0x2c28)
    29d4:	4620      	mov	r0, r4
    29d6:	4629      	mov	r1, r5
    29d8:	f003 f992 	bl	0x5d00
    29dc:	f021 4100 	bic.w	r1, r1, #2147483648	; 0x80000000
    29e0:	e9cd 0108 	strd	r0, r1, [sp, #32]
    29e4:	f003 fc9a 	bl	0x631c
    29e8:	4681      	mov	r9, r0
    29ea:	4890      	ldr	r0, [pc, #576]	; (0x2c2c)
    29ec:	4581      	cmp	r9, r0
    29ee:	da00      	bge.n	0x29f2
    29f0:	4481      	add	r9, r0
    29f2:	206b      	movs	r0, #107	; 0x6b
    29f4:	fb99 f1f0 	sdiv	r1, r9, r0
    29f8:	fb00 9611 	mls	r6, r0, r1, r9
    29fc:	4630      	mov	r0, r6
    29fe:	f003 fcea 	bl	0x63d6
    2a02:	e9cd 0100 	strd	r0, r1, [sp]
    2a06:	f003 f925 	bl	0x5c54
    2a0a:	e9cd 0104 	strd	r0, r1, [sp, #16]
    2a0e:	f242 603f 	movw	r0, #9791	; 0x263f
    2a12:	fb99 f1f0 	sdiv	r1, r9, r0
    2a16:	fb00 9611 	mls	r6, r0, r1, r9
    2a1a:	4630      	mov	r0, r6
    2a1c:	f003 fcdb 	bl	0x63d6
    2a20:	e9cd 0100 	strd	r0, r1, [sp]
    2a24:	f003 f9b8 	bl	0x5d98
    2a28:	e9cd 0102 	strd	r0, r1, [sp, #8]
    2a2c:	e9dd 2304 	ldrd	r2, r3, [sp, #16]
    2a30:	f003 fd38 	bl	0x64a4
    2a34:	f021 4100 	bic.w	r1, r1, #2147483648	; 0x80000000
    2a38:	2200      	movs	r2, #0
    2a3a:	4b7d      	ldr	r3, [pc, #500]	; (0x2c30)
    2a3c:	e9cd 0106 	strd	r0, r1, [sp, #24]
    2a40:	f003 fd30 	bl	0x64a4
    2a44:	e9cd 0108 	strd	r0, r1, [sp, #32]
    2a48:	f003 fc68 	bl	0x631c
    2a4c:	4682      	mov	sl, r0
    2a4e:	f7fe f9a4 	bl	0xd9a
    2a52:	b930      	cbnz	r0, 0x2a62
    2a54:	4877      	ldr	r0, [pc, #476]	; (0x2c34)
    2a56:	8980      	ldrh	r0, [r0, #12]
    2a58:	4550      	cmp	r0, sl
    2a5a:	d102      	bne.n	0x2a62
    2a5c:	b00b      	add	sp, #44	; 0x2c
    2a5e:	e8bd 8ff0 	ldmia.w	sp!, {r4, r5, r6, r7, r8, r9, sl, fp, pc}
    2a62:	f7fd fd1f 	bl	0x4a4
    2a66:	f7fe f998 	bl	0xd9a
    2a6a:	2804      	cmp	r0, #4
    2a6c:	d13c      	bne.n	0x2ae8
    2a6e:	f04f 0b00 	mov.w	fp, #0
    2a72:	e034      	b.n	0x2ade
    2a74:	4869      	ldr	r0, [pc, #420]	; (0x2c1c)
    2a76:	4458      	add	r0, fp
    2a78:	f8d0 07e8 	ldr.w	r0, [r0, #2024]	; 0x7e8
    2a7c:	b2c6      	uxtb	r6, r0
    2a7e:	4630      	mov	r0, r6
    2a80:	17f1      	asrs	r1, r6, #31
    2a82:	eb06 7111 	add.w	r1, r6, r1, lsr #28
    2a86:	1109      	asrs	r1, r1, #4
    2a88:	eba6 1101 	sub.w	r1, r6, r1, lsl #4
    2a8c:	b2c9      	uxtb	r1, r1
    2a8e:	9109      	str	r1, [sp, #36]	; 0x24
    2a90:	17f1      	asrs	r1, r6, #31
    2a92:	eb06 7111 	add.w	r1, r6, r1, lsr #28
    2a96:	110e      	asrs	r6, r1, #4
    2a98:	f1bb 0f06 	cmp.w	fp, #6
    2a9c:	d102      	bne.n	0x2aa4
    2a9e:	2000      	movs	r0, #0
    2aa0:	f7fd fd11 	bl	0x4c6
    2aa4:	2e09      	cmp	r6, #9
    2aa6:	dd05      	ble.n	0x2ab4
    2aa8:	f106 0037 	add.w	r0, r6, #55	; 0x37
    2aac:	b2c0      	uxtb	r0, r0
    2aae:	f7fd fd14 	bl	0x4da
    2ab2:	e004      	b.n	0x2abe
    2ab4:	f106 0030 	add.w	r0, r6, #48	; 0x30
    2ab8:	b2c0      	uxtb	r0, r0
    2aba:	f7fd fd0e 	bl	0x4da
    2abe:	9809      	ldr	r0, [sp, #36]	; 0x24
    2ac0:	2809      	cmp	r0, #9
    2ac2:	dd05      	ble.n	0x2ad0
    2ac4:	9809      	ldr	r0, [sp, #36]	; 0x24
    2ac6:	3037      	adds	r0, #55	; 0x37
    2ac8:	b2c0      	uxtb	r0, r0
    2aca:	f7fd fd06 	bl	0x4da
    2ace:	e004      	b.n	0x2ada
    2ad0:	9809      	ldr	r0, [sp, #36]	; 0x24
    2ad2:	3030      	adds	r0, #48	; 0x30
    2ad4:	b2c0      	uxtb	r0, r0
    2ad6:	f7fd fd00 	bl	0x4da
    2ada:	f10b 0b01 	add.w	fp, fp, #1
    2ade:	f1bb 0f0c 	cmp.w	fp, #12
    2ae2:	dbc7      	blt.n	0x2a74
    2ae4:	bf00      	nop
    2ae6:	e7fe      	b.n	0x2ae6
    2ae8:	2106      	movs	r1, #6
    2aea:	4648      	mov	r0, r9
    2aec:	f7fd fe90 	bl	0x810
    2af0:	a051      	add	r0, pc, #324	; (adr r0, 0x2c38)
    2af2:	f7fd fd0e 	bl	0x512
    2af6:	e02e      	b.n	0x2b56
    2af8:	980a      	ldr	r0, [sp, #40]	; 0x28
    2afa:	1c40      	adds	r0, r0, #1
    2afc:	900a      	str	r0, [sp, #40]	; 0x28
    2afe:	f7fe f9a9 	bl	0xe54
    2b02:	4680      	mov	r8, r0
    2b04:	f1b8 0f01 	cmp.w	r8, #1
    2b08:	d100      	bne.n	0x2b0c
    2b0a:	1e7f      	subs	r7, r7, #1
    2b0c:	f1b8 0f02 	cmp.w	r8, #2
    2b10:	d100      	bne.n	0x2b14
    2b12:	1c7f      	adds	r7, r7, #1
    2b14:	f1b8 0f03 	cmp.w	r8, #3
    2b18:	d102      	bne.n	0x2b20
    2b1a:	200a      	movs	r0, #10
    2b1c:	fb97 f7f0 	sdiv	r7, r7, r0
    2b20:	f1b8 0f04 	cmp.w	r8, #4
    2b24:	d102      	bne.n	0x2b2c
    2b26:	eb07 0087 	add.w	r0, r7, r7, lsl #2
    2b2a:	0047      	lsls	r7, r0, #1
    2b2c:	f1b8 0f06 	cmp.w	r8, #6
    2b30:	d100      	bne.n	0x2b34
    2b32:	e011      	b.n	0x2b58
    2b34:	211e      	movs	r1, #30
    2b36:	980a      	ldr	r0, [sp, #40]	; 0x28
    2b38:	fb90 f2f1 	sdiv	r2, r0, r1
    2b3c:	fb01 0012 	mls	r0, r1, r2, r0
    2b40:	b930      	cbnz	r0, 0x2b50
    2b42:	2000      	movs	r0, #0
    2b44:	f7fd fcbf 	bl	0x4c6
    2b48:	2105      	movs	r1, #5
    2b4a:	4638      	mov	r0, r7
    2b4c:	f7fd fe60 	bl	0x810
    2b50:	200a      	movs	r0, #10
    2b52:	f7fd fb69 	bl	0x228
    2b56:	e7cf      	b.n	0x2af8
    2b58:	bf00      	nop
    2b5a:	4557      	cmp	r7, sl
    2b5c:	d106      	bne.n	0x2b6c
    2b5e:	4935      	ldr	r1, [pc, #212]	; (0x2c34)
    2b60:	f8a1 a00c 	strh.w	sl, [r1, #12]
    2b64:	2001      	movs	r0, #1
    2b66:	f7fe fa59 	bl	0x101c
    2b6a:	e777      	b.n	0x2a5c
    2b6c:	f242 7010 	movw	r0, #10000	; 0x2710
    2b70:	fb99 f0f0 	sdiv	r0, r9, r0
    2b74:	42b8      	cmp	r0, r7
    2b76:	d100      	bne.n	0x2b7a
    2b78:	e770      	b.n	0x2a5c
    2b7a:	f7fd fc93 	bl	0x4a4
    2b7e:	bf00      	nop
    2b80:	e7fe      	b.n	0x2b80
    2b82:	b51f      	push	{r0, r1, r2, r3, r4, lr}
    2b84:	2400      	movs	r4, #0
    2b86:	46a0      	mov	r8, r4
    2b88:	2000      	movs	r0, #0
    2b8a:	9002      	str	r0, [sp, #8]
    2b8c:	f000 fc07 	bl	0x339e
    2b90:	f7fd fb97 	bl	0x2c2
    2b94:	f7fd fc4f 	bl	0x436
    2b98:	a128      	add	r1, pc, #160	; (adr r1, 0x2c3c)
    2b9a:	2000      	movs	r0, #0
    2b9c:	f7fd fe67 	bl	0x86e
    2ba0:	a129      	add	r1, pc, #164	; (adr r1, 0x2c48)
    2ba2:	2001      	movs	r0, #1
    2ba4:	f7fd fe63 	bl	0x86e
    2ba8:	e054      	b.n	0x2c54
    2baa:	0000      	movs	r0, r0
    2bac:	0074      	lsls	r4, r6, #1
    2bae:	2000      	movs	r0, #0
    2bb0:	0018      	movs	r0, r3
    2bb2:	2000      	movs	r0, #0
    2bb4:	0400      	lsls	r0, r0, #16
    2bb6:	40aa      	lsls	r2, r5
    2bb8:	ae00      	add	r6, sp, #0
    2bba:	40c5      	lsrs	r5, r0
    2bbc:	007c      	lsls	r4, r7, #1
    2bbe:	2000      	movs	r0, #0
    2bc0:	0044      	lsls	r4, r0, #1
    2bc2:	2000      	movs	r0, #0
    2bc4:	6f4e      	ldr	r6, [r1, #116]	; 0x74
    2bc6:	4f20      	ldr	r7, [pc, #128]	; (0x2c48)
    2bc8:	6570      	str	r0, [r6, #84]	; 0x54
    2bca:	206e      	movs	r0, #110	; 0x6e
    2bcc:	726f      	strb	r7, [r5, #9]
    2bce:	5320      	strh	r0, [r4, r4]
    2bd0:	6f68      	ldr	r0, [r5, #116]	; 0x74
    2bd2:	7472      	strb	r2, [r6, #17]
    2bd4:	0000      	movs	r0, r0
    2bd6:	0000      	movs	r0, r0
    2bd8:	5320      	strh	r0, [r4, r4]
    2bda:	7661      	strb	r1, [r4, #25]
    2bdc:	6465      	str	r5, [r4, #68]	; 0x44
    2bde:	0000      	movs	r0, r0
    2be0:	6853      	ldr	r3, [r2, #4]
    2be2:	726f      	strb	r7, [r5, #9]
    2be4:	2074      	movs	r0, #116	; 0x74
    2be6:	6c63      	ldr	r3, [r4, #68]	; 0x44
    2be8:	6165      	str	r5, [r4, #20]
    2bea:	2e72      	cmp	r6, #114	; 0x72
    2bec:	2e2e      	cmp	r6, #46	; 0x2e
    2bee:	0000      	movs	r0, r0
    2bf0:	704f      	strb	r7, [r1, #1]
    2bf2:	6e65      	ldr	r5, [r4, #100]	; 0x64
    2bf4:	2020      	movs	r0, #32
    2bf6:	6c63      	ldr	r3, [r4, #68]	; 0x44
    2bf8:	6165      	str	r5, [r4, #20]
    2bfa:	2e72      	cmp	r6, #114	; 0x72
    2bfc:	2e2e      	cmp	r6, #46	; 0x2e
    2bfe:	0000      	movs	r0, r0
    2c00:	3d46      	subs	r5, #70	; 0x46
    2c02:	0000      	movs	r0, r0
    2c04:	0084      	lsls	r4, r0, #2
    2c06:	2000      	movs	r0, #0
    2c08:	0088      	lsls	r0, r1, #2
    2c0a:	2000      	movs	r0, #0
    2c0c:	2400      	movs	r4, #0
    2c0e:	00f4      	lsls	r4, r6, #3
    2c10:	7375      	strb	r5, [r6, #13]
    2c12:	0000      	movs	r0, r0
    2c14:	f7e8 1fff 			; <UNDEFINED> instruction: 0xf7e81fff
    2c18:	0000      	movs	r0, r0
    2c1a:	401c      	ands	r4, r3
    2c1c:	f000 1fff 	and.w	pc, r0, #16711935	; 0xff00ff
    2c20:	f7f0 1fff 			; <UNDEFINED> instruction: 0xf7f01fff
    2c24:	0000      	movs	r0, r0
    2c26:	4022      	ands	r2, r4
    2c28:	b190      	cbz	r0, 0x2c50
    2c2a:	412d      	asrs	r5, r5
    2c2c:	86a0      	strh	r0, [r4, #52]	; 0x34
    2c2e:	0001      	movs	r1, r0
    2c30:	ffe0 40ef 	vmla.i32	q10, q8, d15[1]
    2c34:	1030      	asrs	r0, r6, #32
    2c36:	2000      	movs	r0, #0
    2c38:	562d      	ldrsb	r5, [r5, r0]
    2c3a:	0031      	movs	r1, r6
    2c3c:	0301      	lsls	r1, r0, #12
    2c3e:	1d01      	adds	r1, r0, #4
    2c40:	0101      	lsls	r1, r0, #4
    2c42:	0001      	movs	r1, r0
    2c44:	0000      	movs	r0, r0
    2c46:	0000      	movs	r0, r0
    2c48:	0301      	lsls	r1, r0, #12
    2c4a:	1d09      	adds	r1, r1, #4
    2c4c:	0109      	lsls	r1, r1, #4
    2c4e:	0001      	movs	r1, r0
    2c50:	0000      	movs	r0, r0
    2c52:	0000      	movs	r0, r0
    2c54:	f7fe fd18 	bl	0x1688
    2c58:	f7fe f801 	bl	0xc5e
    2c5c:	f7fe f82f 	bl	0xcbe
    2c60:	2003      	movs	r0, #3
    2c62:	f7fd fe48 	bl	0x8f6
    2c66:	2001      	movs	r0, #1
    2c68:	f7fe fa63 	bl	0x1132
    2c6c:	2000      	movs	r0, #0
    2c6e:	f7fe f9d5 	bl	0x101c
    2c72:	b2c0      	uxtb	r0, r0
    2c74:	9003      	str	r0, [sp, #12]
    2c76:	9803      	ldr	r0, [sp, #12]
    2c78:	b9a8      	cbnz	r0, 0x2ca6
    2c7a:	f7fd fc13 	bl	0x4a4
    2c7e:	a0fd      	add	r0, pc, #1012	; (adr r0, 0x3074)
    2c80:	f7fd fc47 	bl	0x512
    2c84:	2000      	movs	r0, #0
    2c86:	f7fd fc1e 	bl	0x4c6
    2c8a:	a0ff      	add	r0, pc, #1020	; (adr r0, 0x3088)
    2c8c:	f7fd fc41 	bl	0x512
    2c90:	bf00      	nop
    2c92:	f7fe f8df 	bl	0xe54
    2c96:	2800      	cmp	r0, #0
    2c98:	d0fb      	beq.n	0x2c92
    2c9a:	f7fe f90b 	bl	0xeb4
    2c9e:	f44f 70fa 	mov.w	r0, #500	; 0x1f4
    2ca2:	f7fd fac1 	bl	0x228
    2ca6:	f7fe f878 	bl	0xd9a
    2caa:	2801      	cmp	r0, #1
    2cac:	d136      	bne.n	0x2d1c
    2cae:	f7fd fbf9 	bl	0x4a4
    2cb2:	a0fa      	add	r0, pc, #1000	; (adr r0, 0x309c)
    2cb4:	f7fd fc2d 	bl	0x512
    2cb8:	e027      	b.n	0x2d0a
    2cba:	2000      	movs	r0, #0
    2cbc:	f7fd fc03 	bl	0x4c6
    2cc0:	48fa      	ldr	r0, [pc, #1000]	; (0x30ac)
    2cc2:	7b80      	ldrb	r0, [r0, #14]
    2cc4:	2801      	cmp	r0, #1
    2cc6:	d103      	bne.n	0x2cd0
    2cc8:	a0f9      	add	r0, pc, #996	; (adr r0, 0x30b0)
    2cca:	f7fd fc22 	bl	0x512
    2cce:	e002      	b.n	0x2cd6
    2cd0:	a0f9      	add	r0, pc, #996	; (adr r0, 0x30b8)
    2cd2:	f7fd fc1e 	bl	0x512
    2cd6:	f7fe f8bd 	bl	0xe54
    2cda:	4604      	mov	r4, r0
    2cdc:	2c02      	cmp	r4, #2
    2cde:	d10b      	bne.n	0x2cf8
    2ce0:	49f2      	ldr	r1, [pc, #968]	; (0x30ac)
    2ce2:	f991 100e 	ldrsb.w	r1, [r1, #14]
    2ce6:	1c48      	adds	r0, r1, #1
    2ce8:	eb00 71d0 	add.w	r1, r0, r0, lsr #31
    2cec:	1049      	asrs	r1, r1, #1
    2cee:	eba0 0141 	sub.w	r1, r0, r1, lsl #1
    2cf2:	b249      	sxtb	r1, r1
    2cf4:	4aed      	ldr	r2, [pc, #948]	; (0x30ac)
    2cf6:	7391      	strb	r1, [r2, #14]
    2cf8:	2c06      	cmp	r4, #6
    2cfa:	d103      	bne.n	0x2d04
    2cfc:	2001      	movs	r0, #1
    2cfe:	f7fe f98d 	bl	0x101c
    2d02:	e003      	b.n	0x2d0c
    2d04:	2032      	movs	r0, #50	; 0x32
    2d06:	f7fd fa8f 	bl	0x228
    2d0a:	e7d6      	b.n	0x2cba
    2d0c:	bf00      	nop
    2d0e:	a0ec      	add	r0, pc, #944	; (adr r0, 0x30c0)
    2d10:	f7fd fbff 	bl	0x512
    2d14:	f44f 60fa 	mov.w	r0, #2000	; 0x7d0
    2d18:	f7fd fa86 	bl	0x228
    2d1c:	f7ff fe18 	bl	0x2950
    2d20:	f7fe fada 	bl	0x12d8
    2d24:	e2c2      	b.n	0x32ac
    2d26:	1c7f      	adds	r7, r7, #1
    2d28:	f7fe f894 	bl	0xe54
    2d2c:	4604      	mov	r4, r0
    2d2e:	2c06      	cmp	r4, #6
    2d30:	d121      	bne.n	0x2d76
    2d32:	48e5      	ldr	r0, [pc, #916]	; (0x30c8)
    2d34:	6800      	ldr	r0, [r0, #0]
    2d36:	1c40      	adds	r0, r0, #1
    2d38:	2103      	movs	r1, #3
    2d3a:	fb90 f2f1 	sdiv	r2, r0, r1
    2d3e:	fb01 0012 	mls	r0, r1, r2, r0
    2d42:	49e1      	ldr	r1, [pc, #900]	; (0x30c8)
    2d44:	6008      	str	r0, [r1, #0]
    2d46:	2000      	movs	r0, #0
    2d48:	49e0      	ldr	r1, [pc, #896]	; (0x30cc)
    2d4a:	6008      	str	r0, [r1, #0]
    2d4c:	9002      	str	r0, [sp, #8]
    2d4e:	48de      	ldr	r0, [pc, #888]	; (0x30c8)
    2d50:	6800      	ldr	r0, [r0, #0]
    2d52:	b910      	cbnz	r0, 0x2d5a
    2d54:	a0de      	add	r0, pc, #888	; (adr r0, 0x30d0)
    2d56:	f7fe fc6b 	bl	0x1630
    2d5a:	48db      	ldr	r0, [pc, #876]	; (0x30c8)
    2d5c:	6800      	ldr	r0, [r0, #0]
    2d5e:	2801      	cmp	r0, #1
    2d60:	d102      	bne.n	0x2d68
    2d62:	a0de      	add	r0, pc, #888	; (adr r0, 0x30dc)
    2d64:	f7fe fc64 	bl	0x1630
    2d68:	48d7      	ldr	r0, [pc, #860]	; (0x30c8)
    2d6a:	6800      	ldr	r0, [r0, #0]
    2d6c:	2802      	cmp	r0, #2
    2d6e:	d102      	bne.n	0x2d76
    2d70:	a0dd      	add	r0, pc, #884	; (adr r0, 0x30e8)
    2d72:	f7fe fc5d 	bl	0x1630
    2d76:	48d4      	ldr	r0, [pc, #848]	; (0x30c8)
    2d78:	6800      	ldr	r0, [r0, #0]
    2d7a:	bbf0      	cbnz	r0, 0x2dfa
    2d7c:	2001      	movs	r0, #1
    2d7e:	49dc      	ldr	r1, [pc, #880]	; (0x30f0)
    2d80:	6008      	str	r0, [r1, #0]
    2d82:	f7ff fb5d 	bl	0x2440
    2d86:	f7ff fd47 	bl	0x2818
    2d8a:	2c01      	cmp	r4, #1
    2d8c:	d10a      	bne.n	0x2da4
    2d8e:	48d9      	ldr	r0, [pc, #868]	; (0x30f4)
    2d90:	6800      	ldr	r0, [r0, #0]
    2d92:	1d40      	adds	r0, r0, #5
    2d94:	2106      	movs	r1, #6
    2d96:	fb90 f2f1 	sdiv	r2, r0, r1
    2d9a:	fb01 0512 	mls	r5, r1, r2, r0
    2d9e:	4628      	mov	r0, r5
    2da0:	f7fd fda9 	bl	0x8f6
    2da4:	2c02      	cmp	r4, #2
    2da6:	d10a      	bne.n	0x2dbe
    2da8:	48d2      	ldr	r0, [pc, #840]	; (0x30f4)
    2daa:	6800      	ldr	r0, [r0, #0]
    2dac:	1c40      	adds	r0, r0, #1
    2dae:	2106      	movs	r1, #6
    2db0:	fb90 f2f1 	sdiv	r2, r0, r1
    2db4:	fb01 0512 	mls	r5, r1, r2, r0
    2db8:	4628      	mov	r0, r5
    2dba:	f7fd fd9c 	bl	0x8f6
    2dbe:	2c03      	cmp	r4, #3
    2dc0:	d108      	bne.n	0x2dd4
    2dc2:	f108 0001 	add.w	r0, r8, #1
    2dc6:	eb00 71d0 	add.w	r1, r0, r0, lsr #31
    2dca:	1049      	asrs	r1, r1, #1
    2dcc:	eba0 0141 	sub.w	r1, r0, r1, lsl #1
    2dd0:	f001 08ff 	and.w	r8, r1, #255	; 0xff
    2dd4:	2c04      	cmp	r4, #4
    2dd6:	d109      	bne.n	0x2dec
    2dd8:	49c7      	ldr	r1, [pc, #796]	; (0x30f8)
    2dda:	7809      	ldrb	r1, [r1, #0]
    2ddc:	1c48      	adds	r0, r1, #1
    2dde:	eb00 71d0 	add.w	r1, r0, r0, lsr #31
    2de2:	1049      	asrs	r1, r1, #1
    2de4:	eba0 0141 	sub.w	r1, r0, r1, lsl #1
    2de8:	4ac3      	ldr	r2, [pc, #780]	; (0x30f8)
    2dea:	7011      	strb	r1, [r2, #0]
    2dec:	2c05      	cmp	r4, #5
    2dee:	d102      	bne.n	0x2df6
    2df0:	2000      	movs	r0, #0
    2df2:	49c2      	ldr	r1, [pc, #776]	; (0x30fc)
    2df4:	6008      	str	r0, [r1, #0]
    2df6:	48c2      	ldr	r0, [pc, #776]	; (0x3100)
    2df8:	e000      	b.n	0x2dfc
    2dfa:	e016      	b.n	0x2e2a
    2dfc:	6800      	ldr	r0, [r0, #0]
    2dfe:	b100      	cbz	r0, 0x2e02
    2e00:	b19c      	cbz	r4, 0x2e2a
    2e02:	48be      	ldr	r0, [pc, #760]	; (0x30fc)
    2e04:	6800      	ldr	r0, [r0, #0]
    2e06:	1c40      	adds	r0, r0, #1
    2e08:	d10f      	bne.n	0x2e2a
    2e0a:	48a8      	ldr	r0, [pc, #672]	; (0x30ac)
    2e0c:	7b80      	ldrb	r0, [r0, #14]
    2e0e:	2801      	cmp	r0, #1
    2e10:	d105      	bne.n	0x2e1e
    2e12:	48b9      	ldr	r0, [pc, #740]	; (0x30f8)
    2e14:	7800      	ldrb	r0, [r0, #0]
    2e16:	eb00 0080 	add.w	r0, r0, r0, lsl #2
    2e1a:	0040      	lsls	r0, r0, #1
    2e1c:	e001      	b.n	0x2e22
    2e1e:	48b6      	ldr	r0, [pc, #728]	; (0x30f8)
    2e20:	7800      	ldrb	r0, [r0, #0]
    2e22:	b2c1      	uxtb	r1, r0
    2e24:	4640      	mov	r0, r8
    2e26:	f7fe fc37 	bl	0x1698
    2e2a:	48a7      	ldr	r0, [pc, #668]	; (0x30c8)
    2e2c:	6800      	ldr	r0, [r0, #0]
    2e2e:	2801      	cmp	r0, #1
    2e30:	d17e      	bne.n	0x2f30
    2e32:	4682      	mov	sl, r0
    2e34:	4683      	mov	fp, r0
    2e36:	2000      	movs	r0, #0
    2e38:	9001      	str	r0, [sp, #4]
    2e3a:	9000      	str	r0, [sp, #0]
    2e3c:	2602      	movs	r6, #2
    2e3e:	48a3      	ldr	r0, [pc, #652]	; (0x30cc)
    2e40:	6800      	ldr	r0, [r0, #0]
    2e42:	b940      	cbnz	r0, 0x2e56
    2e44:	f20f 29bc 	addw	r9, pc, #700	; 0x2bc
    2e48:	4d98      	ldr	r5, [pc, #608]	; (0x30ac)
    2e4a:	1d2d      	adds	r5, r5, #4
    2e4c:	f04f 0a03 	mov.w	sl, #3
    2e50:	f04f 0b00 	mov.w	fp, #0
    2e54:	bf00      	nop
    2e56:	489d      	ldr	r0, [pc, #628]	; (0x30cc)
    2e58:	6800      	ldr	r0, [r0, #0]
    2e5a:	2801      	cmp	r0, #1
    2e5c:	d107      	bne.n	0x2e6e
    2e5e:	f20f 29b0 	addw	r9, pc, #688	; 0x2b0
    2e62:	4d92      	ldr	r5, [pc, #584]	; (0x30ac)
    2e64:	f04f 0a05 	mov.w	sl, #5
    2e68:	f04f 0b00 	mov.w	fp, #0
    2e6c:	2603      	movs	r6, #3
    2e6e:	4897      	ldr	r0, [pc, #604]	; (0x30cc)
    2e70:	6800      	ldr	r0, [r0, #0]
    2e72:	2802      	cmp	r0, #2
    2e74:	d108      	bne.n	0x2e88
    2e76:	f20f 29a4 	addw	r9, pc, #676	; 0x2a4
    2e7a:	4d8c      	ldr	r5, [pc, #560]	; (0x30ac)
    2e7c:	1d6d      	adds	r5, r5, #5
    2e7e:	f04f 0a03 	mov.w	sl, #3
    2e82:	f04f 0b01 	mov.w	fp, #1
    2e86:	2602      	movs	r6, #2
    2e88:	4890      	ldr	r0, [pc, #576]	; (0x30cc)
    2e8a:	6800      	ldr	r0, [r0, #0]
    2e8c:	2803      	cmp	r0, #3
    2e8e:	d108      	bne.n	0x2ea2
    2e90:	f20f 2994 	addw	r9, pc, #660	; 0x294
    2e94:	4d85      	ldr	r5, [pc, #532]	; (0x30ac)
    2e96:	1c6d      	adds	r5, r5, #1
    2e98:	f04f 0a05 	mov.w	sl, #5
    2e9c:	f04f 0b01 	mov.w	fp, #1
    2ea0:	2603      	movs	r6, #3
    2ea2:	488a      	ldr	r0, [pc, #552]	; (0x30cc)
    2ea4:	6800      	ldr	r0, [r0, #0]
    2ea6:	2804      	cmp	r0, #4
    2ea8:	d108      	bne.n	0x2ebc
    2eaa:	f20f 2988 	addw	r9, pc, #648	; 0x288
    2eae:	4d7f      	ldr	r5, [pc, #508]	; (0x30ac)
    2eb0:	1dad      	adds	r5, r5, #6
    2eb2:	f04f 0a03 	mov.w	sl, #3
    2eb6:	f04f 0b02 	mov.w	fp, #2
    2eba:	2602      	movs	r6, #2
    2ebc:	4883      	ldr	r0, [pc, #524]	; (0x30cc)
    2ebe:	6800      	ldr	r0, [r0, #0]
    2ec0:	2805      	cmp	r0, #5
    2ec2:	d107      	bne.n	0x2ed4
    2ec4:	f20f 2978 	addw	r9, pc, #632	; 0x278
    2ec8:	4d78      	ldr	r5, [pc, #480]	; (0x30ac)
    2eca:	1cad      	adds	r5, r5, #2
    2ecc:	4682      	mov	sl, r0
    2ece:	f04f 0b02 	mov.w	fp, #2
    2ed2:	2604      	movs	r6, #4
    2ed4:	487d      	ldr	r0, [pc, #500]	; (0x30cc)
    2ed6:	6800      	ldr	r0, [r0, #0]
    2ed8:	2806      	cmp	r0, #6
    2eda:	d108      	bne.n	0x2eee
    2edc:	f20f 296c 	addw	r9, pc, #620	; 0x26c
    2ee0:	4d72      	ldr	r5, [pc, #456]	; (0x30ac)
    2ee2:	1ded      	adds	r5, r5, #7
    2ee4:	f04f 0a03 	mov.w	sl, #3
    2ee8:	f04f 0b03 	mov.w	fp, #3
    2eec:	2602      	movs	r6, #2
    2eee:	4877      	ldr	r0, [pc, #476]	; (0x30cc)
    2ef0:	6800      	ldr	r0, [r0, #0]
    2ef2:	2807      	cmp	r0, #7
    2ef4:	d108      	bne.n	0x2f08
    2ef6:	f20f 2960 	addw	r9, pc, #608	; 0x260
    2efa:	4d6c      	ldr	r5, [pc, #432]	; (0x30ac)
    2efc:	1ced      	adds	r5, r5, #3
    2efe:	f04f 0a05 	mov.w	sl, #5
    2f02:	f04f 0b03 	mov.w	fp, #3
    2f06:	2604      	movs	r6, #4
    2f08:	4870      	ldr	r0, [pc, #448]	; (0x30cc)
    2f0a:	6800      	ldr	r0, [r0, #0]
    2f0c:	2808      	cmp	r0, #8
    2f0e:	d10a      	bne.n	0x2f26
    2f10:	f20f 2950 	addw	r9, pc, #592	; 0x250
    2f14:	4d65      	ldr	r5, [pc, #404]	; (0x30ac)
    2f16:	3508      	adds	r5, #8
    2f18:	f04f 0a03 	mov.w	sl, #3
    2f1c:	f04f 0b01 	mov.w	fp, #1
    2f20:	2001      	movs	r0, #1
    2f22:	9000      	str	r0, [sp, #0]
    2f24:	2602      	movs	r6, #2
    2f26:	4869      	ldr	r0, [pc, #420]	; (0x30cc)
    2f28:	6800      	ldr	r0, [r0, #0]
    2f2a:	2809      	cmp	r0, #9
    2f2c:	d10c      	bne.n	0x2f48
    2f2e:	e000      	b.n	0x2f32
    2f30:	e151      	b.n	0x31d6
    2f32:	f20f 293c 	addw	r9, pc, #572	; 0x23c
    2f36:	4d5d      	ldr	r5, [pc, #372]	; (0x30ac)
    2f38:	3509      	adds	r5, #9
    2f3a:	f04f 0a05 	mov.w	sl, #5
    2f3e:	f04f 0b01 	mov.w	fp, #1
    2f42:	2001      	movs	r0, #1
    2f44:	9000      	str	r0, [sp, #0]
    2f46:	2604      	movs	r6, #4
    2f48:	4860      	ldr	r0, [pc, #384]	; (0x30cc)
    2f4a:	6800      	ldr	r0, [r0, #0]
    2f4c:	280a      	cmp	r0, #10
    2f4e:	d10a      	bne.n	0x2f66
    2f50:	f20f 2928 	addw	r9, pc, #552	; 0x228
    2f54:	4d55      	ldr	r5, [pc, #340]	; (0x30ac)
    2f56:	350a      	adds	r5, #10
    2f58:	f04f 0a03 	mov.w	sl, #3
    2f5c:	f04f 0b01 	mov.w	fp, #1
    2f60:	2002      	movs	r0, #2
    2f62:	9000      	str	r0, [sp, #0]
    2f64:	2602      	movs	r6, #2
    2f66:	4859      	ldr	r0, [pc, #356]	; (0x30cc)
    2f68:	6800      	ldr	r0, [r0, #0]
    2f6a:	280b      	cmp	r0, #11
    2f6c:	d10a      	bne.n	0x2f84
    2f6e:	f20f 2918 	addw	r9, pc, #536	; 0x218
    2f72:	4d4e      	ldr	r5, [pc, #312]	; (0x30ac)
    2f74:	350b      	adds	r5, #11
    2f76:	f04f 0a05 	mov.w	sl, #5
    2f7a:	f04f 0b01 	mov.w	fp, #1
    2f7e:	2002      	movs	r0, #2
    2f80:	9000      	str	r0, [sp, #0]
    2f82:	2604      	movs	r6, #4
    2f84:	2c01      	cmp	r4, #1
    2f86:	d103      	bne.n	0x2f90
    2f88:	7828      	ldrb	r0, [r5, #0]
    2f8a:	1e40      	subs	r0, r0, #1
    2f8c:	b240      	sxtb	r0, r0
    2f8e:	7028      	strb	r0, [r5, #0]
    2f90:	2c02      	cmp	r4, #2
    2f92:	d103      	bne.n	0x2f9c
    2f94:	7828      	ldrb	r0, [r5, #0]
    2f96:	1c40      	adds	r0, r0, #1
    2f98:	b240      	sxtb	r0, r0
    2f9a:	7028      	strb	r0, [r5, #0]
    2f9c:	2c03      	cmp	r4, #3
    2f9e:	d10d      	bne.n	0x2fbc
    2fa0:	484a      	ldr	r0, [pc, #296]	; (0x30cc)
    2fa2:	6800      	ldr	r0, [r0, #0]
    2fa4:	b918      	cbnz	r0, 0x2fae
    2fa6:	200b      	movs	r0, #11
    2fa8:	4948      	ldr	r1, [pc, #288]	; (0x30cc)
    2faa:	6008      	str	r0, [r1, #0]
    2fac:	e004      	b.n	0x2fb8
    2fae:	4847      	ldr	r0, [pc, #284]	; (0x30cc)
    2fb0:	6800      	ldr	r0, [r0, #0]
    2fb2:	1e40      	subs	r0, r0, #1
    2fb4:	4945      	ldr	r1, [pc, #276]	; (0x30cc)
    2fb6:	6008      	str	r0, [r1, #0]
    2fb8:	2000      	movs	r0, #0
    2fba:	9002      	str	r0, [sp, #8]
    2fbc:	2c04      	cmp	r4, #4
    2fbe:	d10e      	bne.n	0x2fde
    2fc0:	4842      	ldr	r0, [pc, #264]	; (0x30cc)
    2fc2:	6800      	ldr	r0, [r0, #0]
    2fc4:	280b      	cmp	r0, #11
    2fc6:	d103      	bne.n	0x2fd0
    2fc8:	2000      	movs	r0, #0
    2fca:	4940      	ldr	r1, [pc, #256]	; (0x30cc)
    2fcc:	6008      	str	r0, [r1, #0]
    2fce:	e004      	b.n	0x2fda
    2fd0:	483e      	ldr	r0, [pc, #248]	; (0x30cc)
    2fd2:	6800      	ldr	r0, [r0, #0]
    2fd4:	1c40      	adds	r0, r0, #1
    2fd6:	493d      	ldr	r1, [pc, #244]	; (0x30cc)
    2fd8:	6008      	str	r0, [r1, #0]
    2fda:	2000      	movs	r0, #0
    2fdc:	9002      	str	r0, [sp, #8]
    2fde:	2c05      	cmp	r4, #5
    2fe0:	d108      	bne.n	0x2ff4
    2fe2:	9902      	ldr	r1, [sp, #8]
    2fe4:	1c48      	adds	r0, r1, #1
    2fe6:	eb00 71d0 	add.w	r1, r0, r0, lsr #31
    2fea:	1049      	asrs	r1, r1, #1
    2fec:	eba0 0141 	sub.w	r1, r0, r1, lsl #1
    2ff0:	b2c9      	uxtb	r1, r1
    2ff2:	9102      	str	r1, [sp, #8]
    2ff4:	2c23      	cmp	r4, #35	; 0x23
    2ff6:	d101      	bne.n	0x2ffc
    2ff8:	f7fd ff5c 	bl	0xeb4
    2ffc:	2c24      	cmp	r4, #36	; 0x24
    2ffe:	d105      	bne.n	0x300c
    3000:	2001      	movs	r0, #1
    3002:	f7fe f80b 	bl	0x101c
    3006:	a063      	add	r0, pc, #396	; (adr r0, 0x3194)
    3008:	f7fe fb12 	bl	0x1630
    300c:	2000      	movs	r0, #0
    300e:	4938      	ldr	r1, [pc, #224]	; (0x30f0)
    3010:	6008      	str	r0, [r1, #0]
    3012:	4962      	ldr	r1, [pc, #392]	; (0x319c)
    3014:	9801      	ldr	r0, [sp, #4]
    3016:	6008      	str	r0, [r1, #0]
    3018:	9800      	ldr	r0, [sp, #0]
    301a:	6048      	str	r0, [r1, #4]
    301c:	4835      	ldr	r0, [pc, #212]	; (0x30f4)
    301e:	6800      	ldr	r0, [r0, #0]
    3020:	4582      	cmp	sl, r0
    3022:	d002      	beq.n	0x302a
    3024:	4650      	mov	r0, sl
    3026:	f7fd fc66 	bl	0x8f6
    302a:	485d      	ldr	r0, [pc, #372]	; (0x31a0)
    302c:	6800      	ldr	r0, [r0, #0]
    302e:	4583      	cmp	fp, r0
    3030:	d002      	beq.n	0x3038
    3032:	4658      	mov	r0, fp
    3034:	f7fe f87d 	bl	0x1132
    3038:	f7ff fa02 	bl	0x2440
    303c:	9802      	ldr	r0, [sp, #8]
    303e:	b100      	cbz	r0, 0x3042
    3040:	2600      	movs	r6, #0
    3042:	2e02      	cmp	r6, #2
    3044:	d003      	beq.n	0x304e
    3046:	2e03      	cmp	r6, #3
    3048:	d001      	beq.n	0x304e
    304a:	2e04      	cmp	r6, #4
    304c:	d110      	bne.n	0x3070
    304e:	2000      	movs	r0, #0
    3050:	f7fd fa2f 	bl	0x4b2
    3054:	4648      	mov	r0, r9
    3056:	f7fd fa5c 	bl	0x512
    305a:	f6af 50f4 	subw	r0, pc, #3572	; 0xdf4
    305e:	f7fd fa58 	bl	0x512
    3062:	f995 0000 	ldrsb.w	r0, [r5]
    3066:	2103      	movs	r1, #3
    3068:	f7fd fbd2 	bl	0x810
    306c:	a04d      	add	r0, pc, #308	; (adr r0, 0x31a4)
    306e:	e09b      	b.n	0x31a8
    3070:	e09c      	b.n	0x31ac
    3072:	0000      	movs	r0, r0
    3074:	6144      	str	r4, [r0, #20]
    3076:	6174      	str	r4, [r6, #20]
    3078:	462d      	mov	r5, r5
    307a:	616c      	str	r4, [r5, #20]
    307c:	6873      	ldr	r3, [r6, #4]
    307e:	4520      	cmp	r0, r4
    3080:	5252      	strh	r2, [r2, r1]
    3082:	202e      	movs	r0, #46	; 0x2e
    3084:	0000      	movs	r0, r0
    3086:	0000      	movs	r0, r0
    3088:	6e41      	ldr	r1, [r0, #100]	; 0x64
    308a:	4b79      	ldr	r3, [pc, #484]	; (0x3270)
    308c:	7965      	ldrb	r5, [r4, #5]
    308e:	4720      	bx	r4
    3090:	446f      	add	r7, sp
    3092:	6665      	str	r5, [r4, #100]	; 0x64
    3094:	7561      	strb	r1, [r4, #21]
    3096:	746c      	strb	r4, [r5, #17]
    3098:	0000      	movs	r0, r0
    309a:	0000      	movs	r0, r0
    309c:	6553      	str	r3, [r2, #84]	; 0x54
    309e:	656c      	str	r4, [r5, #84]	; 0x54
    30a0:	7463      	strb	r3, [r4, #17]
    30a2:	7320      	strb	r0, [r4, #12]
    30a4:	7263      	strb	r3, [r4, #9]
    30a6:	6565      	str	r5, [r4, #84]	; 0x54
    30a8:	006e      	lsls	r6, r5, #1
    30aa:	0000      	movs	r0, r0
    30ac:	1030      	asrs	r0, r6, #32
    30ae:	2000      	movs	r0, #0
    30b0:	3032      	adds	r0, #50	; 0x32
    30b2:	3430      	adds	r4, #48	; 0x30
    30b4:	0000      	movs	r0, r0
    30b6:	0000      	movs	r0, r0
    30b8:	3631      	adds	r6, #49	; 0x31
    30ba:	3230      	adds	r2, #48	; 0x30
    30bc:	0000      	movs	r0, r0
    30be:	0000      	movs	r0, r0
    30c0:	4f20      	ldr	r7, [pc, #128]	; (0x3144)
    30c2:	214b      	movs	r1, #75	; 0x4b
    30c4:	0000      	movs	r0, r0
    30c6:	0000      	movs	r0, r0
    30c8:	003c      	movs	r4, r7
    30ca:	2000      	movs	r0, #0
    30cc:	0040      	lsls	r0, r0, #1
    30ce:	2000      	movs	r0, #0
    30d0:	434c      	muls	r4, r1
    30d2:	2052      	movs	r0, #82	; 0x52
    30d4:	656d      	str	r5, [r5, #84]	; 0x54
    30d6:	6574      	str	r4, [r6, #84]	; 0x54
    30d8:	0072      	lsls	r2, r6, #1
    30da:	0000      	movs	r0, r0
    30dc:	694a      	ldr	r2, [r1, #20]
    30de:	6f61      	ldr	r1, [r4, #116]	; 0x74
    30e0:	5a20      	ldrh	r0, [r4, r0]
    30e2:	7568      	strb	r0, [r5, #21]
    30e4:	006e      	lsls	r6, r5, #1
    30e6:	0000      	movs	r0, r0
    30e8:	6564      	str	r4, [r4, #84]	; 0x54
    30ea:	7562      	strb	r2, [r4, #21]
    30ec:	0067      	lsls	r7, r4, #1
    30ee:	0000      	movs	r0, r0
    30f0:	0070      	lsls	r0, r6, #1
    30f2:	2000      	movs	r0, #0
    30f4:	0088      	lsls	r0, r1, #2
    30f6:	2000      	movs	r0, #0
    30f8:	0082      	lsls	r2, r0, #2
    30fa:	2000      	movs	r0, #0
    30fc:	007c      	lsls	r4, r7, #1
    30fe:	2000      	movs	r0, #0
    3100:	0044      	lsls	r4, r0, #1
    3102:	2000      	movs	r0, #0
    3104:	3152      	adds	r1, #82	; 0x52
    3106:	3a20      	subs	r2, #32
    3108:	3031      	adds	r0, #49	; 0x31
    310a:	5230      	strh	r0, [r6, r0]
    310c:	0000      	movs	r0, r0
    310e:	0000      	movs	r0, r0
    3110:	3152      	adds	r1, #82	; 0x52
    3112:	3a58      	subs	r2, #88	; 0x58
    3114:	3031      	adds	r0, #49	; 0x31
    3116:	5230      	strh	r0, [r6, r0]
    3118:	0000      	movs	r0, r0
    311a:	0000      	movs	r0, r0
    311c:	3252      	adds	r2, #82	; 0x52
    311e:	3a20      	subs	r2, #32
    3120:	3120      	adds	r1, #32
    3122:	206b      	movs	r0, #107	; 0x6b
    3124:	0000      	movs	r0, r0
    3126:	0000      	movs	r0, r0
    3128:	3252      	adds	r2, #82	; 0x52
    312a:	3a58      	subs	r2, #88	; 0x58
    312c:	3120      	adds	r1, #32
    312e:	206b      	movs	r0, #107	; 0x6b
    3130:	0000      	movs	r0, r0
    3132:	0000      	movs	r0, r0
    3134:	3352      	adds	r3, #82	; 0x52
    3136:	3a20      	subs	r2, #32
    3138:	3120      	adds	r1, #32
    313a:	6b30      	ldr	r0, [r6, #48]	; 0x30
    313c:	0000      	movs	r0, r0
    313e:	0000      	movs	r0, r0
    3140:	3352      	adds	r3, #82	; 0x52
    3142:	3a58      	subs	r2, #88	; 0x58
    3144:	3120      	adds	r1, #32
    3146:	6b30      	ldr	r0, [r6, #48]	; 0x30
    3148:	0000      	movs	r0, r0
    314a:	0000      	movs	r0, r0
    314c:	3452      	adds	r4, #82	; 0x52
    314e:	3a20      	subs	r2, #32
    3150:	3031      	adds	r0, #49	; 0x31
    3152:	6b30      	ldr	r0, [r6, #48]	; 0x30
    3154:	0000      	movs	r0, r0
    3156:	0000      	movs	r0, r0
    3158:	3452      	adds	r4, #82	; 0x52
    315a:	3a58      	subs	r2, #88	; 0x58
    315c:	3031      	adds	r0, #49	; 0x31
    315e:	6b30      	ldr	r0, [r6, #48]	; 0x30
    3160:	0000      	movs	r0, r0
    3162:	0000      	movs	r0, r0
    3164:	3147      	adds	r1, #71	; 0x47
    3166:	3a20      	subs	r2, #32
    3168:	3320      	adds	r3, #32
    316a:	206b      	movs	r0, #107	; 0x6b
    316c:	0000      	movs	r0, r0
    316e:	0000      	movs	r0, r0
    3170:	3147      	adds	r1, #71	; 0x47
    3172:	3a58      	subs	r2, #88	; 0x58
    3174:	3320      	adds	r3, #32
    3176:	206b      	movs	r0, #107	; 0x6b
    3178:	0000      	movs	r0, r0
    317a:	0000      	movs	r0, r0
    317c:	3247      	adds	r2, #71	; 0x47
    317e:	3a20      	subs	r2, #32
    3180:	3920      	subs	r1, #32
    3182:	206b      	movs	r0, #107	; 0x6b
    3184:	0000      	movs	r0, r0
    3186:	0000      	movs	r0, r0
    3188:	3247      	adds	r2, #71	; 0x47
    318a:	3a58      	subs	r2, #88	; 0x58
    318c:	3920      	subs	r1, #32
    318e:	206b      	movs	r0, #107	; 0x6b
    3190:	0000      	movs	r0, r0
    3192:	0000      	movs	r0, r0
    3194:	6173      	str	r3, [r6, #20]
    3196:	6576      	str	r6, [r6, #84]	; 0x54
    3198:	6f20      	ldr	r0, [r4, #112]	; 0x70
    319a:	006b      	lsls	r3, r5, #1
    319c:	0068      	lsls	r0, r5, #1
    319e:	2000      	movs	r0, #0
    31a0:	0074      	lsls	r4, r6, #1
    31a2:	2000      	movs	r0, #0
    31a4:	2020      	movs	r0, #32
    31a6:	0020      	movs	r0, r4
    31a8:	f7fd f9b3 	bl	0x512
    31ac:	4840      	ldr	r0, [pc, #256]	; (0x32b0)
    31ae:	6800      	ldr	r0, [r0, #0]
    31b0:	b980      	cbnz	r0, 0x31d4
    31b2:	4840      	ldr	r0, [pc, #256]	; (0x32b4)
    31b4:	6800      	ldr	r0, [r0, #0]
    31b6:	2800      	cmp	r0, #0
    31b8:	db08      	blt.n	0x31cc
    31ba:	483e      	ldr	r0, [pc, #248]	; (0x32b4)
    31bc:	6800      	ldr	r0, [r0, #0]
    31be:	2803      	cmp	r0, #3
    31c0:	dc04      	bgt.n	0x31cc
    31c2:	4631      	mov	r1, r6
    31c4:	2000      	movs	r0, #0
    31c6:	f7fe fa67 	bl	0x1698
    31ca:	e003      	b.n	0x31d4
    31cc:	4631      	mov	r1, r6
    31ce:	2001      	movs	r0, #1
    31d0:	f7fe fa62 	bl	0x1698
    31d4:	bf00      	nop
    31d6:	4838      	ldr	r0, [pc, #224]	; (0x32b8)
    31d8:	6800      	ldr	r0, [r0, #0]
    31da:	2802      	cmp	r0, #2
    31dc:	d163      	bne.n	0x32a6
    31de:	2032      	movs	r0, #50	; 0x32
    31e0:	fb97 f1f0 	sdiv	r1, r7, r0
    31e4:	fb00 7011 	mls	r0, r0, r1, r7
    31e8:	b940      	cbnz	r0, 0x31fc
    31ea:	2000      	movs	r0, #0
    31ec:	f7fd f961 	bl	0x4b2
    31f0:	f7fd fd9f 	bl	0xd32
    31f4:	4605      	mov	r5, r0
    31f6:	2106      	movs	r1, #6
    31f8:	f7fd fb0a 	bl	0x810
    31fc:	2c01      	cmp	r4, #1
    31fe:	d10a      	bne.n	0x3216
    3200:	482e      	ldr	r0, [pc, #184]	; (0x32bc)
    3202:	6800      	ldr	r0, [r0, #0]
    3204:	1c40      	adds	r0, r0, #1
    3206:	2106      	movs	r1, #6
    3208:	fb90 f2f1 	sdiv	r2, r0, r1
    320c:	fb01 0512 	mls	r5, r1, r2, r0
    3210:	4628      	mov	r0, r5
    3212:	f7fd fb70 	bl	0x8f6
    3216:	2c02      	cmp	r4, #2
    3218:	d10a      	bne.n	0x3230
    321a:	4829      	ldr	r0, [pc, #164]	; (0x32c0)
    321c:	6800      	ldr	r0, [r0, #0]
    321e:	1c45      	adds	r5, r0, #1
    3220:	17e9      	asrs	r1, r5, #31
    3222:	eb05 7191 	add.w	r1, r5, r1, lsr #30
    3226:	1089      	asrs	r1, r1, #2
    3228:	eba5 0081 	sub.w	r0, r5, r1, lsl #2
    322c:	f7fd fb38 	bl	0x8a0
    3230:	2c03      	cmp	r4, #3
    3232:	d10a      	bne.n	0x324a
    3234:	4823      	ldr	r0, [pc, #140]	; (0x32c4)
    3236:	6800      	ldr	r0, [r0, #0]
    3238:	1c45      	adds	r5, r0, #1
    323a:	17e9      	asrs	r1, r5, #31
    323c:	eb05 7191 	add.w	r1, r5, r1, lsr #30
    3240:	1089      	asrs	r1, r1, #2
    3242:	eba5 0081 	sub.w	r0, r5, r1, lsl #2
    3246:	f7fd ff74 	bl	0x1132
    324a:	2c04      	cmp	r4, #4
    324c:	d10a      	bne.n	0x3264
    324e:	481e      	ldr	r0, [pc, #120]	; (0x32c8)
    3250:	6800      	ldr	r0, [r0, #0]
    3252:	1c40      	adds	r0, r0, #1
    3254:	2105      	movs	r1, #5
    3256:	fb90 f2f1 	sdiv	r2, r0, r1
    325a:	fb01 0512 	mls	r5, r1, r2, r0
    325e:	4628      	mov	r0, r5
    3260:	f7fd ffaf 	bl	0x11c2
    3264:	2c05      	cmp	r4, #5
    3266:	d10a      	bne.n	0x327e
    3268:	4818      	ldr	r0, [pc, #96]	; (0x32cc)
    326a:	6800      	ldr	r0, [r0, #0]
    326c:	1c40      	adds	r0, r0, #1
    326e:	2103      	movs	r1, #3
    3270:	fb90 f2f1 	sdiv	r2, r0, r1
    3274:	fb01 0512 	mls	r5, r1, r2, r0
    3278:	4628      	mov	r0, r5
    327a:	f7fe f801 	bl	0x1280
    327e:	2032      	movs	r0, #50	; 0x32
    3280:	fb97 f1f0 	sdiv	r1, r7, r0
    3284:	fb00 7011 	mls	r0, r0, r1, r7
    3288:	b968      	cbnz	r0, 0x32a6
    328a:	2000      	movs	r0, #0
    328c:	f7fd f911 	bl	0x4b2
    3290:	f7fd fd4f 	bl	0xd32
    3294:	4605      	mov	r5, r0
    3296:	2106      	movs	r1, #6
    3298:	f7fd faba 	bl	0x810
    329c:	2000      	movs	r0, #0
    329e:	f7fd f912 	bl	0x4c6
    32a2:	f7fe f993 	bl	0x15cc
    32a6:	200a      	movs	r0, #10
    32a8:	f7fc ffbe 	bl	0x228
    32ac:	e53b      	b.n	0x2d26
    32ae:	0000      	movs	r0, r0
    32b0:	0044      	lsls	r4, r0, #1
    32b2:	2000      	movs	r0, #0
    32b4:	0040      	lsls	r0, r0, #1
    32b6:	2000      	movs	r0, #0
    32b8:	003c      	movs	r4, r7
    32ba:	2000      	movs	r0, #0
    32bc:	0088      	lsls	r0, r1, #2
    32be:	2000      	movs	r0, #0
    32c0:	0008      	movs	r0, r1
    32c2:	2000      	movs	r0, #0
    32c4:	0074      	lsls	r4, r6, #1
    32c6:	2000      	movs	r0, #0
    32c8:	0078      	lsls	r0, r7, #1
    32ca:	2000      	movs	r0, #0
    32cc:	008c      	lsls	r4, r1, #2
    32ce:	2000      	movs	r0, #0
    32d0:	2100      	movs	r1, #0
    32d2:	2000      	movs	r0, #0
    32d4:	4a43      	ldr	r2, [pc, #268]	; (0x33e4)
    32d6:	6812      	ldr	r2, [r2, #0]
    32d8:	f442 3280 	orr.w	r2, r2, #65536	; 0x10000
    32dc:	4b41      	ldr	r3, [pc, #260]	; (0x33e4)
    32de:	601a      	str	r2, [r3, #0]
    32e0:	bf00      	nop
    32e2:	4a40      	ldr	r2, [pc, #256]	; (0x33e4)
    32e4:	6812      	ldr	r2, [r2, #0]
    32e6:	f402 3000 	and.w	r0, r2, #131072	; 0x20000
    32ea:	1c49      	adds	r1, r1, #1
    32ec:	b910      	cbnz	r0, 0x32f4
    32ee:	f5b1 6fa0 	cmp.w	r1, #1280	; 0x500
    32f2:	d1f6      	bne.n	0x32e2
    32f4:	4a3b      	ldr	r2, [pc, #236]	; (0x33e4)
    32f6:	6812      	ldr	r2, [r2, #0]
    32f8:	f412 3f00 	tst.w	r2, #131072	; 0x20000
    32fc:	d001      	beq.n	0x3302
    32fe:	2001      	movs	r0, #1
    3300:	e000      	b.n	0x3304
    3302:	2000      	movs	r0, #0
    3304:	2801      	cmp	r0, #1
    3306:	d143      	bne.n	0x3390
    3308:	4a37      	ldr	r2, [pc, #220]	; (0x33e8)
    330a:	6812      	ldr	r2, [r2, #0]
    330c:	f042 0210 	orr.w	r2, r2, #16
    3310:	4b35      	ldr	r3, [pc, #212]	; (0x33e8)
    3312:	601a      	str	r2, [r3, #0]
    3314:	461a      	mov	r2, r3
    3316:	6812      	ldr	r2, [r2, #0]
    3318:	f022 0203 	bic.w	r2, r2, #3
    331c:	601a      	str	r2, [r3, #0]
    331e:	461a      	mov	r2, r3
    3320:	6812      	ldr	r2, [r2, #0]
    3322:	f042 0202 	orr.w	r2, r2, #2
    3326:	601a      	str	r2, [r3, #0]
    3328:	4a2e      	ldr	r2, [pc, #184]	; (0x33e4)
    332a:	6852      	ldr	r2, [r2, #4]
    332c:	4b2d      	ldr	r3, [pc, #180]	; (0x33e4)
    332e:	605a      	str	r2, [r3, #4]
    3330:	461a      	mov	r2, r3
    3332:	6852      	ldr	r2, [r2, #4]
    3334:	605a      	str	r2, [r3, #4]
    3336:	461a      	mov	r2, r3
    3338:	6852      	ldr	r2, [r2, #4]
    333a:	f442 6280 	orr.w	r2, r2, #1024	; 0x400
    333e:	605a      	str	r2, [r3, #4]
    3340:	461a      	mov	r2, r3
    3342:	6852      	ldr	r2, [r2, #4]
    3344:	f422 127c 	bic.w	r2, r2, #4128768	; 0x3f0000
    3348:	605a      	str	r2, [r3, #4]
    334a:	461a      	mov	r2, r3
    334c:	6852      	ldr	r2, [r2, #4]
    334e:	f442 12e8 	orr.w	r2, r2, #1900544	; 0x1d0000
    3352:	605a      	str	r2, [r3, #4]
    3354:	461a      	mov	r2, r3
    3356:	6812      	ldr	r2, [r2, #0]
    3358:	f042 7280 	orr.w	r2, r2, #16777216	; 0x1000000
    335c:	601a      	str	r2, [r3, #0]
    335e:	bf00      	nop
    3360:	4a20      	ldr	r2, [pc, #128]	; (0x33e4)
    3362:	6812      	ldr	r2, [r2, #0]
    3364:	f012 7f00 	tst.w	r2, #33554432	; 0x2000000
    3368:	d0fa      	beq.n	0x3360
    336a:	4a1e      	ldr	r2, [pc, #120]	; (0x33e4)
    336c:	6852      	ldr	r2, [r2, #4]
    336e:	f022 0203 	bic.w	r2, r2, #3
    3372:	4b1c      	ldr	r3, [pc, #112]	; (0x33e4)
    3374:	605a      	str	r2, [r3, #4]
    3376:	461a      	mov	r2, r3
    3378:	6852      	ldr	r2, [r2, #4]
    337a:	f042 0202 	orr.w	r2, r2, #2
    337e:	605a      	str	r2, [r3, #4]
    3380:	bf00      	nop
    3382:	4a18      	ldr	r2, [pc, #96]	; (0x33e4)
    3384:	6852      	ldr	r2, [r2, #4]
    3386:	f002 020c 	and.w	r2, r2, #12
    338a:	2a08      	cmp	r2, #8
    338c:	d1f9      	bne.n	0x3382
    338e:	e001      	b.n	0x3394
    3390:	bf00      	nop
    3392:	e7fe      	b.n	0x3392
    3394:	4770      	bx	lr
    3396:	b510      	push	{r4, lr}
    3398:	f7ff ff9a 	bl	0x32d0
    339c:	bd10      	pop	{r4, pc}
    339e:	b510      	push	{r4, lr}
    33a0:	4810      	ldr	r0, [pc, #64]	; (0x33e4)
    33a2:	6800      	ldr	r0, [r0, #0]
    33a4:	f040 0001 	orr.w	r0, r0, #1
    33a8:	490e      	ldr	r1, [pc, #56]	; (0x33e4)
    33aa:	6008      	str	r0, [r1, #0]
    33ac:	4608      	mov	r0, r1
    33ae:	6840      	ldr	r0, [r0, #4]
    33b0:	490e      	ldr	r1, [pc, #56]	; (0x33ec)
    33b2:	4008      	ands	r0, r1
    33b4:	490b      	ldr	r1, [pc, #44]	; (0x33e4)
    33b6:	6048      	str	r0, [r1, #4]
    33b8:	4608      	mov	r0, r1
    33ba:	6800      	ldr	r0, [r0, #0]
    33bc:	490c      	ldr	r1, [pc, #48]	; (0x33f0)
    33be:	4008      	ands	r0, r1
    33c0:	4908      	ldr	r1, [pc, #32]	; (0x33e4)
    33c2:	6008      	str	r0, [r1, #0]
    33c4:	4608      	mov	r0, r1
    33c6:	6800      	ldr	r0, [r0, #0]
    33c8:	f420 2080 	bic.w	r0, r0, #262144	; 0x40000
    33cc:	6008      	str	r0, [r1, #0]
    33ce:	4608      	mov	r0, r1
    33d0:	6840      	ldr	r0, [r0, #4]
    33d2:	f420 00fe 	bic.w	r0, r0, #8323072	; 0x7f0000
    33d6:	6048      	str	r0, [r1, #4]
    33d8:	f44f 001f 	mov.w	r0, #10420224	; 0x9f0000
    33dc:	6088      	str	r0, [r1, #8]
    33de:	f7ff ffda 	bl	0x3396
    33e2:	bd10      	pop	{r4, pc}
    33e4:	1000      	asrs	r0, r0, #32
    33e6:	4002      	ands	r2, r0
    33e8:	2000      	movs	r0, #0
    33ea:	4002      	ands	r2, r0
    33ec:	0000      	movs	r0, r0
    33ee:	f8ff ffff 	ldr??.w	pc, [pc, #4095]	; 0x43ef
    33f2:	fef6 4601 	cdp2	6, 15, cr4, cr6, cr1, {0}
    33f6:	2000      	movs	r0, #0
    33f8:	4afa      	ldr	r2, [pc, #1000]	; (0x37e4)
    33fa:	6810      	ldr	r0, [r2, #0]
    33fc:	f000 0038 	and.w	r0, r0, #56	; 0x38
    3400:	4308      	orrs	r0, r1
    3402:	6010      	str	r0, [r2, #0]
    3404:	4770      	bx	lr
    3406:	49f7      	ldr	r1, [pc, #988]	; (0x37e4)
    3408:	6809      	ldr	r1, [r1, #0]
    340a:	f021 0108 	bic.w	r1, r1, #8
    340e:	4af5      	ldr	r2, [pc, #980]	; (0x37e4)
    3410:	6011      	str	r1, [r2, #0]
    3412:	4611      	mov	r1, r2
    3414:	6809      	ldr	r1, [r1, #0]
    3416:	4301      	orrs	r1, r0
    3418:	6011      	str	r1, [r2, #0]
    341a:	4770      	bx	lr
    341c:	49f1      	ldr	r1, [pc, #964]	; (0x37e4)
    341e:	6809      	ldr	r1, [r1, #0]
    3420:	f021 0110 	bic.w	r1, r1, #16
    3424:	4aef      	ldr	r2, [pc, #956]	; (0x37e4)
    3426:	6011      	str	r1, [r2, #0]
    3428:	4611      	mov	r1, r2
    342a:	6809      	ldr	r1, [r1, #0]
    342c:	4301      	orrs	r1, r0
    342e:	6011      	str	r1, [r2, #0]
    3430:	4770      	bx	lr
    3432:	48ed      	ldr	r0, [pc, #948]	; (0x37e8)
    3434:	49eb      	ldr	r1, [pc, #940]	; (0x37e4)
    3436:	6048      	str	r0, [r1, #4]
    3438:	48ec      	ldr	r0, [pc, #944]	; (0x37ec)
    343a:	6048      	str	r0, [r1, #4]
    343c:	4770      	bx	lr
    343e:	48e9      	ldr	r0, [pc, #932]	; (0x37e4)
    3440:	6900      	ldr	r0, [r0, #16]
    3442:	f040 0080 	orr.w	r0, r0, #128	; 0x80
    3446:	49e7      	ldr	r1, [pc, #924]	; (0x37e4)
    3448:	6108      	str	r0, [r1, #16]
    344a:	4770      	bx	lr
    344c:	2004      	movs	r0, #4
    344e:	49e5      	ldr	r1, [pc, #916]	; (0x37e4)
    3450:	68c9      	ldr	r1, [r1, #12]
    3452:	f001 0101 	and.w	r1, r1, #1
    3456:	2901      	cmp	r1, #1
    3458:	d101      	bne.n	0x345e
    345a:	2001      	movs	r0, #1
    345c:	e00e      	b.n	0x347c
    345e:	49e1      	ldr	r1, [pc, #900]	; (0x37e4)
    3460:	68c9      	ldr	r1, [r1, #12]
    3462:	f011 0f04 	tst.w	r1, #4
    3466:	d001      	beq.n	0x346c
    3468:	2002      	movs	r0, #2
    346a:	e007      	b.n	0x347c
    346c:	49dd      	ldr	r1, [pc, #884]	; (0x37e4)
    346e:	68c9      	ldr	r1, [r1, #12]
    3470:	f011 0f10 	tst.w	r1, #16
    3474:	d001      	beq.n	0x347a
    3476:	2003      	movs	r0, #3
    3478:	e000      	b.n	0x347c
    347a:	2004      	movs	r0, #4
    347c:	4770      	bx	lr
    347e:	2000      	movs	r0, #0
    3480:	20ff      	movs	r0, #255	; 0xff
    3482:	e000      	b.n	0x3486
    3484:	1e40      	subs	r0, r0, #1
    3486:	2800      	cmp	r0, #0
    3488:	d1fc      	bne.n	0x3484
    348a:	4770      	bx	lr
    348c:	b570      	push	{r4, r5, r6, lr}
    348e:	4604      	mov	r4, r0
    3490:	2504      	movs	r5, #4
    3492:	f7ff ffdb 	bl	0x344c
    3496:	4605      	mov	r5, r0
    3498:	e005      	b.n	0x34a6
    349a:	f7ff fff0 	bl	0x347e
    349e:	f7ff ffd5 	bl	0x344c
    34a2:	4605      	mov	r5, r0
    34a4:	1e64      	subs	r4, r4, #1
    34a6:	2d01      	cmp	r5, #1
    34a8:	d101      	bne.n	0x34ae
    34aa:	2c00      	cmp	r4, #0
    34ac:	d1f5      	bne.n	0x349a
    34ae:	b904      	cbnz	r4, 0x34b2
    34b0:	2505      	movs	r5, #5
    34b2:	4628      	mov	r0, r5
    34b4:	bd70      	pop	{r4, r5, r6, pc}
    34b6:	b570      	push	{r4, r5, r6, lr}
    34b8:	4605      	mov	r5, r0
    34ba:	2404      	movs	r4, #4
    34bc:	f640 70ff 	movw	r0, #4095	; 0xfff
    34c0:	f7ff ffe4 	bl	0x348c
    34c4:	4604      	mov	r4, r0
    34c6:	2c04      	cmp	r4, #4
    34c8:	d119      	bne.n	0x34fe
    34ca:	48c6      	ldr	r0, [pc, #792]	; (0x37e4)
    34cc:	6900      	ldr	r0, [r0, #16]
    34ce:	f040 0002 	orr.w	r0, r0, #2
    34d2:	49c4      	ldr	r1, [pc, #784]	; (0x37e4)
    34d4:	6108      	str	r0, [r1, #16]
    34d6:	4608      	mov	r0, r1
    34d8:	6145      	str	r5, [r0, #20]
    34da:	6900      	ldr	r0, [r0, #16]
    34dc:	f040 0040 	orr.w	r0, r0, #64	; 0x40
    34e0:	6108      	str	r0, [r1, #16]
    34e2:	f640 70ff 	movw	r0, #4095	; 0xfff
    34e6:	f7ff ffd1 	bl	0x348c
    34ea:	4604      	mov	r4, r0
    34ec:	2c05      	cmp	r4, #5
    34ee:	d006      	beq.n	0x34fe
    34f0:	48bc      	ldr	r0, [pc, #752]	; (0x37e4)
    34f2:	6900      	ldr	r0, [r0, #16]
    34f4:	f641 71fd 	movw	r1, #8189	; 0x1ffd
    34f8:	4008      	ands	r0, r1
    34fa:	49ba      	ldr	r1, [pc, #744]	; (0x37e4)
    34fc:	6108      	str	r0, [r1, #16]
    34fe:	4620      	mov	r0, r4
    3500:	bd70      	pop	{r4, r5, r6, pc}
    3502:	b510      	push	{r4, lr}
    3504:	2404      	movs	r4, #4
    3506:	f640 70ff 	movw	r0, #4095	; 0xfff
    350a:	f7ff ffbf 	bl	0x348c
    350e:	4604      	mov	r4, r0
    3510:	2c04      	cmp	r4, #4
    3512:	d118      	bne.n	0x3546
    3514:	48b3      	ldr	r0, [pc, #716]	; (0x37e4)
    3516:	6900      	ldr	r0, [r0, #16]
    3518:	f040 0004 	orr.w	r0, r0, #4
    351c:	49b1      	ldr	r1, [pc, #708]	; (0x37e4)
    351e:	6108      	str	r0, [r1, #16]
    3520:	4608      	mov	r0, r1
    3522:	6900      	ldr	r0, [r0, #16]
    3524:	f040 0040 	orr.w	r0, r0, #64	; 0x40
    3528:	6108      	str	r0, [r1, #16]
    352a:	f640 70ff 	movw	r0, #4095	; 0xfff
    352e:	f7ff ffad 	bl	0x348c
    3532:	4604      	mov	r4, r0
    3534:	2c05      	cmp	r4, #5
    3536:	d006      	beq.n	0x3546
    3538:	48aa      	ldr	r0, [pc, #680]	; (0x37e4)
    353a:	6900      	ldr	r0, [r0, #16]
    353c:	f641 71fb 	movw	r1, #8187	; 0x1ffb
    3540:	4008      	ands	r0, r1
    3542:	49a8      	ldr	r1, [pc, #672]	; (0x37e4)
    3544:	6108      	str	r0, [r1, #16]
    3546:	4620      	mov	r0, r4
    3548:	bd10      	pop	{r4, pc}
    354a:	b510      	push	{r4, lr}
    354c:	2404      	movs	r4, #4
    354e:	f640 70ff 	movw	r0, #4095	; 0xfff
    3552:	f7ff ff9b 	bl	0x348c
    3556:	4604      	mov	r4, r0
    3558:	2c04      	cmp	r4, #4
    355a:	d13c      	bne.n	0x35d6
    355c:	48a2      	ldr	r0, [pc, #648]	; (0x37e8)
    355e:	49a1      	ldr	r1, [pc, #644]	; (0x37e4)
    3560:	6088      	str	r0, [r1, #8]
    3562:	48a2      	ldr	r0, [pc, #648]	; (0x37ec)
    3564:	6088      	str	r0, [r1, #8]
    3566:	4608      	mov	r0, r1
    3568:	6900      	ldr	r0, [r0, #16]
    356a:	f040 0020 	orr.w	r0, r0, #32
    356e:	6108      	str	r0, [r1, #16]
    3570:	4608      	mov	r0, r1
    3572:	6900      	ldr	r0, [r0, #16]
    3574:	f040 0040 	orr.w	r0, r0, #64	; 0x40
    3578:	6108      	str	r0, [r1, #16]
    357a:	f640 70ff 	movw	r0, #4095	; 0xfff
    357e:	f7ff ff85 	bl	0x348c
    3582:	4604      	mov	r4, r0
    3584:	2c04      	cmp	r4, #4
    3586:	d11d      	bne.n	0x35c4
    3588:	4896      	ldr	r0, [pc, #600]	; (0x37e4)
    358a:	6900      	ldr	r0, [r0, #16]
    358c:	f641 71df 	movw	r1, #8159	; 0x1fdf
    3590:	4008      	ands	r0, r1
    3592:	4994      	ldr	r1, [pc, #592]	; (0x37e4)
    3594:	6108      	str	r0, [r1, #16]
    3596:	4608      	mov	r0, r1
    3598:	6900      	ldr	r0, [r0, #16]
    359a:	f040 0010 	orr.w	r0, r0, #16
    359e:	6108      	str	r0, [r1, #16]
    35a0:	20a5      	movs	r0, #165	; 0xa5
    35a2:	4993      	ldr	r1, [pc, #588]	; (0x37f0)
    35a4:	8008      	strh	r0, [r1, #0]
    35a6:	f04f 000f 	mov.w	r0, #15
    35aa:	f7ff ff6f 	bl	0x348c
    35ae:	4604      	mov	r4, r0
    35b0:	2c05      	cmp	r4, #5
    35b2:	d010      	beq.n	0x35d6
    35b4:	488b      	ldr	r0, [pc, #556]	; (0x37e4)
    35b6:	6900      	ldr	r0, [r0, #16]
    35b8:	f641 71ef 	movw	r1, #8175	; 0x1fef
    35bc:	4008      	ands	r0, r1
    35be:	4989      	ldr	r1, [pc, #548]	; (0x37e4)
    35c0:	6108      	str	r0, [r1, #16]
    35c2:	e008      	b.n	0x35d6
    35c4:	2c05      	cmp	r4, #5
    35c6:	d006      	beq.n	0x35d6
    35c8:	4886      	ldr	r0, [pc, #536]	; (0x37e4)
    35ca:	6900      	ldr	r0, [r0, #16]
    35cc:	f641 71ef 	movw	r1, #8175	; 0x1fef
    35d0:	4008      	ands	r0, r1
    35d2:	4984      	ldr	r1, [pc, #528]	; (0x37e4)
    35d4:	6108      	str	r0, [r1, #16]
    35d6:	4620      	mov	r0, r4
    35d8:	bd10      	pop	{r4, pc}
    35da:	e92d 41f0 	stmdb	sp!, {r4, r5, r6, r7, r8, lr}
    35de:	4605      	mov	r5, r0
    35e0:	460e      	mov	r6, r1
    35e2:	2404      	movs	r4, #4
    35e4:	2700      	movs	r7, #0
    35e6:	200f      	movs	r0, #15
    35e8:	f7ff ff50 	bl	0x348c
    35ec:	4604      	mov	r4, r0
    35ee:	2c04      	cmp	r4, #4
    35f0:	d126      	bne.n	0x3640
    35f2:	487c      	ldr	r0, [pc, #496]	; (0x37e4)
    35f4:	6900      	ldr	r0, [r0, #16]
    35f6:	f040 0001 	orr.w	r0, r0, #1
    35fa:	497a      	ldr	r1, [pc, #488]	; (0x37e4)
    35fc:	6108      	str	r0, [r1, #16]
    35fe:	802e      	strh	r6, [r5, #0]
    3600:	200f      	movs	r0, #15
    3602:	f7ff ff43 	bl	0x348c
    3606:	4604      	mov	r4, r0
    3608:	2c04      	cmp	r4, #4
    360a:	d110      	bne.n	0x362e
    360c:	1caf      	adds	r7, r5, #2
    360e:	0c30      	lsrs	r0, r6, #16
    3610:	8038      	strh	r0, [r7, #0]
    3612:	200f      	movs	r0, #15
    3614:	f7ff ff3a 	bl	0x348c
    3618:	4604      	mov	r4, r0
    361a:	2c05      	cmp	r4, #5
    361c:	d010      	beq.n	0x3640
    361e:	4871      	ldr	r0, [pc, #452]	; (0x37e4)
    3620:	6900      	ldr	r0, [r0, #16]
    3622:	f641 71fe 	movw	r1, #8190	; 0x1ffe
    3626:	4008      	ands	r0, r1
    3628:	496e      	ldr	r1, [pc, #440]	; (0x37e4)
    362a:	6108      	str	r0, [r1, #16]
    362c:	e008      	b.n	0x3640
    362e:	2c05      	cmp	r4, #5
    3630:	d006      	beq.n	0x3640
    3632:	486c      	ldr	r0, [pc, #432]	; (0x37e4)
    3634:	6900      	ldr	r0, [r0, #16]
    3636:	f641 71fe 	movw	r1, #8190	; 0x1ffe
    363a:	4008      	ands	r0, r1
    363c:	4969      	ldr	r1, [pc, #420]	; (0x37e4)
    363e:	6108      	str	r0, [r1, #16]
    3640:	4620      	mov	r0, r4
    3642:	e8bd 81f0 	ldmia.w	sp!, {r4, r5, r6, r7, r8, pc}
    3646:	b570      	push	{r4, r5, r6, lr}
    3648:	4605      	mov	r5, r0
    364a:	460e      	mov	r6, r1
    364c:	2404      	movs	r4, #4
    364e:	200f      	movs	r0, #15
    3650:	f7ff ff1c 	bl	0x348c
    3654:	4604      	mov	r4, r0
    3656:	2c04      	cmp	r4, #4
    3658:	d113      	bne.n	0x3682
    365a:	4862      	ldr	r0, [pc, #392]	; (0x37e4)
    365c:	6900      	ldr	r0, [r0, #16]
    365e:	f040 0001 	orr.w	r0, r0, #1
    3662:	4960      	ldr	r1, [pc, #384]	; (0x37e4)
    3664:	6108      	str	r0, [r1, #16]
    3666:	802e      	strh	r6, [r5, #0]
    3668:	200f      	movs	r0, #15
    366a:	f7ff ff0f 	bl	0x348c
    366e:	4604      	mov	r4, r0
    3670:	2c05      	cmp	r4, #5
    3672:	d006      	beq.n	0x3682
    3674:	485b      	ldr	r0, [pc, #364]	; (0x37e4)
    3676:	6900      	ldr	r0, [r0, #16]
    3678:	f641 71fe 	movw	r1, #8190	; 0x1ffe
    367c:	4008      	ands	r0, r1
    367e:	4959      	ldr	r1, [pc, #356]	; (0x37e4)
    3680:	6108      	str	r0, [r1, #16]
    3682:	4620      	mov	r0, r4
    3684:	bd70      	pop	{r4, r5, r6, pc}
    3686:	b570      	push	{r4, r5, r6, lr}
    3688:	4605      	mov	r5, r0
    368a:	460e      	mov	r6, r1
    368c:	2404      	movs	r4, #4
    368e:	200f      	movs	r0, #15
    3690:	f7ff fefc 	bl	0x348c
    3694:	4604      	mov	r4, r0
    3696:	2c04      	cmp	r4, #4
    3698:	d117      	bne.n	0x36ca
    369a:	4853      	ldr	r0, [pc, #332]	; (0x37e8)
    369c:	4951      	ldr	r1, [pc, #324]	; (0x37e4)
    369e:	6088      	str	r0, [r1, #8]
    36a0:	4852      	ldr	r0, [pc, #328]	; (0x37ec)
    36a2:	6088      	str	r0, [r1, #8]
    36a4:	4608      	mov	r0, r1
    36a6:	6900      	ldr	r0, [r0, #16]
    36a8:	f040 0010 	orr.w	r0, r0, #16
    36ac:	6108      	str	r0, [r1, #16]
    36ae:	802e      	strh	r6, [r5, #0]
    36b0:	200f      	movs	r0, #15
    36b2:	f7ff feeb 	bl	0x348c
    36b6:	4604      	mov	r4, r0
    36b8:	2c05      	cmp	r4, #5
    36ba:	d006      	beq.n	0x36ca
    36bc:	4849      	ldr	r0, [pc, #292]	; (0x37e4)
    36be:	6900      	ldr	r0, [r0, #16]
    36c0:	f641 71ef 	movw	r1, #8175	; 0x1fef
    36c4:	4008      	ands	r0, r1
    36c6:	4947      	ldr	r1, [pc, #284]	; (0x37e4)
    36c8:	6108      	str	r0, [r1, #16]
    36ca:	4620      	mov	r0, r4
    36cc:	bd70      	pop	{r4, r5, r6, pc}
    36ce:	e92d 47f0 	stmdb	sp!, {r4, r5, r6, r7, r8, r9, sl, lr}
    36d2:	4604      	mov	r4, r0
    36d4:	f64f 76ff 	movw	r6, #65535	; 0xffff
    36d8:	4637      	mov	r7, r6
    36da:	46b0      	mov	r8, r6
    36dc:	46b1      	mov	r9, r6
    36de:	2504      	movs	r5, #4
    36e0:	43e4      	mvns	r4, r4
    36e2:	b2e6      	uxtb	r6, r4
    36e4:	f3c4 2707 	ubfx	r7, r4, #8, #8
    36e8:	f3c4 4807 	ubfx	r8, r4, #16, #8
    36ec:	ea4f 6914 	mov.w	r9, r4, lsr #24
    36f0:	200f      	movs	r0, #15
    36f2:	f7ff fecb 	bl	0x348c
    36f6:	4605      	mov	r5, r0
    36f8:	2d04      	cmp	r5, #4
    36fa:	d13e      	bne.n	0x377a
    36fc:	483a      	ldr	r0, [pc, #232]	; (0x37e8)
    36fe:	4939      	ldr	r1, [pc, #228]	; (0x37e4)
    3700:	6088      	str	r0, [r1, #8]
    3702:	483a      	ldr	r0, [pc, #232]	; (0x37ec)
    3704:	6088      	str	r0, [r1, #8]
    3706:	4608      	mov	r0, r1
    3708:	6900      	ldr	r0, [r0, #16]
    370a:	f040 0010 	orr.w	r0, r0, #16
    370e:	6108      	str	r0, [r1, #16]
    3710:	2eff      	cmp	r6, #255	; 0xff
    3712:	d006      	beq.n	0x3722
    3714:	4837      	ldr	r0, [pc, #220]	; (0x37f4)
    3716:	8006      	strh	r6, [r0, #0]
    3718:	f04f 000f 	mov.w	r0, #15
    371c:	f7ff feb6 	bl	0x348c
    3720:	4605      	mov	r5, r0
    3722:	2d04      	cmp	r5, #4
    3724:	d108      	bne.n	0x3738
    3726:	2fff      	cmp	r7, #255	; 0xff
    3728:	d006      	beq.n	0x3738
    372a:	4833      	ldr	r0, [pc, #204]	; (0x37f8)
    372c:	8007      	strh	r7, [r0, #0]
    372e:	f04f 000f 	mov.w	r0, #15
    3732:	f7ff feab 	bl	0x348c
    3736:	4605      	mov	r5, r0
    3738:	2d04      	cmp	r5, #4
    373a:	d109      	bne.n	0x3750
    373c:	f1b8 0fff 	cmp.w	r8, #255	; 0xff
    3740:	d006      	beq.n	0x3750
    3742:	482e      	ldr	r0, [pc, #184]	; (0x37fc)
    3744:	f8a0 880c 	strh.w	r8, [r0, #2060]	; 0x80c
    3748:	200f      	movs	r0, #15
    374a:	f7ff fe9f 	bl	0x348c
    374e:	4605      	mov	r5, r0
    3750:	2d04      	cmp	r5, #4
    3752:	d109      	bne.n	0x3768
    3754:	f1b9 0fff 	cmp.w	r9, #255	; 0xff
    3758:	d006      	beq.n	0x3768
    375a:	4828      	ldr	r0, [pc, #160]	; (0x37fc)
    375c:	f8a0 980e 	strh.w	r9, [r0, #2062]	; 0x80e
    3760:	200f      	movs	r0, #15
    3762:	f7ff fe93 	bl	0x348c
    3766:	4605      	mov	r5, r0
    3768:	2d05      	cmp	r5, #5
    376a:	d006      	beq.n	0x377a
    376c:	481d      	ldr	r0, [pc, #116]	; (0x37e4)
    376e:	6900      	ldr	r0, [r0, #16]
    3770:	f641 71ef 	movw	r1, #8175	; 0x1fef
    3774:	4008      	ands	r0, r1
    3776:	491b      	ldr	r1, [pc, #108]	; (0x37e4)
    3778:	6108      	str	r0, [r1, #16]
    377a:	4628      	mov	r0, r5
    377c:	e8bd 87f0 	ldmia.w	sp!, {r4, r5, r6, r7, r8, r9, sl, pc}
    3780:	b570      	push	{r4, r5, r6, lr}
    3782:	4605      	mov	r5, r0
    3784:	2404      	movs	r4, #4
    3786:	f640 70ff 	movw	r0, #4095	; 0xfff
    378a:	f7ff fe7f 	bl	0x348c
    378e:	4604      	mov	r4, r0
    3790:	2c04      	cmp	r4, #4
    3792:	d150      	bne.n	0x3836
    3794:	4814      	ldr	r0, [pc, #80]	; (0x37e8)
    3796:	4913      	ldr	r1, [pc, #76]	; (0x37e4)
    3798:	6088      	str	r0, [r1, #8]
    379a:	4814      	ldr	r0, [pc, #80]	; (0x37ec)
    379c:	6088      	str	r0, [r1, #8]
    379e:	4608      	mov	r0, r1
    37a0:	6900      	ldr	r0, [r0, #16]
    37a2:	f040 0020 	orr.w	r0, r0, #32
    37a6:	6108      	str	r0, [r1, #16]
    37a8:	4608      	mov	r0, r1
    37aa:	6900      	ldr	r0, [r0, #16]
    37ac:	f040 0040 	orr.w	r0, r0, #64	; 0x40
    37b0:	6108      	str	r0, [r1, #16]
    37b2:	f640 70ff 	movw	r0, #4095	; 0xfff
    37b6:	f7ff fe69 	bl	0x348c
    37ba:	4604      	mov	r4, r0
    37bc:	2c04      	cmp	r4, #4
    37be:	d131      	bne.n	0x3824
    37c0:	4808      	ldr	r0, [pc, #32]	; (0x37e4)
    37c2:	6900      	ldr	r0, [r0, #16]
    37c4:	f641 71df 	movw	r1, #8159	; 0x1fdf
    37c8:	4008      	ands	r0, r1
    37ca:	4906      	ldr	r1, [pc, #24]	; (0x37e4)
    37cc:	6108      	str	r0, [r1, #16]
    37ce:	4608      	mov	r0, r1
    37d0:	6900      	ldr	r0, [r0, #16]
    37d2:	f040 0010 	orr.w	r0, r0, #16
    37d6:	6108      	str	r0, [r1, #16]
    37d8:	b195      	cbz	r5, 0x3800
    37da:	2000      	movs	r0, #0
    37dc:	4904      	ldr	r1, [pc, #16]	; (0x37f0)
    37de:	8008      	strh	r0, [r1, #0]
    37e0:	e011      	b.n	0x3806
    37e2:	0000      	movs	r0, r0
    37e4:	2000      	movs	r0, #0
    37e6:	4002      	ands	r2, r0
    37e8:	0123      	lsls	r3, r4, #4
    37ea:	4567      	cmp	r7, ip
    37ec:	89ab      	ldrh	r3, [r5, #12]
    37ee:	cdef      	ldmia	r5, {r0, r1, r2, r3, r5, r6, r7}
    37f0:	f800 1fff 	strb.w	r1, [r0, #255]!
    37f4:	f808 1fff 	strb.w	r1, [r8, #255]!
    37f8:	f80a 1fff 	strb.w	r1, [sl, #255]!
    37fc:	f000 1fff 	and.w	pc, r0, #16711935	; 0xff00ff
    3800:	20a5      	movs	r0, #165	; 0xa5
    3802:	4945      	ldr	r1, [pc, #276]	; (0x3918)
    3804:	8008      	strh	r0, [r1, #0]
    3806:	f640 70ff 	movw	r0, #4095	; 0xfff
    380a:	f7ff fe3f 	bl	0x348c
    380e:	4604      	mov	r4, r0
    3810:	2c05      	cmp	r4, #5
    3812:	d010      	beq.n	0x3836
    3814:	4841      	ldr	r0, [pc, #260]	; (0x391c)
    3816:	6900      	ldr	r0, [r0, #16]
    3818:	f641 71ef 	movw	r1, #8175	; 0x1fef
    381c:	4008      	ands	r0, r1
    381e:	493f      	ldr	r1, [pc, #252]	; (0x391c)
    3820:	6108      	str	r0, [r1, #16]
    3822:	e008      	b.n	0x3836
    3824:	2c05      	cmp	r4, #5
    3826:	d006      	beq.n	0x3836
    3828:	483c      	ldr	r0, [pc, #240]	; (0x391c)
    382a:	6900      	ldr	r0, [r0, #16]
    382c:	f641 71df 	movw	r1, #8159	; 0x1fdf
    3830:	4008      	ands	r0, r1
    3832:	493a      	ldr	r1, [pc, #232]	; (0x391c)
    3834:	6108      	str	r0, [r1, #16]
    3836:	4620      	mov	r0, r4
    3838:	bd70      	pop	{r4, r5, r6, pc}
    383a:	e92d 41f0 	stmdb	sp!, {r4, r5, r6, r7, r8, lr}
    383e:	4605      	mov	r5, r0
    3840:	460e      	mov	r6, r1
    3842:	4617      	mov	r7, r2
    3844:	2404      	movs	r4, #4
    3846:	4836      	ldr	r0, [pc, #216]	; (0x3920)
    3848:	4934      	ldr	r1, [pc, #208]	; (0x391c)
    384a:	6088      	str	r0, [r1, #8]
    384c:	4835      	ldr	r0, [pc, #212]	; (0x3924)
    384e:	6088      	str	r0, [r1, #8]
    3850:	200f      	movs	r0, #15
    3852:	f7ff fe1b 	bl	0x348c
    3856:	4604      	mov	r4, r0
    3858:	2c04      	cmp	r4, #4
    385a:	d119      	bne.n	0x3890
    385c:	482f      	ldr	r0, [pc, #188]	; (0x391c)
    385e:	6900      	ldr	r0, [r0, #16]
    3860:	f040 0010 	orr.w	r0, r0, #16
    3864:	492d      	ldr	r1, [pc, #180]	; (0x391c)
    3866:	6108      	str	r0, [r1, #16]
    3868:	f047 00f8 	orr.w	r0, r7, #248	; 0xf8
    386c:	4330      	orrs	r0, r6
    386e:	4328      	orrs	r0, r5
    3870:	492d      	ldr	r1, [pc, #180]	; (0x3928)
    3872:	8008      	strh	r0, [r1, #0]
    3874:	f04f 000f 	mov.w	r0, #15
    3878:	f7ff fe08 	bl	0x348c
    387c:	4604      	mov	r4, r0
    387e:	2c05      	cmp	r4, #5
    3880:	d006      	beq.n	0x3890
    3882:	4826      	ldr	r0, [pc, #152]	; (0x391c)
    3884:	6900      	ldr	r0, [r0, #16]
    3886:	f641 71ef 	movw	r1, #8175	; 0x1fef
    388a:	4008      	ands	r0, r1
    388c:	4923      	ldr	r1, [pc, #140]	; (0x391c)
    388e:	6108      	str	r0, [r1, #16]
    3890:	4620      	mov	r0, r4
    3892:	e8bd 81f0 	ldmia.w	sp!, {r4, r5, r6, r7, r8, pc}
    3896:	4821      	ldr	r0, [pc, #132]	; (0x391c)
    3898:	69c0      	ldr	r0, [r0, #28]
    389a:	0880      	lsrs	r0, r0, #2
    389c:	4770      	bx	lr
    389e:	481f      	ldr	r0, [pc, #124]	; (0x391c)
    38a0:	6a00      	ldr	r0, [r0, #32]
    38a2:	4770      	bx	lr
    38a4:	2000      	movs	r0, #0
    38a6:	491d      	ldr	r1, [pc, #116]	; (0x391c)
    38a8:	69c9      	ldr	r1, [r1, #28]
    38aa:	f011 0f02 	tst.w	r1, #2
    38ae:	d001      	beq.n	0x38b4
    38b0:	2001      	movs	r0, #1
    38b2:	e000      	b.n	0x38b6
    38b4:	2000      	movs	r0, #0
    38b6:	4770      	bx	lr
    38b8:	2000      	movs	r0, #0
    38ba:	4918      	ldr	r1, [pc, #96]	; (0x391c)
    38bc:	6809      	ldr	r1, [r1, #0]
    38be:	f011 0f20 	tst.w	r1, #32
    38c2:	d001      	beq.n	0x38c8
    38c4:	2001      	movs	r0, #1
    38c6:	e000      	b.n	0x38ca
    38c8:	2000      	movs	r0, #0
    38ca:	4770      	bx	lr
    38cc:	b129      	cbz	r1, 0x38da
    38ce:	4a13      	ldr	r2, [pc, #76]	; (0x391c)
    38d0:	6912      	ldr	r2, [r2, #16]
    38d2:	4302      	orrs	r2, r0
    38d4:	4b11      	ldr	r3, [pc, #68]	; (0x391c)
    38d6:	611a      	str	r2, [r3, #16]
    38d8:	e004      	b.n	0x38e4
    38da:	4a10      	ldr	r2, [pc, #64]	; (0x391c)
    38dc:	6912      	ldr	r2, [r2, #16]
    38de:	4382      	bics	r2, r0
    38e0:	4b0e      	ldr	r3, [pc, #56]	; (0x391c)
    38e2:	611a      	str	r2, [r3, #16]
    38e4:	4770      	bx	lr
    38e6:	4601      	mov	r1, r0
    38e8:	2000      	movs	r0, #0
    38ea:	2901      	cmp	r1, #1
    38ec:	d108      	bne.n	0x3900
    38ee:	4a0b      	ldr	r2, [pc, #44]	; (0x391c)
    38f0:	69d2      	ldr	r2, [r2, #28]
    38f2:	f012 0f01 	tst.w	r2, #1
    38f6:	d001      	beq.n	0x38fc
    38f8:	2001      	movs	r0, #1
    38fa:	e008      	b.n	0x390e
    38fc:	2000      	movs	r0, #0
    38fe:	e006      	b.n	0x390e
    3900:	4a06      	ldr	r2, [pc, #24]	; (0x391c)
    3902:	68d2      	ldr	r2, [r2, #12]
    3904:	420a      	tst	r2, r1
    3906:	d001      	beq.n	0x390c
    3908:	2001      	movs	r0, #1
    390a:	e000      	b.n	0x390e
    390c:	2000      	movs	r0, #0
    390e:	4770      	bx	lr
    3910:	4902      	ldr	r1, [pc, #8]	; (0x391c)
    3912:	60c8      	str	r0, [r1, #12]
    3914:	4770      	bx	lr
    3916:	0000      	movs	r0, r0
    3918:	f800 1fff 	strb.w	r1, [r0, #255]!
    391c:	2000      	movs	r0, #0
    391e:	4002      	ands	r2, r0
    3920:	0123      	lsls	r3, r4, #4
    3922:	4567      	cmp	r7, ip
    3924:	89ab      	ldrh	r3, [r5, #12]
    3926:	cdef      	ldmia	r5, {r0, r1, r2, r3, r5, r6, r7}
    3928:	f802 1fff 	strb.w	r1, [r2, #255]!
    392c:	b510      	push	{r4, lr}
    392e:	4604      	mov	r4, r0
    3930:	48c2      	ldr	r0, [pc, #776]	; (0x3c3c)
    3932:	4284      	cmp	r4, r0
    3934:	d108      	bne.n	0x3948
    3936:	2101      	movs	r1, #1
    3938:	2004      	movs	r0, #4
    393a:	f000 fb14 	bl	0x3f66
    393e:	2100      	movs	r1, #0
    3940:	2004      	movs	r0, #4
    3942:	f000 fb10 	bl	0x3f66
    3946:	e046      	b.n	0x39d6
    3948:	48bd      	ldr	r0, [pc, #756]	; (0x3c40)
    394a:	4284      	cmp	r4, r0
    394c:	d108      	bne.n	0x3960
    394e:	2101      	movs	r1, #1
    3950:	2008      	movs	r0, #8
    3952:	f000 fb08 	bl	0x3f66
    3956:	2100      	movs	r1, #0
    3958:	2008      	movs	r0, #8
    395a:	f000 fb04 	bl	0x3f66
    395e:	e03a      	b.n	0x39d6
    3960:	48b8      	ldr	r0, [pc, #736]	; (0x3c44)
    3962:	4284      	cmp	r4, r0
    3964:	d108      	bne.n	0x3978
    3966:	2101      	movs	r1, #1
    3968:	2010      	movs	r0, #16
    396a:	f000 fafc 	bl	0x3f66
    396e:	2100      	movs	r1, #0
    3970:	2010      	movs	r0, #16
    3972:	f000 faf8 	bl	0x3f66
    3976:	e02e      	b.n	0x39d6
    3978:	48b3      	ldr	r0, [pc, #716]	; (0x3c48)
    397a:	4284      	cmp	r4, r0
    397c:	d108      	bne.n	0x3990
    397e:	2101      	movs	r1, #1
    3980:	2020      	movs	r0, #32
    3982:	f000 faf0 	bl	0x3f66
    3986:	2100      	movs	r1, #0
    3988:	2020      	movs	r0, #32
    398a:	f000 faec 	bl	0x3f66
    398e:	e022      	b.n	0x39d6
    3990:	48ae      	ldr	r0, [pc, #696]	; (0x3c4c)
    3992:	4284      	cmp	r4, r0
    3994:	d108      	bne.n	0x39a8
    3996:	2101      	movs	r1, #1
    3998:	2040      	movs	r0, #64	; 0x40
    399a:	f000 fae4 	bl	0x3f66
    399e:	2100      	movs	r1, #0
    39a0:	2040      	movs	r0, #64	; 0x40
    39a2:	f000 fae0 	bl	0x3f66
    39a6:	e016      	b.n	0x39d6
    39a8:	48a9      	ldr	r0, [pc, #676]	; (0x3c50)
    39aa:	4284      	cmp	r4, r0
    39ac:	d108      	bne.n	0x39c0
    39ae:	2101      	movs	r1, #1
    39b0:	2080      	movs	r0, #128	; 0x80
    39b2:	f000 fad8 	bl	0x3f66
    39b6:	2100      	movs	r1, #0
    39b8:	2080      	movs	r0, #128	; 0x80
    39ba:	f000 fad4 	bl	0x3f66
    39be:	e00a      	b.n	0x39d6
    39c0:	48a4      	ldr	r0, [pc, #656]	; (0x3c54)
    39c2:	4284      	cmp	r4, r0
    39c4:	d107      	bne.n	0x39d6
    39c6:	2101      	movs	r1, #1
    39c8:	1580      	asrs	r0, r0, #22
    39ca:	f000 facc 	bl	0x3f66
    39ce:	2100      	movs	r1, #0
    39d0:	15a0      	asrs	r0, r4, #22
    39d2:	f000 fac8 	bl	0x3f66
    39d6:	bd10      	pop	{r4, pc}
    39d8:	b510      	push	{r4, lr}
    39da:	2101      	movs	r1, #1
    39dc:	4608      	mov	r0, r1
    39de:	f000 fac2 	bl	0x3f66
    39e2:	2100      	movs	r1, #0
    39e4:	2001      	movs	r0, #1
    39e6:	f000 fabe 	bl	0x3f66
    39ea:	bd10      	pop	{r4, pc}
    39ec:	e92d 41f0 	stmdb	sp!, {r4, r5, r6, r7, r8, lr}
    39f0:	4602      	mov	r2, r0
    39f2:	2500      	movs	r5, #0
    39f4:	2600      	movs	r6, #0
    39f6:	2000      	movs	r0, #0
    39f8:	2300      	movs	r3, #0
    39fa:	2400      	movs	r4, #0
    39fc:	2700      	movs	r7, #0
    39fe:	f891 c003 	ldrb.w	ip, [r1, #3]
    3a02:	f00c 050f 	and.w	r5, ip, #15
    3a06:	f891 c003 	ldrb.w	ip, [r1, #3]
    3a0a:	f01c 0f10 	tst.w	ip, #16
    3a0e:	d003      	beq.n	0x3a18
    3a10:	f891 c002 	ldrb.w	ip, [r1, #2]
    3a14:	ea4c 0505 	orr.w	r5, ip, r5
    3a18:	f8b1 c000 	ldrh.w	ip, [r1]
    3a1c:	f01c 0fff 	tst.w	ip, #255	; 0xff
    3a20:	d031      	beq.n	0x3a86
    3a22:	6814      	ldr	r4, [r2, #0]
    3a24:	2000      	movs	r0, #0
    3a26:	e02b      	b.n	0x3a80
    3a28:	f04f 0c01 	mov.w	ip, #1
    3a2c:	fa0c f300 	lsl.w	r3, ip, r0
    3a30:	f8b1 c000 	ldrh.w	ip, [r1]
    3a34:	ea0c 0603 	and.w	r6, ip, r3
    3a38:	429e      	cmp	r6, r3
    3a3a:	d120      	bne.n	0x3a7e
    3a3c:	0083      	lsls	r3, r0, #2
    3a3e:	f04f 0c0f 	mov.w	ip, #15
    3a42:	fa0c f703 	lsl.w	r7, ip, r3
    3a46:	43bc      	bics	r4, r7
    3a48:	fa05 fc03 	lsl.w	ip, r5, r3
    3a4c:	ea4c 0404 	orr.w	r4, ip, r4
    3a50:	f891 c003 	ldrb.w	ip, [r1, #3]
    3a54:	f1bc 0f28 	cmp.w	ip, #40	; 0x28
    3a58:	d106      	bne.n	0x3a68
    3a5a:	f04f 0c01 	mov.w	ip, #1
    3a5e:	fa0c fc00 	lsl.w	ip, ip, r0
    3a62:	f8c2 c014 	str.w	ip, [r2, #20]
    3a66:	e00a      	b.n	0x3a7e
    3a68:	f891 c003 	ldrb.w	ip, [r1, #3]
    3a6c:	f1bc 0f48 	cmp.w	ip, #72	; 0x48
    3a70:	d105      	bne.n	0x3a7e
    3a72:	f04f 0c01 	mov.w	ip, #1
    3a76:	fa0c fc00 	lsl.w	ip, ip, r0
    3a7a:	f8c2 c010 	str.w	ip, [r2, #16]
    3a7e:	1c40      	adds	r0, r0, #1
    3a80:	2808      	cmp	r0, #8
    3a82:	d3d1      	bcc.n	0x3a28
    3a84:	6014      	str	r4, [r2, #0]
    3a86:	f8b1 c000 	ldrh.w	ip, [r1]
    3a8a:	f1bc 0fff 	cmp.w	ip, #255	; 0xff
    3a8e:	dd34      	ble.n	0x3afa
    3a90:	6854      	ldr	r4, [r2, #4]
    3a92:	2000      	movs	r0, #0
    3a94:	e02e      	b.n	0x3af4
    3a96:	f100 0c08 	add.w	ip, r0, #8
    3a9a:	f04f 0801 	mov.w	r8, #1
    3a9e:	fa08 f30c 	lsl.w	r3, r8, ip
    3aa2:	f8b1 c000 	ldrh.w	ip, [r1]
    3aa6:	ea0c 0603 	and.w	r6, ip, r3
    3aaa:	429e      	cmp	r6, r3
    3aac:	d121      	bne.n	0x3af2
    3aae:	0083      	lsls	r3, r0, #2
    3ab0:	f04f 0c0f 	mov.w	ip, #15
    3ab4:	fa0c f703 	lsl.w	r7, ip, r3
    3ab8:	43bc      	bics	r4, r7
    3aba:	fa05 fc03 	lsl.w	ip, r5, r3
    3abe:	ea4c 0404 	orr.w	r4, ip, r4
    3ac2:	f891 c003 	ldrb.w	ip, [r1, #3]
    3ac6:	f1bc 0f28 	cmp.w	ip, #40	; 0x28
    3aca:	d105      	bne.n	0x3ad8
    3acc:	f100 0c08 	add.w	ip, r0, #8
    3ad0:	fa08 f80c 	lsl.w	r8, r8, ip
    3ad4:	f8c2 8014 	str.w	r8, [r2, #20]
    3ad8:	f891 c003 	ldrb.w	ip, [r1, #3]
    3adc:	f1bc 0f48 	cmp.w	ip, #72	; 0x48
    3ae0:	d107      	bne.n	0x3af2
    3ae2:	f100 0c08 	add.w	ip, r0, #8
    3ae6:	f04f 0801 	mov.w	r8, #1
    3aea:	fa08 f80c 	lsl.w	r8, r8, ip
    3aee:	f8c2 8010 	str.w	r8, [r2, #16]
    3af2:	1c40      	adds	r0, r0, #1
    3af4:	2808      	cmp	r0, #8
    3af6:	d3ce      	bcc.n	0x3a96
    3af8:	6054      	str	r4, [r2, #4]
    3afa:	e8bd 81f0 	ldmia.w	sp!, {r4, r5, r6, r7, r8, pc}
    3afe:	f64f 71ff 	movw	r1, #65535	; 0xffff
    3b02:	8001      	strh	r1, [r0, #0]
    3b04:	2102      	movs	r1, #2
    3b06:	7081      	strb	r1, [r0, #2]
    3b08:	2104      	movs	r1, #4
    3b0a:	70c1      	strb	r1, [r0, #3]
    3b0c:	4770      	bx	lr
    3b0e:	4602      	mov	r2, r0
    3b10:	2000      	movs	r0, #0
    3b12:	6893      	ldr	r3, [r2, #8]
    3b14:	420b      	tst	r3, r1
    3b16:	d001      	beq.n	0x3b1c
    3b18:	2001      	movs	r0, #1
    3b1a:	e000      	b.n	0x3b1e
    3b1c:	2000      	movs	r0, #0
    3b1e:	4770      	bx	lr
    3b20:	4601      	mov	r1, r0
    3b22:	6888      	ldr	r0, [r1, #8]
    3b24:	b280      	uxth	r0, r0
    3b26:	4770      	bx	lr
    3b28:	4602      	mov	r2, r0
    3b2a:	2000      	movs	r0, #0
    3b2c:	68d3      	ldr	r3, [r2, #12]
    3b2e:	420b      	tst	r3, r1
    3b30:	d001      	beq.n	0x3b36
    3b32:	2001      	movs	r0, #1
    3b34:	e000      	b.n	0x3b38
    3b36:	2000      	movs	r0, #0
    3b38:	4770      	bx	lr
    3b3a:	4601      	mov	r1, r0
    3b3c:	68c8      	ldr	r0, [r1, #12]
    3b3e:	b280      	uxth	r0, r0
    3b40:	4770      	bx	lr
    3b42:	6101      	str	r1, [r0, #16]
    3b44:	4770      	bx	lr
    3b46:	6141      	str	r1, [r0, #20]
    3b48:	4770      	bx	lr
    3b4a:	b10a      	cbz	r2, 0x3b50
    3b4c:	6101      	str	r1, [r0, #16]
    3b4e:	e000      	b.n	0x3b52
    3b50:	6141      	str	r1, [r0, #20]
    3b52:	4770      	bx	lr
    3b54:	60c1      	str	r1, [r0, #12]
    3b56:	4770      	bx	lr
    3b58:	f44f 3280 	mov.w	r2, #65536	; 0x10000
    3b5c:	430a      	orrs	r2, r1
    3b5e:	6182      	str	r2, [r0, #24]
    3b60:	6181      	str	r1, [r0, #24]
    3b62:	6182      	str	r2, [r0, #24]
    3b64:	6982      	ldr	r2, [r0, #24]
    3b66:	6982      	ldr	r2, [r0, #24]
    3b68:	4770      	bx	lr
    3b6a:	4602      	mov	r2, r0
    3b6c:	2000      	movs	r0, #0
    3b6e:	4b3a      	ldr	r3, [pc, #232]	; (0x3c58)
    3b70:	6818      	ldr	r0, [r3, #0]
    3b72:	f64f 7380 	movw	r3, #65408	; 0xff80
    3b76:	4018      	ands	r0, r3
    3b78:	ea40 1002 	orr.w	r0, r0, r2, lsl #4
    3b7c:	4308      	orrs	r0, r1
    3b7e:	4b36      	ldr	r3, [pc, #216]	; (0x3c58)
    3b80:	6018      	str	r0, [r3, #0]
    3b82:	4770      	bx	lr
    3b84:	4935      	ldr	r1, [pc, #212]	; (0x3c5c)
    3b86:	61c8      	str	r0, [r1, #28]
    3b88:	4770      	bx	lr
    3b8a:	b5f0      	push	{r4, r5, r6, r7, lr}
    3b8c:	460a      	mov	r2, r1
    3b8e:	2300      	movs	r3, #0
    3b90:	2400      	movs	r4, #0
    3b92:	2100      	movs	r1, #0
    3b94:	2500      	movs	r5, #0
    3b96:	4e30      	ldr	r6, [pc, #192]	; (0x3c58)
    3b98:	6871      	ldr	r1, [r6, #4]
    3b9a:	f3c0 4503 	ubfx	r5, r0, #16, #4
    3b9e:	b283      	uxth	r3, r0
    3ba0:	f400 1640 	and.w	r6, r0, #3145728	; 0x300000
    3ba4:	f5b6 1f40 	cmp.w	r6, #3145728	; 0x300000
    3ba8:	d108      	bne.n	0x3bbc
    3baa:	f021 6170 	bic.w	r1, r1, #251658240	; 0xf000000
    3bae:	4e2a      	ldr	r6, [pc, #168]	; (0x3c58)
    3bb0:	6876      	ldr	r6, [r6, #4]
    3bb2:	f026 6670 	bic.w	r6, r6, #251658240	; 0xf000000
    3bb6:	4f28      	ldr	r7, [pc, #160]	; (0x3c58)
    3bb8:	607e      	str	r6, [r7, #4]
    3bba:	e012      	b.n	0x3be2
    3bbc:	f400 1680 	and.w	r6, r0, #1048576	; 0x100000
    3bc0:	f5b6 1f80 	cmp.w	r6, #1048576	; 0x100000
    3bc4:	d106      	bne.n	0x3bd4
    3bc6:	2603      	movs	r6, #3
    3bc8:	fa06 f405 	lsl.w	r4, r6, r5
    3bcc:	43a1      	bics	r1, r4
    3bce:	f041 6170 	orr.w	r1, r1, #251658240	; 0xf000000
    3bd2:	e006      	b.n	0x3be2
    3bd4:	0d46      	lsrs	r6, r0, #21
    3bd6:	0136      	lsls	r6, r6, #4
    3bd8:	fa03 f606 	lsl.w	r6, r3, r6
    3bdc:	43b1      	bics	r1, r6
    3bde:	f041 6170 	orr.w	r1, r1, #251658240	; 0xf000000
    3be2:	b122      	cbz	r2, 0x3bee
    3be4:	0d46      	lsrs	r6, r0, #21
    3be6:	0136      	lsls	r6, r6, #4
    3be8:	fa03 f606 	lsl.w	r6, r3, r6
    3bec:	4331      	orrs	r1, r6
    3bee:	4e1a      	ldr	r6, [pc, #104]	; (0x3c58)
    3bf0:	6071      	str	r1, [r6, #4]
    3bf2:	bdf0      	pop	{r4, r5, r6, r7, pc}
    3bf4:	b530      	push	{r4, r5, lr}
    3bf6:	2200      	movs	r2, #0
    3bf8:	078b      	lsls	r3, r1, #30
    3bfa:	0f1c      	lsrs	r4, r3, #28
    3bfc:	230f      	movs	r3, #15
    3bfe:	fa03 f204 	lsl.w	r2, r3, r4
    3c02:	4b15      	ldr	r3, [pc, #84]	; (0x3c58)
    3c04:	3308      	adds	r3, #8
    3c06:	108c      	asrs	r4, r1, #2
    3c08:	f853 3024 	ldr.w	r3, [r3, r4, lsl #2]
    3c0c:	4393      	bics	r3, r2
    3c0e:	4c12      	ldr	r4, [pc, #72]	; (0x3c58)
    3c10:	3408      	adds	r4, #8
    3c12:	108d      	asrs	r5, r1, #2
    3c14:	f844 3025 	str.w	r3, [r4, r5, lsl #2]
    3c18:	4623      	mov	r3, r4
    3c1a:	108c      	asrs	r4, r1, #2
    3c1c:	f853 3024 	ldr.w	r3, [r3, r4, lsl #2]
    3c20:	078c      	lsls	r4, r1, #30
    3c22:	0f24      	lsrs	r4, r4, #28
    3c24:	fa00 f404 	lsl.w	r4, r0, r4
    3c28:	4323      	orrs	r3, r4
    3c2a:	4c0b      	ldr	r4, [pc, #44]	; (0x3c58)
    3c2c:	3408      	adds	r4, #8
    3c2e:	108d      	asrs	r5, r1, #2
    3c30:	f844 3025 	str.w	r3, [r4, r5, lsl #2]
    3c34:	bd30      	pop	{r4, r5, pc}
    3c36:	490a      	ldr	r1, [pc, #40]	; (0x3c60)
    3c38:	6008      	str	r0, [r1, #0]
    3c3a:	4770      	bx	lr
    3c3c:	0800      	lsrs	r0, r0, #32
    3c3e:	4001      	ands	r1, r0
    3c40:	0c00      	lsrs	r0, r0, #16
    3c42:	4001      	ands	r1, r0
    3c44:	1000      	asrs	r0, r0, #32
    3c46:	4001      	ands	r1, r0
    3c48:	1400      	asrs	r0, r0, #16
    3c4a:	4001      	ands	r1, r0
    3c4c:	1800      	adds	r0, r0, r0
    3c4e:	4001      	ands	r1, r0
    3c50:	1c00      	adds	r0, r0, #0
    3c52:	4001      	ands	r1, r0
    3c54:	2000      	movs	r0, #0
    3c56:	4001      	ands	r1, r0
    3c58:	0000      	movs	r0, r0
    3c5a:	4001      	ands	r1, r0
    3c5c:	0000      	movs	r0, r0
    3c5e:	4220      	tst	r0, r4
    3c60:	00dc      	lsls	r4, r3, #3
    3c62:	4220      	tst	r0, r4
    3c64:	48db      	ldr	r0, [pc, #876]	; (0x3fd4)
    3c66:	6800      	ldr	r0, [r0, #0]
    3c68:	f040 0001 	orr.w	r0, r0, #1
    3c6c:	49d9      	ldr	r1, [pc, #868]	; (0x3fd4)
    3c6e:	6008      	str	r0, [r1, #0]
    3c70:	4608      	mov	r0, r1
    3c72:	6840      	ldr	r0, [r0, #4]
    3c74:	49d8      	ldr	r1, [pc, #864]	; (0x3fd8)
    3c76:	4008      	ands	r0, r1
    3c78:	49d6      	ldr	r1, [pc, #856]	; (0x3fd4)
    3c7a:	6048      	str	r0, [r1, #4]
    3c7c:	4608      	mov	r0, r1
    3c7e:	6800      	ldr	r0, [r0, #0]
    3c80:	49d6      	ldr	r1, [pc, #856]	; (0x3fdc)
    3c82:	4008      	ands	r0, r1
    3c84:	49d3      	ldr	r1, [pc, #844]	; (0x3fd4)
    3c86:	6008      	str	r0, [r1, #0]
    3c88:	4608      	mov	r0, r1
    3c8a:	6800      	ldr	r0, [r0, #0]
    3c8c:	f420 2080 	bic.w	r0, r0, #262144	; 0x40000
    3c90:	6008      	str	r0, [r1, #0]
    3c92:	4608      	mov	r0, r1
    3c94:	6840      	ldr	r0, [r0, #4]
    3c96:	f420 00fe 	bic.w	r0, r0, #8323072	; 0x7f0000
    3c9a:	6048      	str	r0, [r1, #4]
    3c9c:	f44f 001f 	mov.w	r0, #10420224	; 0x9f0000
    3ca0:	6088      	str	r0, [r1, #8]
    3ca2:	4770      	bx	lr
    3ca4:	49cb      	ldr	r1, [pc, #812]	; (0x3fd4)
    3ca6:	6809      	ldr	r1, [r1, #0]
    3ca8:	f421 3180 	bic.w	r1, r1, #65536	; 0x10000
    3cac:	4ac9      	ldr	r2, [pc, #804]	; (0x3fd4)
    3cae:	6011      	str	r1, [r2, #0]
    3cb0:	4611      	mov	r1, r2
    3cb2:	6809      	ldr	r1, [r1, #0]
    3cb4:	f421 2180 	bic.w	r1, r1, #262144	; 0x40000
    3cb8:	6011      	str	r1, [r2, #0]
    3cba:	f5b0 3f80 	cmp.w	r0, #65536	; 0x10000
    3cbe:	d003      	beq.n	0x3cc8
    3cc0:	f5b0 2f80 	cmp.w	r0, #262144	; 0x40000
    3cc4:	d10e      	bne.n	0x3ce4
    3cc6:	e006      	b.n	0x3cd6
    3cc8:	49c2      	ldr	r1, [pc, #776]	; (0x3fd4)
    3cca:	6809      	ldr	r1, [r1, #0]
    3ccc:	f441 3180 	orr.w	r1, r1, #65536	; 0x10000
    3cd0:	4ac0      	ldr	r2, [pc, #768]	; (0x3fd4)
    3cd2:	6011      	str	r1, [r2, #0]
    3cd4:	e007      	b.n	0x3ce6
    3cd6:	49bf      	ldr	r1, [pc, #764]	; (0x3fd4)
    3cd8:	6809      	ldr	r1, [r1, #0]
    3cda:	f441 21a0 	orr.w	r1, r1, #327680	; 0x50000
    3cde:	4abd      	ldr	r2, [pc, #756]	; (0x3fd4)
    3ce0:	6011      	str	r1, [r2, #0]
    3ce2:	e000      	b.n	0x3ce6
    3ce4:	bf00      	nop
    3ce6:	bf00      	nop
    3ce8:	4770      	bx	lr
    3cea:	b510      	push	{r4, lr}
    3cec:	4601      	mov	r1, r0
    3cee:	2200      	movs	r2, #0
    3cf0:	2300      	movs	r3, #0
    3cf2:	2000      	movs	r0, #0
    3cf4:	114a      	asrs	r2, r1, #5
    3cf6:	2a01      	cmp	r2, #1
    3cf8:	d102      	bne.n	0x3d00
    3cfa:	4cb6      	ldr	r4, [pc, #728]	; (0x3fd4)
    3cfc:	6823      	ldr	r3, [r4, #0]
    3cfe:	e006      	b.n	0x3d0e
    3d00:	2a02      	cmp	r2, #2
    3d02:	d102      	bne.n	0x3d0a
    3d04:	4cb3      	ldr	r4, [pc, #716]	; (0x3fd4)
    3d06:	6a23      	ldr	r3, [r4, #32]
    3d08:	e001      	b.n	0x3d0e
    3d0a:	4cb2      	ldr	r4, [pc, #712]	; (0x3fd4)
    3d0c:	6a63      	ldr	r3, [r4, #36]	; 0x24
    3d0e:	f001 021f 	and.w	r2, r1, #31
    3d12:	2401      	movs	r4, #1
    3d14:	4094      	lsls	r4, r2
    3d16:	421c      	tst	r4, r3
    3d18:	d001      	beq.n	0x3d1e
    3d1a:	2001      	movs	r0, #1
    3d1c:	e000      	b.n	0x3d20
    3d1e:	2000      	movs	r0, #0
    3d20:	bd10      	pop	{r4, pc}
    3d22:	b570      	push	{r4, r5, r6, lr}
    3d24:	2400      	movs	r4, #0
    3d26:	2500      	movs	r5, #0
    3d28:	2600      	movs	r6, #0
    3d2a:	bf00      	nop
    3d2c:	2031      	movs	r0, #49	; 0x31
    3d2e:	f7ff ffdc 	bl	0x3cea
    3d32:	4606      	mov	r6, r0
    3d34:	1c64      	adds	r4, r4, #1
    3d36:	f5b4 6fa0 	cmp.w	r4, #1280	; 0x500
    3d3a:	d001      	beq.n	0x3d40
    3d3c:	2e00      	cmp	r6, #0
    3d3e:	d0f5      	beq.n	0x3d2c
    3d40:	2031      	movs	r0, #49	; 0x31
    3d42:	f7ff ffd2 	bl	0x3cea
    3d46:	b108      	cbz	r0, 0x3d4c
    3d48:	2501      	movs	r5, #1
    3d4a:	e000      	b.n	0x3d4e
    3d4c:	2500      	movs	r5, #0
    3d4e:	4628      	mov	r0, r5
    3d50:	bd70      	pop	{r4, r5, r6, pc}
    3d52:	4601      	mov	r1, r0
    3d54:	2000      	movs	r0, #0
    3d56:	4a9f      	ldr	r2, [pc, #636]	; (0x3fd4)
    3d58:	6810      	ldr	r0, [r2, #0]
    3d5a:	f020 00f8 	bic.w	r0, r0, #248	; 0xf8
    3d5e:	ea40 00c1 	orr.w	r0, r0, r1, lsl #3
    3d62:	6010      	str	r0, [r2, #0]
    3d64:	4770      	bx	lr
    3d66:	499e      	ldr	r1, [pc, #632]	; (0x3fe0)
    3d68:	6008      	str	r0, [r1, #0]
    3d6a:	4770      	bx	lr
    3d6c:	4602      	mov	r2, r0
    3d6e:	2000      	movs	r0, #0
    3d70:	4b98      	ldr	r3, [pc, #608]	; (0x3fd4)
    3d72:	6858      	ldr	r0, [r3, #4]
    3d74:	f420 107c 	bic.w	r0, r0, #4128768	; 0x3f0000
    3d78:	ea42 0301 	orr.w	r3, r2, r1
    3d7c:	4318      	orrs	r0, r3
    3d7e:	4b95      	ldr	r3, [pc, #596]	; (0x3fd4)
    3d80:	6058      	str	r0, [r3, #4]
    3d82:	4770      	bx	lr
    3d84:	4996      	ldr	r1, [pc, #600]	; (0x3fe0)
    3d86:	6608      	str	r0, [r1, #96]	; 0x60
    3d88:	4770      	bx	lr
    3d8a:	4601      	mov	r1, r0
    3d8c:	2000      	movs	r0, #0
    3d8e:	4a91      	ldr	r2, [pc, #580]	; (0x3fd4)
    3d90:	6850      	ldr	r0, [r2, #4]
    3d92:	f020 0003 	bic.w	r0, r0, #3
    3d96:	4308      	orrs	r0, r1
    3d98:	6050      	str	r0, [r2, #4]
    3d9a:	4770      	bx	lr
    3d9c:	488d      	ldr	r0, [pc, #564]	; (0x3fd4)
    3d9e:	6840      	ldr	r0, [r0, #4]
    3da0:	f000 000c 	and.w	r0, r0, #12
    3da4:	4770      	bx	lr
    3da6:	4601      	mov	r1, r0
    3da8:	2000      	movs	r0, #0
    3daa:	4a8a      	ldr	r2, [pc, #552]	; (0x3fd4)
    3dac:	6850      	ldr	r0, [r2, #4]
    3dae:	f020 00f0 	bic.w	r0, r0, #240	; 0xf0
    3db2:	4308      	orrs	r0, r1
    3db4:	6050      	str	r0, [r2, #4]
    3db6:	4770      	bx	lr
    3db8:	4601      	mov	r1, r0
    3dba:	2000      	movs	r0, #0
    3dbc:	4a85      	ldr	r2, [pc, #532]	; (0x3fd4)
    3dbe:	6850      	ldr	r0, [r2, #4]
    3dc0:	f420 60e0 	bic.w	r0, r0, #1792	; 0x700
    3dc4:	4308      	orrs	r0, r1
    3dc6:	6050      	str	r0, [r2, #4]
    3dc8:	4770      	bx	lr
    3dca:	4601      	mov	r1, r0
    3dcc:	2000      	movs	r0, #0
    3dce:	4a81      	ldr	r2, [pc, #516]	; (0x3fd4)
    3dd0:	6850      	ldr	r0, [r2, #4]
    3dd2:	f420 5060 	bic.w	r0, r0, #14336	; 0x3800
    3dd6:	ea40 00c1 	orr.w	r0, r0, r1, lsl #3
    3dda:	6050      	str	r0, [r2, #4]
    3ddc:	4770      	bx	lr
    3dde:	b129      	cbz	r1, 0x3dec
    3de0:	4a7c      	ldr	r2, [pc, #496]	; (0x3fd4)
    3de2:	7a52      	ldrb	r2, [r2, #9]
    3de4:	4302      	orrs	r2, r0
    3de6:	4b7b      	ldr	r3, [pc, #492]	; (0x3fd4)
    3de8:	725a      	strb	r2, [r3, #9]
    3dea:	e006      	b.n	0x3dfa
    3dec:	4a79      	ldr	r2, [pc, #484]	; (0x3fd4)
    3dee:	7a52      	ldrb	r2, [r2, #9]
    3df0:	43c3      	mvns	r3, r0
    3df2:	b2db      	uxtb	r3, r3
    3df4:	401a      	ands	r2, r3
    3df6:	4b77      	ldr	r3, [pc, #476]	; (0x3fd4)
    3df8:	725a      	strb	r2, [r3, #9]
    3dfa:	4770      	bx	lr
    3dfc:	4979      	ldr	r1, [pc, #484]	; (0x3fe4)
    3dfe:	6008      	str	r0, [r1, #0]
    3e00:	4770      	bx	lr
    3e02:	4601      	mov	r1, r0
    3e04:	2000      	movs	r0, #0
    3e06:	4a73      	ldr	r2, [pc, #460]	; (0x3fd4)
    3e08:	6850      	ldr	r0, [r2, #4]
    3e0a:	f420 4040 	bic.w	r0, r0, #49152	; 0xc000
    3e0e:	4308      	orrs	r0, r1
    3e10:	6050      	str	r0, [r2, #4]
    3e12:	4770      	bx	lr
    3e14:	2100      	movs	r1, #0
    3e16:	4a74      	ldr	r2, [pc, #464]	; (0x3fe8)
    3e18:	7011      	strb	r1, [r2, #0]
    3e1a:	4a6e      	ldr	r2, [pc, #440]	; (0x3fd4)
    3e1c:	f882 1020 	strb.w	r1, [r2, #32]
    3e20:	2801      	cmp	r0, #1
    3e22:	d002      	beq.n	0x3e2a
    3e24:	2804      	cmp	r0, #4
    3e26:	d108      	bne.n	0x3e3a
    3e28:	e003      	b.n	0x3e32
    3e2a:	2101      	movs	r1, #1
    3e2c:	4a6e      	ldr	r2, [pc, #440]	; (0x3fe8)
    3e2e:	7011      	strb	r1, [r2, #0]
    3e30:	e004      	b.n	0x3e3c
    3e32:	2105      	movs	r1, #5
    3e34:	4a6c      	ldr	r2, [pc, #432]	; (0x3fe8)
    3e36:	7011      	strb	r1, [r2, #0]
    3e38:	e000      	b.n	0x3e3c
    3e3a:	bf00      	nop
    3e3c:	bf00      	nop
    3e3e:	4770      	bx	lr
    3e40:	496a      	ldr	r1, [pc, #424]	; (0x3fec)
    3e42:	6008      	str	r0, [r1, #0]
    3e44:	4770      	bx	lr
    3e46:	4963      	ldr	r1, [pc, #396]	; (0x3fd4)
    3e48:	6a09      	ldr	r1, [r1, #32]
    3e4a:	4301      	orrs	r1, r0
    3e4c:	4a61      	ldr	r2, [pc, #388]	; (0x3fd4)
    3e4e:	6211      	str	r1, [r2, #32]
    3e50:	4770      	bx	lr
    3e52:	4967      	ldr	r1, [pc, #412]	; (0x3ff0)
    3e54:	6008      	str	r0, [r1, #0]
    3e56:	4770      	bx	lr
    3e58:	b530      	push	{r4, r5, lr}
    3e5a:	2100      	movs	r1, #0
    3e5c:	2200      	movs	r2, #0
    3e5e:	2400      	movs	r4, #0
    3e60:	2300      	movs	r3, #0
    3e62:	4d5c      	ldr	r5, [pc, #368]	; (0x3fd4)
    3e64:	686d      	ldr	r5, [r5, #4]
    3e66:	f005 010c 	and.w	r1, r5, #12
    3e6a:	b121      	cbz	r1, 0x3e76
    3e6c:	2904      	cmp	r1, #4
    3e6e:	d005      	beq.n	0x3e7c
    3e70:	2908      	cmp	r1, #8
    3e72:	d123      	bne.n	0x3ebc
    3e74:	e005      	b.n	0x3e82
    3e76:	4d5f      	ldr	r5, [pc, #380]	; (0x3ff4)
    3e78:	6005      	str	r5, [r0, #0]
    3e7a:	e022      	b.n	0x3ec2
    3e7c:	4d5d      	ldr	r5, [pc, #372]	; (0x3ff4)
    3e7e:	6005      	str	r5, [r0, #0]
    3e80:	e01f      	b.n	0x3ec2
    3e82:	4d54      	ldr	r5, [pc, #336]	; (0x3fd4)
    3e84:	686d      	ldr	r5, [r5, #4]
    3e86:	f405 1270 	and.w	r2, r5, #3932160	; 0x3c0000
    3e8a:	4d52      	ldr	r5, [pc, #328]	; (0x3fd4)
    3e8c:	686d      	ldr	r5, [r5, #4]
    3e8e:	f405 3480 	and.w	r4, r5, #65536	; 0x10000
    3e92:	2502      	movs	r5, #2
    3e94:	eb05 4292 	add.w	r2, r5, r2, lsr #18
    3e98:	b91c      	cbnz	r4, 0x3ea2
    3e9a:	4d57      	ldr	r5, [pc, #348]	; (0x3ff8)
    3e9c:	4355      	muls	r5, r2
    3e9e:	6005      	str	r5, [r0, #0]
    3ea0:	e00b      	b.n	0x3eba
    3ea2:	4d4c      	ldr	r5, [pc, #304]	; (0x3fd4)
    3ea4:	686d      	ldr	r5, [r5, #4]
    3ea6:	f415 3f00 	tst.w	r5, #131072	; 0x20000
    3eaa:	d003      	beq.n	0x3eb4
    3eac:	4d52      	ldr	r5, [pc, #328]	; (0x3ff8)
    3eae:	4355      	muls	r5, r2
    3eb0:	6005      	str	r5, [r0, #0]
    3eb2:	e002      	b.n	0x3eba
    3eb4:	4d4f      	ldr	r5, [pc, #316]	; (0x3ff4)
    3eb6:	4355      	muls	r5, r2
    3eb8:	6005      	str	r5, [r0, #0]
    3eba:	e002      	b.n	0x3ec2
    3ebc:	4d4d      	ldr	r5, [pc, #308]	; (0x3ff4)
    3ebe:	6005      	str	r5, [r0, #0]
    3ec0:	bf00      	nop
    3ec2:	bf00      	nop
    3ec4:	4d43      	ldr	r5, [pc, #268]	; (0x3fd4)
    3ec6:	686d      	ldr	r5, [r5, #4]
    3ec8:	f005 01f0 	and.w	r1, r5, #240	; 0xf0
    3ecc:	0909      	lsrs	r1, r1, #4
    3ece:	4d4b      	ldr	r5, [pc, #300]	; (0x3ffc)
    3ed0:	5c6b      	ldrb	r3, [r5, r1]
    3ed2:	6805      	ldr	r5, [r0, #0]
    3ed4:	40dd      	lsrs	r5, r3
    3ed6:	6045      	str	r5, [r0, #4]
    3ed8:	4d3e      	ldr	r5, [pc, #248]	; (0x3fd4)
    3eda:	686d      	ldr	r5, [r5, #4]
    3edc:	f405 61e0 	and.w	r1, r5, #1792	; 0x700
    3ee0:	0a09      	lsrs	r1, r1, #8
    3ee2:	4d46      	ldr	r5, [pc, #280]	; (0x3ffc)
    3ee4:	5c6b      	ldrb	r3, [r5, r1]
    3ee6:	6845      	ldr	r5, [r0, #4]
    3ee8:	40dd      	lsrs	r5, r3
    3eea:	6085      	str	r5, [r0, #8]
    3eec:	4d39      	ldr	r5, [pc, #228]	; (0x3fd4)
    3eee:	686d      	ldr	r5, [r5, #4]
    3ef0:	f405 5160 	and.w	r1, r5, #14336	; 0x3800
    3ef4:	0ac9      	lsrs	r1, r1, #11
    3ef6:	4d41      	ldr	r5, [pc, #260]	; (0x3ffc)
    3ef8:	5c6b      	ldrb	r3, [r5, r1]
    3efa:	6845      	ldr	r5, [r0, #4]
    3efc:	40dd      	lsrs	r5, r3
    3efe:	60c5      	str	r5, [r0, #12]
    3f00:	4d34      	ldr	r5, [pc, #208]	; (0x3fd4)
    3f02:	686d      	ldr	r5, [r5, #4]
    3f04:	f405 4140 	and.w	r1, r5, #49152	; 0xc000
    3f08:	0b89      	lsrs	r1, r1, #14
    3f0a:	4d3d      	ldr	r5, [pc, #244]	; (0x4000)
    3f0c:	5c6b      	ldrb	r3, [r5, r1]
    3f0e:	68c5      	ldr	r5, [r0, #12]
    3f10:	fbb5 f5f3 	udiv	r5, r5, r3
    3f14:	6105      	str	r5, [r0, #16]
    3f16:	bd30      	pop	{r4, r5, pc}
    3f18:	b129      	cbz	r1, 0x3f26
    3f1a:	4a2e      	ldr	r2, [pc, #184]	; (0x3fd4)
    3f1c:	6952      	ldr	r2, [r2, #20]
    3f1e:	4302      	orrs	r2, r0
    3f20:	4b2c      	ldr	r3, [pc, #176]	; (0x3fd4)
    3f22:	615a      	str	r2, [r3, #20]
    3f24:	e004      	b.n	0x3f30
    3f26:	4a2b      	ldr	r2, [pc, #172]	; (0x3fd4)
    3f28:	6952      	ldr	r2, [r2, #20]
    3f2a:	4382      	bics	r2, r0
    3f2c:	4b29      	ldr	r3, [pc, #164]	; (0x3fd4)
    3f2e:	615a      	str	r2, [r3, #20]
    3f30:	4770      	bx	lr
    3f32:	b129      	cbz	r1, 0x3f40
    3f34:	4a27      	ldr	r2, [pc, #156]	; (0x3fd4)
    3f36:	6992      	ldr	r2, [r2, #24]
    3f38:	4302      	orrs	r2, r0
    3f3a:	4b26      	ldr	r3, [pc, #152]	; (0x3fd4)
    3f3c:	619a      	str	r2, [r3, #24]
    3f3e:	e004      	b.n	0x3f4a
    3f40:	4a24      	ldr	r2, [pc, #144]	; (0x3fd4)
    3f42:	6992      	ldr	r2, [r2, #24]
    3f44:	4382      	bics	r2, r0
    3f46:	4b23      	ldr	r3, [pc, #140]	; (0x3fd4)
    3f48:	619a      	str	r2, [r3, #24]
    3f4a:	4770      	bx	lr
    3f4c:	b129      	cbz	r1, 0x3f5a
    3f4e:	4a21      	ldr	r2, [pc, #132]	; (0x3fd4)
    3f50:	69d2      	ldr	r2, [r2, #28]
    3f52:	4302      	orrs	r2, r0
    3f54:	4b1f      	ldr	r3, [pc, #124]	; (0x3fd4)
    3f56:	61da      	str	r2, [r3, #28]
    3f58:	e004      	b.n	0x3f64
    3f5a:	4a1e      	ldr	r2, [pc, #120]	; (0x3fd4)
    3f5c:	69d2      	ldr	r2, [r2, #28]
    3f5e:	4382      	bics	r2, r0
    3f60:	4b1c      	ldr	r3, [pc, #112]	; (0x3fd4)
    3f62:	61da      	str	r2, [r3, #28]
    3f64:	4770      	bx	lr
    3f66:	b129      	cbz	r1, 0x3f74
    3f68:	4a1a      	ldr	r2, [pc, #104]	; (0x3fd4)
    3f6a:	68d2      	ldr	r2, [r2, #12]
    3f6c:	4302      	orrs	r2, r0
    3f6e:	4b19      	ldr	r3, [pc, #100]	; (0x3fd4)
    3f70:	60da      	str	r2, [r3, #12]
    3f72:	e004      	b.n	0x3f7e
    3f74:	4a17      	ldr	r2, [pc, #92]	; (0x3fd4)
    3f76:	68d2      	ldr	r2, [r2, #12]
    3f78:	4382      	bics	r2, r0
    3f7a:	4b16      	ldr	r3, [pc, #88]	; (0x3fd4)
    3f7c:	60da      	str	r2, [r3, #12]
    3f7e:	4770      	bx	lr
    3f80:	b129      	cbz	r1, 0x3f8e
    3f82:	4a14      	ldr	r2, [pc, #80]	; (0x3fd4)
    3f84:	6912      	ldr	r2, [r2, #16]
    3f86:	4302      	orrs	r2, r0
    3f88:	4b12      	ldr	r3, [pc, #72]	; (0x3fd4)
    3f8a:	611a      	str	r2, [r3, #16]
    3f8c:	e004      	b.n	0x3f98
    3f8e:	4a11      	ldr	r2, [pc, #68]	; (0x3fd4)
    3f90:	6912      	ldr	r2, [r2, #16]
    3f92:	4382      	bics	r2, r0
    3f94:	4b0f      	ldr	r3, [pc, #60]	; (0x3fd4)
    3f96:	611a      	str	r2, [r3, #16]
    3f98:	4770      	bx	lr
    3f9a:	491a      	ldr	r1, [pc, #104]	; (0x4004)
    3f9c:	6008      	str	r0, [r1, #0]
    3f9e:	4770      	bx	lr
    3fa0:	490f      	ldr	r1, [pc, #60]	; (0x3fe0)
    3fa2:	64c8      	str	r0, [r1, #76]	; 0x4c
    3fa4:	4770      	bx	lr
    3fa6:	490b      	ldr	r1, [pc, #44]	; (0x3fd4)
    3fa8:	71c8      	strb	r0, [r1, #7]
    3faa:	4770      	bx	lr
    3fac:	4809      	ldr	r0, [pc, #36]	; (0x3fd4)
    3fae:	6a40      	ldr	r0, [r0, #36]	; 0x24
    3fb0:	f040 7080 	orr.w	r0, r0, #16777216	; 0x1000000
    3fb4:	4907      	ldr	r1, [pc, #28]	; (0x3fd4)
    3fb6:	6248      	str	r0, [r1, #36]	; 0x24
    3fb8:	4770      	bx	lr
    3fba:	4601      	mov	r1, r0
    3fbc:	2000      	movs	r0, #0
    3fbe:	4a05      	ldr	r2, [pc, #20]	; (0x3fd4)
    3fc0:	6892      	ldr	r2, [r2, #8]
    3fc2:	420a      	tst	r2, r1
    3fc4:	d001      	beq.n	0x3fca
    3fc6:	2001      	movs	r0, #1
    3fc8:	e000      	b.n	0x3fcc
    3fca:	2000      	movs	r0, #0
    3fcc:	4770      	bx	lr
    3fce:	4901      	ldr	r1, [pc, #4]	; (0x3fd4)
    3fd0:	7288      	strb	r0, [r1, #10]
    3fd2:	4770      	bx	lr
    3fd4:	1000      	asrs	r0, r0, #32
    3fd6:	4002      	ands	r2, r0
    3fd8:	0000      	movs	r0, r0
    3fda:	f8ff ffff 	ldr??.w	pc, [pc, #4095]	; 0x4fdb
    3fde:	fef6 0000 	cdp2	0, 15, cr0, cr6, cr0, {0}
    3fe2:	4242      	negs	r2, r0
    3fe4:	00d8      	lsls	r0, r3, #3
    3fe6:	4242      	negs	r2, r0
    3fe8:	1020      	asrs	r0, r4, #32
    3fea:	4002      	ands	r2, r0
    3fec:	0480      	lsls	r0, r0, #18
    3fee:	4242      	negs	r2, r0
    3ff0:	043c      	lsls	r4, r7, #16
    3ff2:	4242      	negs	r2, r0
    3ff4:	1200      	asrs	r0, r0, #8
    3ff6:	007a      	lsls	r2, r7, #1
    3ff8:	0900      	lsrs	r0, r0, #4
    3ffa:	003d      	movs	r5, r7
    3ffc:	0090      	lsls	r0, r2, #2
    3ffe:	2000      	movs	r0, #0
    4000:	00a0      	lsls	r0, r4, #2
    4002:	2000      	movs	r0, #0
    4004:	0440      	lsls	r0, r0, #17
    4006:	4242      	negs	r2, r0
    4008:	b510      	push	{r4, lr}
    400a:	4604      	mov	r4, r0
    400c:	48fb      	ldr	r0, [pc, #1004]	; (0x43fc)
    400e:	4284      	cmp	r4, r0
    4010:	d108      	bne.n	0x4024
    4012:	2101      	movs	r1, #1
    4014:	14c0      	asrs	r0, r0, #19
    4016:	f7ff ffa6 	bl	0x3f66
    401a:	2100      	movs	r1, #0
    401c:	14e0      	asrs	r0, r4, #19
    401e:	f7ff ffa2 	bl	0x3f66
    4022:	e052      	b.n	0x40ca
    4024:	f1b4 4f80 	cmp.w	r4, #1073741824	; 0x40000000
    4028:	d108      	bne.n	0x403c
    402a:	2101      	movs	r1, #1
    402c:	4608      	mov	r0, r1
    402e:	f7ff ffa7 	bl	0x3f80
    4032:	2100      	movs	r1, #0
    4034:	2001      	movs	r0, #1
    4036:	f7ff ffa3 	bl	0x3f80
    403a:	e046      	b.n	0x40ca
    403c:	48f0      	ldr	r0, [pc, #960]	; (0x4400)
    403e:	4284      	cmp	r4, r0
    4040:	d108      	bne.n	0x4054
    4042:	2101      	movs	r1, #1
    4044:	2002      	movs	r0, #2
    4046:	f7ff ff9b 	bl	0x3f80
    404a:	2100      	movs	r1, #0
    404c:	2002      	movs	r0, #2
    404e:	f7ff ff97 	bl	0x3f80
    4052:	e03a      	b.n	0x40ca
    4054:	48eb      	ldr	r0, [pc, #940]	; (0x4404)
    4056:	4284      	cmp	r4, r0
    4058:	d108      	bne.n	0x406c
    405a:	2101      	movs	r1, #1
    405c:	2004      	movs	r0, #4
    405e:	f7ff ff8f 	bl	0x3f80
    4062:	2100      	movs	r1, #0
    4064:	2004      	movs	r0, #4
    4066:	f7ff ff8b 	bl	0x3f80
    406a:	e02e      	b.n	0x40ca
    406c:	48e6      	ldr	r0, [pc, #920]	; (0x4408)
    406e:	4284      	cmp	r4, r0
    4070:	d108      	bne.n	0x4084
    4072:	2101      	movs	r1, #1
    4074:	2008      	movs	r0, #8
    4076:	f7ff ff83 	bl	0x3f80
    407a:	2100      	movs	r1, #0
    407c:	2008      	movs	r0, #8
    407e:	f7ff ff7f 	bl	0x3f80
    4082:	e022      	b.n	0x40ca
    4084:	48e1      	ldr	r0, [pc, #900]	; (0x440c)
    4086:	4284      	cmp	r4, r0
    4088:	d108      	bne.n	0x409c
    408a:	2101      	movs	r1, #1
    408c:	2010      	movs	r0, #16
    408e:	f7ff ff77 	bl	0x3f80
    4092:	2100      	movs	r1, #0
    4094:	2010      	movs	r0, #16
    4096:	f7ff ff73 	bl	0x3f80
    409a:	e016      	b.n	0x40ca
    409c:	48dc      	ldr	r0, [pc, #880]	; (0x4410)
    409e:	4284      	cmp	r4, r0
    40a0:	d108      	bne.n	0x40b4
    40a2:	2101      	movs	r1, #1
    40a4:	2020      	movs	r0, #32
    40a6:	f7ff ff6b 	bl	0x3f80
    40aa:	2100      	movs	r1, #0
    40ac:	2020      	movs	r0, #32
    40ae:	f7ff ff67 	bl	0x3f80
    40b2:	e00a      	b.n	0x40ca
    40b4:	48d7      	ldr	r0, [pc, #860]	; (0x4414)
    40b6:	4284      	cmp	r4, r0
    40b8:	d107      	bne.n	0x40ca
    40ba:	2101      	movs	r1, #1
    40bc:	1440      	asrs	r0, r0, #17
    40be:	f7ff ff52 	bl	0x3f66
    40c2:	2100      	movs	r1, #0
    40c4:	1460      	asrs	r0, r4, #17
    40c6:	f7ff ff4e 	bl	0x3f66
    40ca:	bd10      	pop	{r4, pc}
    40cc:	8802      	ldrh	r2, [r0, #0]
    40ce:	f002 028f 	and.w	r2, r2, #143	; 0x8f
    40d2:	8002      	strh	r2, [r0, #0]
    40d4:	88ca      	ldrh	r2, [r1, #6]
    40d6:	884b      	ldrh	r3, [r1, #2]
    40d8:	431a      	orrs	r2, r3
    40da:	8803      	ldrh	r3, [r0, #0]
    40dc:	431a      	orrs	r2, r3
    40de:	8002      	strh	r2, [r0, #0]
    40e0:	888a      	ldrh	r2, [r1, #4]
    40e2:	8582      	strh	r2, [r0, #44]	; 0x2c
    40e4:	880a      	ldrh	r2, [r1, #0]
    40e6:	8502      	strh	r2, [r0, #40]	; 0x28
    40e8:	4ac4      	ldr	r2, [pc, #784]	; (0x43fc)
    40ea:	4290      	cmp	r0, r2
    40ec:	d002      	beq.n	0x40f4
    40ee:	4ac9      	ldr	r2, [pc, #804]	; (0x4414)
    40f0:	4290      	cmp	r0, r2
    40f2:	d101      	bne.n	0x40f8
    40f4:	7a0a      	ldrb	r2, [r1, #8]
    40f6:	8602      	strh	r2, [r0, #48]	; 0x30
    40f8:	2201      	movs	r2, #1
    40fa:	8282      	strh	r2, [r0, #20]
    40fc:	4770      	bx	lr
    40fe:	b570      	push	{r4, r5, r6, lr}
    4100:	2400      	movs	r4, #0
    4102:	2200      	movs	r2, #0
    4104:	2300      	movs	r3, #0
    4106:	8c05      	ldrh	r5, [r0, #32]
    4108:	f64f 76fe 	movw	r6, #65534	; 0xfffe
    410c:	4035      	ands	r5, r6
    410e:	8405      	strh	r5, [r0, #32]
    4110:	8c02      	ldrh	r2, [r0, #32]
    4112:	8883      	ldrh	r3, [r0, #4]
    4114:	8b04      	ldrh	r4, [r0, #24]
    4116:	f64f 758f 	movw	r5, #65423	; 0xff8f
    411a:	402c      	ands	r4, r5
    411c:	880d      	ldrh	r5, [r1, #0]
    411e:	432c      	orrs	r4, r5
    4120:	1e75      	subs	r5, r6, #1
    4122:	402a      	ands	r2, r5
    4124:	890d      	ldrh	r5, [r1, #8]
    4126:	432a      	orrs	r2, r5
    4128:	884d      	ldrh	r5, [r1, #2]
    412a:	432a      	orrs	r2, r5
    412c:	88cd      	ldrh	r5, [r1, #6]
    412e:	8685      	strh	r5, [r0, #52]	; 0x34
    4130:	4db2      	ldr	r5, [pc, #712]	; (0x43fc)
    4132:	42a8      	cmp	r0, r5
    4134:	d002      	beq.n	0x413c
    4136:	4db7      	ldr	r5, [pc, #732]	; (0x4414)
    4138:	42a8      	cmp	r0, r5
    413a:	d113      	bne.n	0x4164
    413c:	f64f 75f7 	movw	r5, #65527	; 0xfff7
    4140:	402a      	ands	r2, r5
    4142:	894d      	ldrh	r5, [r1, #10]
    4144:	432a      	orrs	r2, r5
    4146:	f64f 75fb 	movw	r5, #65531	; 0xfffb
    414a:	402a      	ands	r2, r5
    414c:	888d      	ldrh	r5, [r1, #4]
    414e:	432a      	orrs	r2, r5
    4150:	f647 65ff 	movw	r5, #32511	; 0x7eff
    4154:	402b      	ands	r3, r5
    4156:	f647 55ff 	movw	r5, #32255	; 0x7dff
    415a:	402b      	ands	r3, r5
    415c:	898d      	ldrh	r5, [r1, #12]
    415e:	432b      	orrs	r3, r5
    4160:	89cd      	ldrh	r5, [r1, #14]
    4162:	432b      	orrs	r3, r5
    4164:	8083      	strh	r3, [r0, #4]
    4166:	8304      	strh	r4, [r0, #24]
    4168:	8402      	strh	r2, [r0, #32]
    416a:	bd70      	pop	{r4, r5, r6, pc}
    416c:	b570      	push	{r4, r5, r6, lr}
    416e:	2400      	movs	r4, #0
    4170:	2200      	movs	r2, #0
    4172:	2300      	movs	r3, #0
    4174:	8c05      	ldrh	r5, [r0, #32]
    4176:	f64f 76ef 	movw	r6, #65519	; 0xffef
    417a:	4035      	ands	r5, r6
    417c:	8405      	strh	r5, [r0, #32]
    417e:	8c02      	ldrh	r2, [r0, #32]
    4180:	8883      	ldrh	r3, [r0, #4]
    4182:	8b04      	ldrh	r4, [r0, #24]
    4184:	f648 75ff 	movw	r5, #36863	; 0x8fff
    4188:	402c      	ands	r4, r5
    418a:	880d      	ldrh	r5, [r1, #0]
    418c:	062d      	lsls	r5, r5, #24
    418e:	ea44 4415 	orr.w	r4, r4, r5, lsr #16
    4192:	f64f 75df 	movw	r5, #65503	; 0xffdf
    4196:	402a      	ands	r2, r5
    4198:	890d      	ldrh	r5, [r1, #8]
    419a:	052d      	lsls	r5, r5, #20
    419c:	ea42 4215 	orr.w	r2, r2, r5, lsr #16
    41a0:	884d      	ldrh	r5, [r1, #2]
    41a2:	052d      	lsls	r5, r5, #20
    41a4:	ea42 4215 	orr.w	r2, r2, r5, lsr #16
    41a8:	88cd      	ldrh	r5, [r1, #6]
    41aa:	8705      	strh	r5, [r0, #56]	; 0x38
    41ac:	4d93      	ldr	r5, [pc, #588]	; (0x43fc)
    41ae:	42a8      	cmp	r0, r5
    41b0:	d002      	beq.n	0x41b8
    41b2:	4d98      	ldr	r5, [pc, #608]	; (0x4414)
    41b4:	42a8      	cmp	r0, r5
    41b6:	d11b      	bne.n	0x41f0
    41b8:	f64f 757f 	movw	r5, #65407	; 0xff7f
    41bc:	402a      	ands	r2, r5
    41be:	894d      	ldrh	r5, [r1, #10]
    41c0:	052d      	lsls	r5, r5, #20
    41c2:	ea42 4215 	orr.w	r2, r2, r5, lsr #16
    41c6:	f64f 75bf 	movw	r5, #65471	; 0xffbf
    41ca:	402a      	ands	r2, r5
    41cc:	888d      	ldrh	r5, [r1, #4]
    41ce:	052d      	lsls	r5, r5, #20
    41d0:	ea42 4215 	orr.w	r2, r2, r5, lsr #16
    41d4:	f647 35ff 	movw	r5, #31743	; 0x7bff
    41d8:	402b      	ands	r3, r5
    41da:	f247 75ff 	movw	r5, #30719	; 0x77ff
    41de:	402b      	ands	r3, r5
    41e0:	898d      	ldrh	r5, [r1, #12]
    41e2:	04ad      	lsls	r5, r5, #18
    41e4:	ea43 4315 	orr.w	r3, r3, r5, lsr #16
    41e8:	89cd      	ldrh	r5, [r1, #14]
    41ea:	04ad      	lsls	r5, r5, #18
    41ec:	ea43 4315 	orr.w	r3, r3, r5, lsr #16
    41f0:	8083      	strh	r3, [r0, #4]
    41f2:	8304      	strh	r4, [r0, #24]
    41f4:	8402      	strh	r2, [r0, #32]
    41f6:	bd70      	pop	{r4, r5, r6, pc}
    41f8:	b570      	push	{r4, r5, r6, lr}
    41fa:	2400      	movs	r4, #0
    41fc:	2200      	movs	r2, #0
    41fe:	2300      	movs	r3, #0
    4200:	8c05      	ldrh	r5, [r0, #32]
    4202:	f64f 66ff 	movw	r6, #65279	; 0xfeff
    4206:	4035      	ands	r5, r6
    4208:	8405      	strh	r5, [r0, #32]
    420a:	8c02      	ldrh	r2, [r0, #32]
    420c:	8883      	ldrh	r3, [r0, #4]
    420e:	8b84      	ldrh	r4, [r0, #28]
    4210:	f64f 758f 	movw	r5, #65423	; 0xff8f
    4214:	402c      	ands	r4, r5
    4216:	880d      	ldrh	r5, [r1, #0]
    4218:	432c      	orrs	r4, r5
    421a:	f64f 55ff 	movw	r5, #65023	; 0xfdff
    421e:	402a      	ands	r2, r5
    4220:	890d      	ldrh	r5, [r1, #8]
    4222:	062d      	lsls	r5, r5, #24
    4224:	ea42 4215 	orr.w	r2, r2, r5, lsr #16
    4228:	884d      	ldrh	r5, [r1, #2]
    422a:	062d      	lsls	r5, r5, #24
    422c:	ea42 4215 	orr.w	r2, r2, r5, lsr #16
    4230:	88cd      	ldrh	r5, [r1, #6]
    4232:	8785      	strh	r5, [r0, #60]	; 0x3c
    4234:	4d71      	ldr	r5, [pc, #452]	; (0x43fc)
    4236:	42a8      	cmp	r0, r5
    4238:	d002      	beq.n	0x4240
    423a:	4d76      	ldr	r5, [pc, #472]	; (0x4414)
    423c:	42a8      	cmp	r0, r5
    423e:	d11b      	bne.n	0x4278
    4240:	f24f 75ff 	movw	r5, #63487	; 0xf7ff
    4244:	402a      	ands	r2, r5
    4246:	894d      	ldrh	r5, [r1, #10]
    4248:	062d      	lsls	r5, r5, #24
    424a:	ea42 4215 	orr.w	r2, r2, r5, lsr #16
    424e:	f64f 35ff 	movw	r5, #64511	; 0xfbff
    4252:	402a      	ands	r2, r5
    4254:	888d      	ldrh	r5, [r1, #4]
    4256:	062d      	lsls	r5, r5, #24
    4258:	ea42 4215 	orr.w	r2, r2, r5, lsr #16
    425c:	f646 75ff 	movw	r5, #28671	; 0x6fff
    4260:	402b      	ands	r3, r5
    4262:	f645 75ff 	movw	r5, #24575	; 0x5fff
    4266:	402b      	ands	r3, r5
    4268:	898d      	ldrh	r5, [r1, #12]
    426a:	052d      	lsls	r5, r5, #20
    426c:	ea43 4315 	orr.w	r3, r3, r5, lsr #16
    4270:	89cd      	ldrh	r5, [r1, #14]
    4272:	052d      	lsls	r5, r5, #20
    4274:	ea43 4315 	orr.w	r3, r3, r5, lsr #16
    4278:	8083      	strh	r3, [r0, #4]
    427a:	8384      	strh	r4, [r0, #28]
    427c:	8402      	strh	r2, [r0, #32]
    427e:	bd70      	pop	{r4, r5, r6, pc}
    4280:	b570      	push	{r4, r5, r6, lr}
    4282:	2300      	movs	r3, #0
    4284:	2200      	movs	r2, #0
    4286:	2400      	movs	r4, #0
    4288:	8c05      	ldrh	r5, [r0, #32]
    428a:	f64e 76ff 	movw	r6, #61439	; 0xefff
    428e:	4035      	ands	r5, r6
    4290:	8405      	strh	r5, [r0, #32]
    4292:	8c02      	ldrh	r2, [r0, #32]
    4294:	8884      	ldrh	r4, [r0, #4]
    4296:	8b83      	ldrh	r3, [r0, #28]
    4298:	f648 75ff 	movw	r5, #36863	; 0x8fff
    429c:	402b      	ands	r3, r5
    429e:	880d      	ldrh	r5, [r1, #0]
    42a0:	062d      	lsls	r5, r5, #24
    42a2:	ea43 4315 	orr.w	r3, r3, r5, lsr #16
    42a6:	f64d 75ff 	movw	r5, #57343	; 0xdfff
    42aa:	402a      	ands	r2, r5
    42ac:	890d      	ldrh	r5, [r1, #8]
    42ae:	072d      	lsls	r5, r5, #28
    42b0:	ea42 4215 	orr.w	r2, r2, r5, lsr #16
    42b4:	884d      	ldrh	r5, [r1, #2]
    42b6:	072d      	lsls	r5, r5, #28
    42b8:	ea42 4215 	orr.w	r2, r2, r5, lsr #16
    42bc:	88cd      	ldrh	r5, [r1, #6]
    42be:	f8a0 5040 	strh.w	r5, [r0, #64]	; 0x40
    42c2:	4d4e      	ldr	r5, [pc, #312]	; (0x43fc)
    42c4:	42a8      	cmp	r0, r5
    42c6:	d002      	beq.n	0x42ce
    42c8:	4d52      	ldr	r5, [pc, #328]	; (0x4414)
    42ca:	42a8      	cmp	r0, r5
    42cc:	d105      	bne.n	0x42da
    42ce:	f3c4 040d 	ubfx	r4, r4, #0, #14
    42d2:	898d      	ldrh	r5, [r1, #12]
    42d4:	05ad      	lsls	r5, r5, #22
    42d6:	ea44 4415 	orr.w	r4, r4, r5, lsr #16
    42da:	8084      	strh	r4, [r0, #4]
    42dc:	8383      	strh	r3, [r0, #28]
    42de:	8402      	strh	r2, [r0, #32]
    42e0:	bd70      	pop	{r4, r5, r6, pc}
    42e2:	8b82      	ldrh	r2, [r0, #28]
    42e4:	f24f 33ff 	movw	r3, #62463	; 0xf3ff
    42e8:	401a      	ands	r2, r3
    42ea:	8382      	strh	r2, [r0, #28]
    42ec:	8b82      	ldrh	r2, [r0, #28]
    42ee:	060b      	lsls	r3, r1, #24
    42f0:	ea42 4213 	orr.w	r2, r2, r3, lsr #16
    42f4:	8382      	strh	r2, [r0, #28]
    42f6:	4770      	bx	lr
    42f8:	b5f0      	push	{r4, r5, r6, r7, lr}
    42fa:	460c      	mov	r4, r1
    42fc:	4615      	mov	r5, r2
    42fe:	2100      	movs	r1, #0
    4300:	2200      	movs	r2, #0
    4302:	2600      	movs	r6, #0
    4304:	8c07      	ldrh	r7, [r0, #32]
    4306:	f64e 7cff 	movw	ip, #61439	; 0xefff
    430a:	ea07 070c 	and.w	r7, r7, ip
    430e:	8407      	strh	r7, [r0, #32]
    4310:	8b81      	ldrh	r1, [r0, #28]
    4312:	8c02      	ldrh	r2, [r0, #32]
    4314:	0727      	lsls	r7, r4, #28
    4316:	0c3e      	lsrs	r6, r7, #16
    4318:	f640 47ff 	movw	r7, #3327	; 0xcff
    431c:	4039      	ands	r1, r7
    431e:	062f      	lsls	r7, r5, #24
    4320:	ea41 4117 	orr.w	r1, r1, r7, lsr #16
    4324:	071f      	lsls	r7, r3, #28
    4326:	ea41 4117 	orr.w	r1, r1, r7, lsr #16
    432a:	f64d 77ff 	movw	r7, #57343	; 0xdfff
    432e:	403a      	ands	r2, r7
    4330:	f446 5780 	orr.w	r7, r6, #4096	; 0x1000
    4334:	433a      	orrs	r2, r7
    4336:	8381      	strh	r1, [r0, #28]
    4338:	8402      	strh	r2, [r0, #32]
    433a:	bdf0      	pop	{r4, r5, r6, r7, pc}
    433c:	8b82      	ldrh	r2, [r0, #28]
    433e:	f64f 73f3 	movw	r3, #65523	; 0xfff3
    4342:	401a      	ands	r2, r3
    4344:	8382      	strh	r2, [r0, #28]
    4346:	8b82      	ldrh	r2, [r0, #28]
    4348:	430a      	orrs	r2, r1
    434a:	8382      	strh	r2, [r0, #28]
    434c:	4770      	bx	lr
    434e:	b5f0      	push	{r4, r5, r6, r7, lr}
    4350:	460c      	mov	r4, r1
    4352:	4615      	mov	r5, r2
    4354:	2100      	movs	r1, #0
    4356:	2200      	movs	r2, #0
    4358:	2600      	movs	r6, #0
    435a:	8c07      	ldrh	r7, [r0, #32]
    435c:	f64f 6cff 	movw	ip, #65279	; 0xfeff
    4360:	ea07 070c 	and.w	r7, r7, ip
    4364:	8407      	strh	r7, [r0, #32]
    4366:	8b81      	ldrh	r1, [r0, #28]
    4368:	8c02      	ldrh	r2, [r0, #32]
    436a:	0627      	lsls	r7, r4, #24
    436c:	0c3e      	lsrs	r6, r7, #16
    436e:	f64f 770c 	movw	r7, #65292	; 0xff0c
    4372:	4039      	ands	r1, r7
    4374:	051f      	lsls	r7, r3, #20
    4376:	ea45 4717 	orr.w	r7, r5, r7, lsr #16
    437a:	4339      	orrs	r1, r7
    437c:	f64f 57ff 	movw	r7, #65023	; 0xfdff
    4380:	403a      	ands	r2, r7
    4382:	f446 7780 	orr.w	r7, r6, #256	; 0x100
    4386:	433a      	orrs	r2, r7
    4388:	8381      	strh	r1, [r0, #28]
    438a:	8402      	strh	r2, [r0, #32]
    438c:	bdf0      	pop	{r4, r5, r6, r7, pc}
    438e:	8b02      	ldrh	r2, [r0, #24]
    4390:	f24f 33ff 	movw	r3, #62463	; 0xf3ff
    4394:	401a      	ands	r2, r3
    4396:	8302      	strh	r2, [r0, #24]
    4398:	8b02      	ldrh	r2, [r0, #24]
    439a:	060b      	lsls	r3, r1, #24
    439c:	ea42 4213 	orr.w	r2, r2, r3, lsr #16
    43a0:	8302      	strh	r2, [r0, #24]
    43a2:	4770      	bx	lr
    43a4:	b5f0      	push	{r4, r5, r6, r7, lr}
    43a6:	460c      	mov	r4, r1
    43a8:	4615      	mov	r5, r2
    43aa:	2100      	movs	r1, #0
    43ac:	2200      	movs	r2, #0
    43ae:	2600      	movs	r6, #0
    43b0:	8c07      	ldrh	r7, [r0, #32]
    43b2:	f64f 7cef 	movw	ip, #65519	; 0xffef
    43b6:	ea07 070c 	and.w	r7, r7, ip
    43ba:	8407      	strh	r7, [r0, #32]
    43bc:	8b01      	ldrh	r1, [r0, #24]
    43be:	8c02      	ldrh	r2, [r0, #32]
    43c0:	0527      	lsls	r7, r4, #20
    43c2:	0c3e      	lsrs	r6, r7, #16
    43c4:	f640 47ff 	movw	r7, #3327	; 0xcff
    43c8:	4039      	ands	r1, r7
    43ca:	071f      	lsls	r7, r3, #28
    43cc:	ea41 4117 	orr.w	r1, r1, r7, lsr #16
    43d0:	062f      	lsls	r7, r5, #24
    43d2:	ea41 4117 	orr.w	r1, r1, r7, lsr #16
    43d6:	f64f 77df 	movw	r7, #65503	; 0xffdf
    43da:	403a      	ands	r2, r7
    43dc:	f046 0710 	orr.w	r7, r6, #16
    43e0:	433a      	orrs	r2, r7
    43e2:	8301      	strh	r1, [r0, #24]
    43e4:	8402      	strh	r2, [r0, #32]
    43e6:	bdf0      	pop	{r4, r5, r6, r7, pc}
    43e8:	8b02      	ldrh	r2, [r0, #24]
    43ea:	f64f 73f3 	movw	r3, #65523	; 0xfff3
    43ee:	401a      	ands	r2, r3
    43f0:	8302      	strh	r2, [r0, #24]
    43f2:	8b02      	ldrh	r2, [r0, #24]
    43f4:	430a      	orrs	r2, r1
    43f6:	8302      	strh	r2, [r0, #24]
    43f8:	4770      	bx	lr
    43fa:	0000      	movs	r0, r0
    43fc:	2c00      	cmp	r4, #0
    43fe:	4001      	ands	r1, r0
    4400:	0400      	lsls	r0, r0, #16
    4402:	4000      	ands	r0, r0
    4404:	0800      	lsrs	r0, r0, #32
    4406:	4000      	ands	r0, r0
    4408:	0c00      	lsrs	r0, r0, #16
    440a:	4000      	ands	r0, r0
    440c:	1000      	asrs	r0, r0, #32
    440e:	4000      	ands	r0, r0
    4410:	1400      	asrs	r0, r0, #16
    4412:	4000      	ands	r0, r0
    4414:	3400      	adds	r4, #0
    4416:	4001      	ands	r1, r0
    4418:	b5f0      	push	{r4, r5, r6, r7, lr}
    441a:	460c      	mov	r4, r1
    441c:	4615      	mov	r5, r2
    441e:	2100      	movs	r1, #0
    4420:	2200      	movs	r2, #0
    4422:	8c06      	ldrh	r6, [r0, #32]
    4424:	f64f 77fe 	movw	r7, #65534	; 0xfffe
    4428:	403e      	ands	r6, r7
    442a:	8406      	strh	r6, [r0, #32]
    442c:	8b01      	ldrh	r1, [r0, #24]
    442e:	8c02      	ldrh	r2, [r0, #32]
    4430:	f64f 760c 	movw	r6, #65292	; 0xff0c
    4434:	4031      	ands	r1, r6
    4436:	051e      	lsls	r6, r3, #20
    4438:	ea45 4616 	orr.w	r6, r5, r6, lsr #16
    443c:	4331      	orrs	r1, r6
    443e:	1e7e      	subs	r6, r7, #1
    4440:	4032      	ands	r2, r6
    4442:	f044 0601 	orr.w	r6, r4, #1
    4446:	4332      	orrs	r2, r6
    4448:	8301      	strh	r1, [r0, #24]
    444a:	8402      	strh	r2, [r0, #32]
    444c:	bdf0      	pop	{r4, r5, r6, r7, pc}
    444e:	b570      	push	{r4, r5, r6, lr}
    4450:	4605      	mov	r5, r0
    4452:	460c      	mov	r4, r1
    4454:	8820      	ldrh	r0, [r4, #0]
    4456:	b950      	cbnz	r0, 0x446e
    4458:	8923      	ldrh	r3, [r4, #8]
    445a:	88a2      	ldrh	r2, [r4, #4]
    445c:	8861      	ldrh	r1, [r4, #2]
    445e:	4628      	mov	r0, r5
    4460:	f7ff ffda 	bl	0x4418
    4464:	88e1      	ldrh	r1, [r4, #6]
    4466:	4628      	mov	r0, r5
    4468:	f7ff ffbe 	bl	0x43e8
    446c:	e025      	b.n	0x44ba
    446e:	8820      	ldrh	r0, [r4, #0]
    4470:	2804      	cmp	r0, #4
    4472:	d10a      	bne.n	0x448a
    4474:	8923      	ldrh	r3, [r4, #8]
    4476:	88a2      	ldrh	r2, [r4, #4]
    4478:	8861      	ldrh	r1, [r4, #2]
    447a:	4628      	mov	r0, r5
    447c:	f7ff ff92 	bl	0x43a4
    4480:	88e1      	ldrh	r1, [r4, #6]
    4482:	4628      	mov	r0, r5
    4484:	f7ff ff83 	bl	0x438e
    4488:	e017      	b.n	0x44ba
    448a:	8820      	ldrh	r0, [r4, #0]
    448c:	2808      	cmp	r0, #8
    448e:	d10a      	bne.n	0x44a6
    4490:	8923      	ldrh	r3, [r4, #8]
    4492:	88a2      	ldrh	r2, [r4, #4]
    4494:	8861      	ldrh	r1, [r4, #2]
    4496:	4628      	mov	r0, r5
    4498:	f7ff ff59 	bl	0x434e
    449c:	88e1      	ldrh	r1, [r4, #6]
    449e:	4628      	mov	r0, r5
    44a0:	f7ff ff4c 	bl	0x433c
    44a4:	e009      	b.n	0x44ba
    44a6:	8923      	ldrh	r3, [r4, #8]
    44a8:	88a2      	ldrh	r2, [r4, #4]
    44aa:	8861      	ldrh	r1, [r4, #2]
    44ac:	4628      	mov	r0, r5
    44ae:	f7ff ff23 	bl	0x42f8
    44b2:	88e1      	ldrh	r1, [r4, #6]
    44b4:	4628      	mov	r0, r5
    44b6:	f7ff ff14 	bl	0x42e2
    44ba:	bd70      	pop	{r4, r5, r6, pc}
    44bc:	e92d 41f0 	stmdb	sp!, {r4, r5, r6, r7, r8, lr}
    44c0:	4605      	mov	r5, r0
    44c2:	460c      	mov	r4, r1
    44c4:	2600      	movs	r6, #0
    44c6:	2701      	movs	r7, #1
    44c8:	8860      	ldrh	r0, [r4, #2]
    44ca:	b908      	cbnz	r0, 0x44d0
    44cc:	2602      	movs	r6, #2
    44ce:	e000      	b.n	0x44d2
    44d0:	2600      	movs	r6, #0
    44d2:	88a0      	ldrh	r0, [r4, #4]
    44d4:	2801      	cmp	r0, #1
    44d6:	d101      	bne.n	0x44dc
    44d8:	2702      	movs	r7, #2
    44da:	e000      	b.n	0x44de
    44dc:	2701      	movs	r7, #1
    44de:	8820      	ldrh	r0, [r4, #0]
    44e0:	b9a0      	cbnz	r0, 0x450c
    44e2:	8923      	ldrh	r3, [r4, #8]
    44e4:	88a2      	ldrh	r2, [r4, #4]
    44e6:	8861      	ldrh	r1, [r4, #2]
    44e8:	4628      	mov	r0, r5
    44ea:	f7ff ff95 	bl	0x4418
    44ee:	88e1      	ldrh	r1, [r4, #6]
    44f0:	4628      	mov	r0, r5
    44f2:	f7ff ff79 	bl	0x43e8
    44f6:	8923      	ldrh	r3, [r4, #8]
    44f8:	463a      	mov	r2, r7
    44fa:	4631      	mov	r1, r6
    44fc:	4628      	mov	r0, r5
    44fe:	f7ff ff51 	bl	0x43a4
    4502:	88e1      	ldrh	r1, [r4, #6]
    4504:	4628      	mov	r0, r5
    4506:	f7ff ff42 	bl	0x438e
    450a:	e013      	b.n	0x4534
    450c:	8923      	ldrh	r3, [r4, #8]
    450e:	88a2      	ldrh	r2, [r4, #4]
    4510:	8861      	ldrh	r1, [r4, #2]
    4512:	4628      	mov	r0, r5
    4514:	f7ff ff46 	bl	0x43a4
    4518:	88e1      	ldrh	r1, [r4, #6]
    451a:	4628      	mov	r0, r5
    451c:	f7ff ff37 	bl	0x438e
    4520:	8923      	ldrh	r3, [r4, #8]
    4522:	463a      	mov	r2, r7
    4524:	4631      	mov	r1, r6
    4526:	4628      	mov	r0, r5
    4528:	f7ff ff76 	bl	0x4418
    452c:	88e1      	ldrh	r1, [r4, #6]
    452e:	4628      	mov	r0, r5
    4530:	f7ff ff5a 	bl	0x43e8
    4534:	e8bd 81f0 	ldmia.w	sp!, {r4, r5, r6, r7, r8, pc}
    4538:	880a      	ldrh	r2, [r1, #0]
    453a:	884b      	ldrh	r3, [r1, #2]
    453c:	431a      	orrs	r2, r3
    453e:	888b      	ldrh	r3, [r1, #4]
    4540:	431a      	orrs	r2, r3
    4542:	88cb      	ldrh	r3, [r1, #6]
    4544:	431a      	orrs	r2, r3
    4546:	890b      	ldrh	r3, [r1, #8]
    4548:	431a      	orrs	r2, r3
    454a:	894b      	ldrh	r3, [r1, #10]
    454c:	431a      	orrs	r2, r3
    454e:	898b      	ldrh	r3, [r1, #12]
    4550:	431a      	orrs	r2, r3
    4552:	f8a0 2044 	strh.w	r2, [r0, #68]	; 0x44
    4556:	4770      	bx	lr
    4558:	f64f 71ff 	movw	r1, #65535	; 0xffff
    455c:	8081      	strh	r1, [r0, #4]
    455e:	2100      	movs	r1, #0
    4560:	8001      	strh	r1, [r0, #0]
    4562:	80c1      	strh	r1, [r0, #6]
    4564:	8041      	strh	r1, [r0, #2]
    4566:	7201      	strb	r1, [r0, #8]
    4568:	4770      	bx	lr
    456a:	2100      	movs	r1, #0
    456c:	8001      	strh	r1, [r0, #0]
    456e:	8041      	strh	r1, [r0, #2]
    4570:	8081      	strh	r1, [r0, #4]
    4572:	80c1      	strh	r1, [r0, #6]
    4574:	8101      	strh	r1, [r0, #8]
    4576:	8141      	strh	r1, [r0, #10]
    4578:	8181      	strh	r1, [r0, #12]
    457a:	81c1      	strh	r1, [r0, #14]
    457c:	4770      	bx	lr
    457e:	2100      	movs	r1, #0
    4580:	8001      	strh	r1, [r0, #0]
    4582:	8041      	strh	r1, [r0, #2]
    4584:	2101      	movs	r1, #1
    4586:	8081      	strh	r1, [r0, #4]
    4588:	2100      	movs	r1, #0
    458a:	80c1      	strh	r1, [r0, #6]
    458c:	8101      	strh	r1, [r0, #8]
    458e:	4770      	bx	lr
    4590:	2100      	movs	r1, #0
    4592:	8001      	strh	r1, [r0, #0]
    4594:	8041      	strh	r1, [r0, #2]
    4596:	8081      	strh	r1, [r0, #4]
    4598:	80c1      	strh	r1, [r0, #6]
    459a:	8101      	strh	r1, [r0, #8]
    459c:	8141      	strh	r1, [r0, #10]
    459e:	8181      	strh	r1, [r0, #12]
    45a0:	4770      	bx	lr
    45a2:	b121      	cbz	r1, 0x45ae
    45a4:	8802      	ldrh	r2, [r0, #0]
    45a6:	f042 0201 	orr.w	r2, r2, #1
    45aa:	8002      	strh	r2, [r0, #0]
    45ac:	e004      	b.n	0x45b8
    45ae:	8802      	ldrh	r2, [r0, #0]
    45b0:	f240 33fe 	movw	r3, #1022	; 0x3fe
    45b4:	401a      	ands	r2, r3
    45b6:	8002      	strh	r2, [r0, #0]
    45b8:	4770      	bx	lr
    45ba:	b131      	cbz	r1, 0x45ca
    45bc:	f8b0 2044 	ldrh.w	r2, [r0, #68]	; 0x44
    45c0:	f442 4200 	orr.w	r2, r2, #32768	; 0x8000
    45c4:	f8a0 2044 	strh.w	r2, [r0, #68]	; 0x44
    45c8:	e005      	b.n	0x45d6
    45ca:	f8b0 2044 	ldrh.w	r2, [r0, #68]	; 0x44
    45ce:	f3c2 020e 	ubfx	r2, r2, #0, #15
    45d2:	f8a0 2044 	strh.w	r2, [r0, #68]	; 0x44
    45d6:	4770      	bx	lr
    45d8:	b510      	push	{r4, lr}
    45da:	b11a      	cbz	r2, 0x45e4
    45dc:	8983      	ldrh	r3, [r0, #12]
    45de:	430b      	orrs	r3, r1
    45e0:	8183      	strh	r3, [r0, #12]
    45e2:	e004      	b.n	0x45ee
    45e4:	8983      	ldrh	r3, [r0, #12]
    45e6:	43cc      	mvns	r4, r1
    45e8:	b2a4      	uxth	r4, r4
    45ea:	4023      	ands	r3, r4
    45ec:	8183      	strh	r3, [r0, #12]
    45ee:	bd10      	pop	{r4, pc}
    45f0:	8281      	strh	r1, [r0, #20]
    45f2:	4770      	bx	lr
    45f4:	ea41 0302 	orr.w	r3, r1, r2
    45f8:	f8a0 3048 	strh.w	r3, [r0, #72]	; 0x48
    45fc:	4770      	bx	lr
    45fe:	b510      	push	{r4, lr}
    4600:	b11a      	cbz	r2, 0x460a
    4602:	8983      	ldrh	r3, [r0, #12]
    4604:	430b      	orrs	r3, r1
    4606:	8183      	strh	r3, [r0, #12]
    4608:	e004      	b.n	0x4614
    460a:	8983      	ldrh	r3, [r0, #12]
    460c:	43cc      	mvns	r4, r1
    460e:	b2a4      	uxth	r4, r4
    4610:	4023      	ands	r3, r4
    4612:	8183      	strh	r3, [r0, #12]
    4614:	bd10      	pop	{r4, pc}
    4616:	8901      	ldrh	r1, [r0, #8]
    4618:	f64f 72f8 	movw	r2, #65528	; 0xfff8
    461c:	4011      	ands	r1, r2
    461e:	8101      	strh	r1, [r0, #8]
    4620:	4770      	bx	lr
    4622:	460a      	mov	r2, r1
    4624:	2100      	movs	r1, #0
    4626:	8901      	ldrh	r1, [r0, #8]
    4628:	f64f 738f 	movw	r3, #65423	; 0xff8f
    462c:	4019      	ands	r1, r3
    462e:	4311      	orrs	r1, r2
    4630:	8101      	strh	r1, [r0, #8]
    4632:	4770      	bx	lr
    4634:	b530      	push	{r4, r5, lr}
    4636:	4604      	mov	r4, r0
    4638:	460d      	mov	r5, r1
    463a:	4629      	mov	r1, r5
    463c:	4620      	mov	r0, r4
    463e:	f7ff fff0 	bl	0x4622
    4642:	8920      	ldrh	r0, [r4, #8]
    4644:	f040 0007 	orr.w	r0, r0, #7
    4648:	8120      	strh	r0, [r4, #8]
    464a:	bd30      	pop	{r4, r5, pc}
    464c:	e92d 41f0 	stmdb	sp!, {r4, r5, r6, r7, r8, lr}
    4650:	4604      	mov	r4, r0
    4652:	460d      	mov	r5, r1
    4654:	4616      	mov	r6, r2
    4656:	461f      	mov	r7, r3
    4658:	2d60      	cmp	r5, #96	; 0x60
    465a:	d106      	bne.n	0x466a
    465c:	463b      	mov	r3, r7
    465e:	2201      	movs	r2, #1
    4660:	4631      	mov	r1, r6
    4662:	4620      	mov	r0, r4
    4664:	f7ff fe9e 	bl	0x43a4
    4668:	e005      	b.n	0x4676
    466a:	463b      	mov	r3, r7
    466c:	2201      	movs	r2, #1
    466e:	4631      	mov	r1, r6
    4670:	4620      	mov	r0, r4
    4672:	f7ff fed1 	bl	0x4418
    4676:	4629      	mov	r1, r5
    4678:	4620      	mov	r0, r4
    467a:	f7ff ffd2 	bl	0x4622
    467e:	8920      	ldrh	r0, [r4, #8]
    4680:	f040 0007 	orr.w	r0, r0, #7
    4684:	8120      	strh	r0, [r4, #8]
    4686:	e8bd 81f0 	ldmia.w	sp!, {r4, r5, r6, r7, r8, pc}
    468a:	b530      	push	{r4, r5, lr}
    468c:	460c      	mov	r4, r1
    468e:	2100      	movs	r1, #0
    4690:	8901      	ldrh	r1, [r0, #8]
    4692:	b2c9      	uxtb	r1, r1
    4694:	061d      	lsls	r5, r3, #24
    4696:	ea42 4515 	orr.w	r5, r2, r5, lsr #16
    469a:	4325      	orrs	r5, r4
    469c:	4329      	orrs	r1, r5
    469e:	8101      	strh	r1, [r0, #8]
    46a0:	bd30      	pop	{r4, r5, pc}
    46a2:	e92d 41f0 	stmdb	sp!, {r4, r5, r6, r7, r8, lr}
    46a6:	4605      	mov	r5, r0
    46a8:	460e      	mov	r6, r1
    46aa:	4617      	mov	r7, r2
    46ac:	4698      	mov	r8, r3
    46ae:	2400      	movs	r4, #0
    46b0:	4643      	mov	r3, r8
    46b2:	463a      	mov	r2, r7
    46b4:	4631      	mov	r1, r6
    46b6:	4628      	mov	r0, r5
    46b8:	f7ff ffe7 	bl	0x468a
    46bc:	892c      	ldrh	r4, [r5, #8]
    46be:	f64f 71f8 	movw	r1, #65528	; 0xfff8
    46c2:	400c      	ands	r4, r1
    46c4:	f044 0407 	orr.w	r4, r4, #7
    46c8:	f64f 718f 	movw	r1, #65423	; 0xff8f
    46cc:	400c      	ands	r4, r1
    46ce:	f044 0470 	orr.w	r4, r4, #112	; 0x70
    46d2:	812c      	strh	r4, [r5, #8]
    46d4:	e8bd 81f0 	ldmia.w	sp!, {r4, r5, r6, r7, r8, pc}
    46d8:	b5f0      	push	{r4, r5, r6, r7, lr}
    46da:	4604      	mov	r4, r0
    46dc:	460d      	mov	r5, r1
    46de:	4616      	mov	r6, r2
    46e0:	461f      	mov	r7, r3
    46e2:	463b      	mov	r3, r7
    46e4:	4632      	mov	r2, r6
    46e6:	4629      	mov	r1, r5
    46e8:	4620      	mov	r0, r4
    46ea:	f7ff ffce 	bl	0x468a
    46ee:	8920      	ldrh	r0, [r4, #8]
    46f0:	f440 4080 	orr.w	r0, r0, #16384	; 0x4000
    46f4:	8120      	strh	r0, [r4, #8]
    46f6:	bdf0      	pop	{r4, r5, r6, r7, pc}
    46f8:	8501      	strh	r1, [r0, #40]	; 0x28
    46fa:	8282      	strh	r2, [r0, #20]
    46fc:	4770      	bx	lr
    46fe:	460a      	mov	r2, r1
    4700:	2100      	movs	r1, #0
    4702:	8801      	ldrh	r1, [r0, #0]
    4704:	f240 338f 	movw	r3, #911	; 0x38f
    4708:	4019      	ands	r1, r3
    470a:	4311      	orrs	r1, r2
    470c:	8001      	strh	r1, [r0, #0]
    470e:	4770      	bx	lr
    4710:	b5f0      	push	{r4, r5, r6, r7, lr}
    4712:	460c      	mov	r4, r1
    4714:	4615      	mov	r5, r2
    4716:	461e      	mov	r6, r3
    4718:	2100      	movs	r1, #0
    471a:	2200      	movs	r2, #0
    471c:	2300      	movs	r3, #0
    471e:	8901      	ldrh	r1, [r0, #8]
    4720:	8b02      	ldrh	r2, [r0, #24]
    4722:	8c03      	ldrh	r3, [r0, #32]
    4724:	f64f 77f8 	movw	r7, #65528	; 0xfff8
    4728:	4039      	ands	r1, r7
    472a:	4321      	orrs	r1, r4
    472c:	f64f 47fc 	movw	r7, #64764	; 0xfcfc
    4730:	403a      	ands	r2, r7
    4732:	f240 1701 	movw	r7, #257	; 0x101
    4736:	433a      	orrs	r2, r7
    4738:	f64f 77dd 	movw	r7, #65501	; 0xffdd
    473c:	403b      	ands	r3, r7
    473e:	0537      	lsls	r7, r6, #20
    4740:	ea45 4717 	orr.w	r7, r5, r7, lsr #16
    4744:	433b      	orrs	r3, r7
    4746:	8101      	strh	r1, [r0, #8]
    4748:	8302      	strh	r2, [r0, #24]
    474a:	8403      	strh	r3, [r0, #32]
    474c:	bdf0      	pop	{r4, r5, r6, r7, pc}
    474e:	460a      	mov	r2, r1
    4750:	2100      	movs	r1, #0
    4752:	8b01      	ldrh	r1, [r0, #24]
    4754:	f64f 738f 	movw	r3, #65423	; 0xff8f
    4758:	4019      	ands	r1, r3
    475a:	4311      	orrs	r1, r2
    475c:	8301      	strh	r1, [r0, #24]
    475e:	4770      	bx	lr
    4760:	460a      	mov	r2, r1
    4762:	2100      	movs	r1, #0
    4764:	8b01      	ldrh	r1, [r0, #24]
    4766:	f648 73ff 	movw	r3, #36863	; 0x8fff
    476a:	4019      	ands	r1, r3
    476c:	0613      	lsls	r3, r2, #24
    476e:	ea41 4113 	orr.w	r1, r1, r3, lsr #16
    4772:	8301      	strh	r1, [r0, #24]
    4774:	4770      	bx	lr
    4776:	460a      	mov	r2, r1
    4778:	2100      	movs	r1, #0
    477a:	8b81      	ldrh	r1, [r0, #28]
    477c:	f64f 738f 	movw	r3, #65423	; 0xff8f
    4780:	4019      	ands	r1, r3
    4782:	4311      	orrs	r1, r2
    4784:	8381      	strh	r1, [r0, #28]
    4786:	4770      	bx	lr
    4788:	460a      	mov	r2, r1
    478a:	2100      	movs	r1, #0
    478c:	8b81      	ldrh	r1, [r0, #28]
    478e:	f648 73ff 	movw	r3, #36863	; 0x8fff
    4792:	4019      	ands	r1, r3
    4794:	0613      	lsls	r3, r2, #24
    4796:	ea41 4113 	orr.w	r1, r1, r3, lsr #16
    479a:	8381      	strh	r1, [r0, #28]
    479c:	4770      	bx	lr
    479e:	b121      	cbz	r1, 0x47aa
    47a0:	8802      	ldrh	r2, [r0, #0]
    47a2:	f042 0280 	orr.w	r2, r2, #128	; 0x80
    47a6:	8002      	strh	r2, [r0, #0]
    47a8:	e004      	b.n	0x47b4
    47aa:	8802      	ldrh	r2, [r0, #0]
    47ac:	f240 337f 	movw	r3, #895	; 0x37f
    47b0:	401a      	ands	r2, r3
    47b2:	8002      	strh	r2, [r0, #0]
    47b4:	4770      	bx	lr
    47b6:	b121      	cbz	r1, 0x47c2
    47b8:	8882      	ldrh	r2, [r0, #4]
    47ba:	f042 0204 	orr.w	r2, r2, #4
    47be:	8082      	strh	r2, [r0, #4]
    47c0:	e004      	b.n	0x47cc
    47c2:	8882      	ldrh	r2, [r0, #4]
    47c4:	f64f 73fb 	movw	r3, #65531	; 0xfffb
    47c8:	401a      	ands	r2, r3
    47ca:	8082      	strh	r2, [r0, #4]
    47cc:	4770      	bx	lr
    47ce:	b121      	cbz	r1, 0x47da
    47d0:	8882      	ldrh	r2, [r0, #4]
    47d2:	f042 0208 	orr.w	r2, r2, #8
    47d6:	8082      	strh	r2, [r0, #4]
    47d8:	e004      	b.n	0x47e4
    47da:	8882      	ldrh	r2, [r0, #4]
    47dc:	f64f 73f7 	movw	r3, #65527	; 0xfff7
    47e0:	401a      	ands	r2, r3
    47e2:	8082      	strh	r2, [r0, #4]
    47e4:	4770      	bx	lr
    47e6:	b121      	cbz	r1, 0x47f2
    47e8:	8882      	ldrh	r2, [r0, #4]
    47ea:	f042 0201 	orr.w	r2, r2, #1
    47ee:	8082      	strh	r2, [r0, #4]
    47f0:	e004      	b.n	0x47fc
    47f2:	8882      	ldrh	r2, [r0, #4]
    47f4:	f64f 73fe 	movw	r3, #65534	; 0xfffe
    47f8:	401a      	ands	r2, r3
    47fa:	8082      	strh	r2, [r0, #4]
    47fc:	4770      	bx	lr
    47fe:	460a      	mov	r2, r1
    4800:	2100      	movs	r1, #0
    4802:	8b01      	ldrh	r1, [r0, #24]
    4804:	f64f 73f7 	movw	r3, #65527	; 0xfff7
    4808:	4019      	ands	r1, r3
    480a:	4311      	orrs	r1, r2
    480c:	8301      	strh	r1, [r0, #24]
    480e:	4770      	bx	lr
    4810:	460a      	mov	r2, r1
    4812:	2100      	movs	r1, #0
    4814:	8b01      	ldrh	r1, [r0, #24]
    4816:	f24f 73ff 	movw	r3, #63487	; 0xf7ff
    481a:	4019      	ands	r1, r3
    481c:	0613      	lsls	r3, r2, #24
    481e:	ea41 4113 	orr.w	r1, r1, r3, lsr #16
    4822:	8301      	strh	r1, [r0, #24]
    4824:	4770      	bx	lr
    4826:	460a      	mov	r2, r1
    4828:	2100      	movs	r1, #0
    482a:	8b81      	ldrh	r1, [r0, #28]
    482c:	f64f 73f7 	movw	r3, #65527	; 0xfff7
    4830:	4019      	ands	r1, r3
    4832:	4311      	orrs	r1, r2
    4834:	8381      	strh	r1, [r0, #28]
    4836:	4770      	bx	lr
    4838:	460a      	mov	r2, r1
    483a:	2100      	movs	r1, #0
    483c:	8b81      	ldrh	r1, [r0, #28]
    483e:	f24f 73ff 	movw	r3, #63487	; 0xf7ff
    4842:	4019      	ands	r1, r3
    4844:	0613      	lsls	r3, r2, #24
    4846:	ea41 4113 	orr.w	r1, r1, r3, lsr #16
    484a:	8381      	strh	r1, [r0, #28]
    484c:	4770      	bx	lr
    484e:	460a      	mov	r2, r1
    4850:	2100      	movs	r1, #0
    4852:	8b01      	ldrh	r1, [r0, #24]
    4854:	f64f 73fb 	movw	r3, #65531	; 0xfffb
    4858:	4019      	ands	r1, r3
    485a:	4311      	orrs	r1, r2
    485c:	8301      	strh	r1, [r0, #24]
    485e:	4770      	bx	lr
    4860:	460a      	mov	r2, r1
    4862:	2100      	movs	r1, #0
    4864:	8b01      	ldrh	r1, [r0, #24]
    4866:	f64f 33ff 	movw	r3, #64511	; 0xfbff
    486a:	4019      	ands	r1, r3
    486c:	0613      	lsls	r3, r2, #24
    486e:	ea41 4113 	orr.w	r1, r1, r3, lsr #16
    4872:	8301      	strh	r1, [r0, #24]
    4874:	4770      	bx	lr
    4876:	460a      	mov	r2, r1
    4878:	2100      	movs	r1, #0
    487a:	8b81      	ldrh	r1, [r0, #28]
    487c:	f64f 73fb 	movw	r3, #65531	; 0xfffb
    4880:	4019      	ands	r1, r3
    4882:	4311      	orrs	r1, r2
    4884:	8381      	strh	r1, [r0, #28]
    4886:	4770      	bx	lr
    4888:	460a      	mov	r2, r1
    488a:	2100      	movs	r1, #0
    488c:	8b81      	ldrh	r1, [r0, #28]
    488e:	f64f 33ff 	movw	r3, #64511	; 0xfbff
    4892:	4019      	ands	r1, r3
    4894:	0613      	lsls	r3, r2, #24
    4896:	ea41 4113 	orr.w	r1, r1, r3, lsr #16
    489a:	8381      	strh	r1, [r0, #28]
    489c:	4770      	bx	lr
    489e:	460a      	mov	r2, r1
    48a0:	2100      	movs	r1, #0
    48a2:	8b01      	ldrh	r1, [r0, #24]
    48a4:	f64f 737f 	movw	r3, #65407	; 0xff7f
    48a8:	4019      	ands	r1, r3
    48aa:	4311      	orrs	r1, r2
    48ac:	8301      	strh	r1, [r0, #24]
    48ae:	4770      	bx	lr
    48b0:	460a      	mov	r2, r1
    48b2:	2100      	movs	r1, #0
    48b4:	8b01      	ldrh	r1, [r0, #24]
    48b6:	f3c1 010e 	ubfx	r1, r1, #0, #15
    48ba:	0613      	lsls	r3, r2, #24
    48bc:	ea41 4113 	orr.w	r1, r1, r3, lsr #16
    48c0:	8301      	strh	r1, [r0, #24]
    48c2:	4770      	bx	lr
    48c4:	460a      	mov	r2, r1
    48c6:	2100      	movs	r1, #0
    48c8:	8b81      	ldrh	r1, [r0, #28]
    48ca:	f64f 737f 	movw	r3, #65407	; 0xff7f
    48ce:	4019      	ands	r1, r3
    48d0:	4311      	orrs	r1, r2
    48d2:	8381      	strh	r1, [r0, #28]
    48d4:	4770      	bx	lr
    48d6:	460a      	mov	r2, r1
    48d8:	2100      	movs	r1, #0
    48da:	8b81      	ldrh	r1, [r0, #28]
    48dc:	f3c1 010e 	ubfx	r1, r1, #0, #15
    48e0:	0613      	lsls	r3, r2, #24
    48e2:	ea41 4113 	orr.w	r1, r1, r3, lsr #16
    48e6:	8381      	strh	r1, [r0, #28]
    48e8:	4770      	bx	lr
    48ea:	460a      	mov	r2, r1
    48ec:	2100      	movs	r1, #0
    48ee:	8c01      	ldrh	r1, [r0, #32]
    48f0:	f64f 73fd 	movw	r3, #65533	; 0xfffd
    48f4:	4019      	ands	r1, r3
    48f6:	4311      	orrs	r1, r2
    48f8:	8401      	strh	r1, [r0, #32]
    48fa:	4770      	bx	lr
    48fc:	460a      	mov	r2, r1
    48fe:	2100      	movs	r1, #0
    4900:	8c01      	ldrh	r1, [r0, #32]
    4902:	f64f 73f7 	movw	r3, #65527	; 0xfff7
    4906:	4019      	ands	r1, r3
    4908:	4311      	orrs	r1, r2
    490a:	8401      	strh	r1, [r0, #32]
    490c:	4770      	bx	lr
    490e:	460a      	mov	r2, r1
    4910:	2100      	movs	r1, #0
    4912:	8c01      	ldrh	r1, [r0, #32]
    4914:	f64f 73df 	movw	r3, #65503	; 0xffdf
    4918:	4019      	ands	r1, r3
    491a:	0513      	lsls	r3, r2, #20
    491c:	ea41 4113 	orr.w	r1, r1, r3, lsr #16
    4920:	8401      	strh	r1, [r0, #32]
    4922:	4770      	bx	lr
    4924:	460a      	mov	r2, r1
    4926:	2100      	movs	r1, #0
    4928:	8c01      	ldrh	r1, [r0, #32]
    492a:	f64f 737f 	movw	r3, #65407	; 0xff7f
    492e:	4019      	ands	r1, r3
    4930:	0513      	lsls	r3, r2, #20
    4932:	ea41 4113 	orr.w	r1, r1, r3, lsr #16
    4936:	8401      	strh	r1, [r0, #32]
    4938:	4770      	bx	lr
    493a:	460a      	mov	r2, r1
    493c:	2100      	movs	r1, #0
    493e:	8c01      	ldrh	r1, [r0, #32]
    4940:	f64f 53ff 	movw	r3, #65023	; 0xfdff
    4944:	4019      	ands	r1, r3
    4946:	0613      	lsls	r3, r2, #24
    4948:	ea41 4113 	orr.w	r1, r1, r3, lsr #16
    494c:	8401      	strh	r1, [r0, #32]
    494e:	4770      	bx	lr
    4950:	460a      	mov	r2, r1
    4952:	2100      	movs	r1, #0
    4954:	8c01      	ldrh	r1, [r0, #32]
    4956:	f24f 73ff 	movw	r3, #63487	; 0xf7ff
    495a:	4019      	ands	r1, r3
    495c:	0613      	lsls	r3, r2, #24
    495e:	ea41 4113 	orr.w	r1, r1, r3, lsr #16
    4962:	8401      	strh	r1, [r0, #32]
    4964:	4770      	bx	lr
    4966:	460a      	mov	r2, r1
    4968:	2100      	movs	r1, #0
    496a:	8c01      	ldrh	r1, [r0, #32]
    496c:	f64d 73ff 	movw	r3, #57343	; 0xdfff
    4970:	4019      	ands	r1, r3
    4972:	0713      	lsls	r3, r2, #28
    4974:	ea41 4113 	orr.w	r1, r1, r3, lsr #16
    4978:	8401      	strh	r1, [r0, #32]
    497a:	4770      	bx	lr
    497c:	b530      	push	{r4, r5, lr}
    497e:	2300      	movs	r3, #0
    4980:	2401      	movs	r4, #1
    4982:	408c      	lsls	r4, r1
    4984:	b2a3      	uxth	r3, r4
    4986:	8c04      	ldrh	r4, [r0, #32]
    4988:	43dd      	mvns	r5, r3
    498a:	b2ad      	uxth	r5, r5
    498c:	402c      	ands	r4, r5
    498e:	8404      	strh	r4, [r0, #32]
    4990:	8c04      	ldrh	r4, [r0, #32]
    4992:	fa02 f501 	lsl.w	r5, r2, r1
    4996:	b2ad      	uxth	r5, r5
    4998:	432c      	orrs	r4, r5
    499a:	8404      	strh	r4, [r0, #32]
    499c:	bd30      	pop	{r4, r5, pc}
    499e:	b530      	push	{r4, r5, lr}
    49a0:	2300      	movs	r3, #0
    49a2:	2404      	movs	r4, #4
    49a4:	408c      	lsls	r4, r1
    49a6:	b2a3      	uxth	r3, r4
    49a8:	8c04      	ldrh	r4, [r0, #32]
    49aa:	43dd      	mvns	r5, r3
    49ac:	b2ad      	uxth	r5, r5
    49ae:	402c      	ands	r4, r5
    49b0:	8404      	strh	r4, [r0, #32]
    49b2:	8c04      	ldrh	r4, [r0, #32]
    49b4:	fa02 f501 	lsl.w	r5, r2, r1
    49b8:	b2ad      	uxth	r5, r5
    49ba:	432c      	orrs	r4, r5
    49bc:	8404      	strh	r4, [r0, #32]
    49be:	bd30      	pop	{r4, r5, pc}
    49c0:	b570      	push	{r4, r5, r6, lr}
    49c2:	4603      	mov	r3, r0
    49c4:	2000      	movs	r0, #0
    49c6:	2400      	movs	r4, #0
    49c8:	4618      	mov	r0, r3
    49ca:	3018      	adds	r0, #24
    49cc:	2501      	movs	r5, #1
    49ce:	408d      	lsls	r5, r1
    49d0:	b2ac      	uxth	r4, r5
    49d2:	8c1d      	ldrh	r5, [r3, #32]
    49d4:	43e6      	mvns	r6, r4
    49d6:	b2b6      	uxth	r6, r6
    49d8:	4035      	ands	r5, r6
    49da:	841d      	strh	r5, [r3, #32]
    49dc:	b109      	cbz	r1, 0x49e2
    49de:	2908      	cmp	r1, #8
    49e0:	d10a      	bne.n	0x49f8
    49e2:	eb00 0061 	add.w	r0, r0, r1, asr #1
    49e6:	6805      	ldr	r5, [r0, #0]
    49e8:	f64f 768f 	movw	r6, #65423	; 0xff8f
    49ec:	4035      	ands	r5, r6
    49ee:	6005      	str	r5, [r0, #0]
    49f0:	6805      	ldr	r5, [r0, #0]
    49f2:	4315      	orrs	r5, r2
    49f4:	6005      	str	r5, [r0, #0]
    49f6:	e00d      	b.n	0x4a14
    49f8:	1f0d      	subs	r5, r1, #4
    49fa:	b2ad      	uxth	r5, r5
    49fc:	eb00 0065 	add.w	r0, r0, r5, asr #1
    4a00:	6805      	ldr	r5, [r0, #0]
    4a02:	f648 76ff 	movw	r6, #36863	; 0x8fff
    4a06:	4035      	ands	r5, r6
    4a08:	6005      	str	r5, [r0, #0]
    4a0a:	6805      	ldr	r5, [r0, #0]
    4a0c:	0616      	lsls	r6, r2, #24
    4a0e:	ea45 4516 	orr.w	r5, r5, r6, lsr #16
    4a12:	6005      	str	r5, [r0, #0]
    4a14:	bd70      	pop	{r4, r5, r6, pc}
    4a16:	b121      	cbz	r1, 0x4a22
    4a18:	8802      	ldrh	r2, [r0, #0]
    4a1a:	f042 0202 	orr.w	r2, r2, #2
    4a1e:	8002      	strh	r2, [r0, #0]
    4a20:	e004      	b.n	0x4a2c
    4a22:	8802      	ldrh	r2, [r0, #0]
    4a24:	f240 33fd 	movw	r3, #1021	; 0x3fd
    4a28:	401a      	ands	r2, r3
    4a2a:	8002      	strh	r2, [r0, #0]
    4a2c:	4770      	bx	lr
    4a2e:	b121      	cbz	r1, 0x4a3a
    4a30:	8802      	ldrh	r2, [r0, #0]
    4a32:	f042 0204 	orr.w	r2, r2, #4
    4a36:	8002      	strh	r2, [r0, #0]
    4a38:	e004      	b.n	0x4a44
    4a3a:	8802      	ldrh	r2, [r0, #0]
    4a3c:	f240 33fb 	movw	r3, #1019	; 0x3fb
    4a40:	401a      	ands	r2, r3
    4a42:	8002      	strh	r2, [r0, #0]
    4a44:	4770      	bx	lr
    4a46:	b121      	cbz	r1, 0x4a52
    4a48:	8882      	ldrh	r2, [r0, #4]
    4a4a:	f042 0280 	orr.w	r2, r2, #128	; 0x80
    4a4e:	8082      	strh	r2, [r0, #4]
    4a50:	e004      	b.n	0x4a5c
    4a52:	8882      	ldrh	r2, [r0, #4]
    4a54:	f64f 737f 	movw	r3, #65407	; 0xff7f
    4a58:	401a      	ands	r2, r3
    4a5a:	8082      	strh	r2, [r0, #4]
    4a5c:	4770      	bx	lr
    4a5e:	8802      	ldrh	r2, [r0, #0]
    4a60:	f240 33f7 	movw	r3, #1015	; 0x3f7
    4a64:	401a      	ands	r2, r3
    4a66:	8002      	strh	r2, [r0, #0]
    4a68:	8802      	ldrh	r2, [r0, #0]
    4a6a:	430a      	orrs	r2, r1
    4a6c:	8002      	strh	r2, [r0, #0]
    4a6e:	4770      	bx	lr
    4a70:	8882      	ldrh	r2, [r0, #4]
    4a72:	f64f 738f 	movw	r3, #65423	; 0xff8f
    4a76:	401a      	ands	r2, r3
    4a78:	8082      	strh	r2, [r0, #4]
    4a7a:	8882      	ldrh	r2, [r0, #4]
    4a7c:	430a      	orrs	r2, r1
    4a7e:	8082      	strh	r2, [r0, #4]
    4a80:	4770      	bx	lr
    4a82:	8902      	ldrh	r2, [r0, #8]
    4a84:	f64f 73f8 	movw	r3, #65528	; 0xfff8
    4a88:	401a      	ands	r2, r3
    4a8a:	8102      	strh	r2, [r0, #8]
    4a8c:	8902      	ldrh	r2, [r0, #8]
    4a8e:	430a      	orrs	r2, r1
    4a90:	8102      	strh	r2, [r0, #8]
    4a92:	4770      	bx	lr
    4a94:	8902      	ldrh	r2, [r0, #8]
    4a96:	f64f 737f 	movw	r3, #65407	; 0xff7f
    4a9a:	401a      	ands	r2, r3
    4a9c:	8102      	strh	r2, [r0, #8]
    4a9e:	8902      	ldrh	r2, [r0, #8]
    4aa0:	430a      	orrs	r2, r1
    4aa2:	8102      	strh	r2, [r0, #8]
    4aa4:	4770      	bx	lr
    4aa6:	8481      	strh	r1, [r0, #36]	; 0x24
    4aa8:	4770      	bx	lr
    4aaa:	8581      	strh	r1, [r0, #44]	; 0x2c
    4aac:	4770      	bx	lr
    4aae:	8681      	strh	r1, [r0, #52]	; 0x34
    4ab0:	4770      	bx	lr
    4ab2:	8701      	strh	r1, [r0, #56]	; 0x38
    4ab4:	4770      	bx	lr
    4ab6:	8781      	strh	r1, [r0, #60]	; 0x3c
    4ab8:	4770      	bx	lr
    4aba:	f8a0 1040 	strh.w	r1, [r0, #64]	; 0x40
    4abe:	4770      	bx	lr
    4ac0:	8802      	ldrh	r2, [r0, #0]
    4ac2:	b2d2      	uxtb	r2, r2
    4ac4:	8002      	strh	r2, [r0, #0]
    4ac6:	8802      	ldrh	r2, [r0, #0]
    4ac8:	430a      	orrs	r2, r1
    4aca:	8002      	strh	r2, [r0, #0]
    4acc:	4770      	bx	lr
    4ace:	4601      	mov	r1, r0
    4ad0:	8e88      	ldrh	r0, [r1, #52]	; 0x34
    4ad2:	4770      	bx	lr
    4ad4:	4601      	mov	r1, r0
    4ad6:	8f08      	ldrh	r0, [r1, #56]	; 0x38
    4ad8:	4770      	bx	lr
    4ada:	4601      	mov	r1, r0
    4adc:	8f88      	ldrh	r0, [r1, #60]	; 0x3c
    4ade:	4770      	bx	lr
    4ae0:	4601      	mov	r1, r0
    4ae2:	f8b1 0040 	ldrh.w	r0, [r1, #64]	; 0x40
    4ae6:	4770      	bx	lr
    4ae8:	4601      	mov	r1, r0
    4aea:	8c88      	ldrh	r0, [r1, #36]	; 0x24
    4aec:	4770      	bx	lr
    4aee:	4601      	mov	r1, r0
    4af0:	8d08      	ldrh	r0, [r1, #40]	; 0x28
    4af2:	4770      	bx	lr
    4af4:	4602      	mov	r2, r0
    4af6:	2000      	movs	r0, #0
    4af8:	8a13      	ldrh	r3, [r2, #16]
    4afa:	420b      	tst	r3, r1
    4afc:	d001      	beq.n	0x4b02
    4afe:	2001      	movs	r0, #1
    4b00:	e000      	b.n	0x4b04
    4b02:	2000      	movs	r0, #0
    4b04:	4770      	bx	lr
    4b06:	43ca      	mvns	r2, r1
    4b08:	8202      	strh	r2, [r0, #16]
    4b0a:	4770      	bx	lr
    4b0c:	b530      	push	{r4, r5, lr}
    4b0e:	4602      	mov	r2, r0
    4b10:	2000      	movs	r0, #0
    4b12:	2300      	movs	r3, #0
    4b14:	2400      	movs	r4, #0
    4b16:	8a15      	ldrh	r5, [r2, #16]
    4b18:	ea05 0301 	and.w	r3, r5, r1
    4b1c:	8995      	ldrh	r5, [r2, #12]
    4b1e:	ea05 0401 	and.w	r4, r5, r1
    4b22:	b113      	cbz	r3, 0x4b2a
    4b24:	b10c      	cbz	r4, 0x4b2a
    4b26:	2001      	movs	r0, #1
    4b28:	e000      	b.n	0x4b2c
    4b2a:	2000      	movs	r0, #0
    4b2c:	bd30      	pop	{r4, r5, pc}
    4b2e:	43ca      	mvns	r2, r1
    4b30:	8202      	strh	r2, [r0, #16]
    4b32:	4770      	bx	lr
    4b34:	6801      	ldr	r1, [r0, #0]
    4b36:	f021 0101 	bic.w	r1, r1, #1
    4b3a:	6001      	str	r1, [r0, #0]
    4b3c:	2100      	movs	r1, #0
    4b3e:	6001      	str	r1, [r0, #0]
    4b40:	6041      	str	r1, [r0, #4]
    4b42:	6081      	str	r1, [r0, #8]
    4b44:	60c1      	str	r1, [r0, #12]
    4b46:	4986      	ldr	r1, [pc, #536]	; (0x4d60)
    4b48:	4288      	cmp	r0, r1
    4b4a:	d108      	bne.n	0x4b5e
    4b4c:	4984      	ldr	r1, [pc, #528]	; (0x4d60)
    4b4e:	3908      	subs	r1, #8
    4b50:	6849      	ldr	r1, [r1, #4]
    4b52:	f041 010f 	orr.w	r1, r1, #15
    4b56:	4a82      	ldr	r2, [pc, #520]	; (0x4d60)
    4b58:	3a08      	subs	r2, #8
    4b5a:	6051      	str	r1, [r2, #4]
    4b5c:	e088      	b.n	0x4c70
    4b5e:	4980      	ldr	r1, [pc, #512]	; (0x4d60)
    4b60:	3114      	adds	r1, #20
    4b62:	4288      	cmp	r0, r1
    4b64:	d108      	bne.n	0x4b78
    4b66:	497e      	ldr	r1, [pc, #504]	; (0x4d60)
    4b68:	3908      	subs	r1, #8
    4b6a:	6849      	ldr	r1, [r1, #4]
    4b6c:	f041 01f0 	orr.w	r1, r1, #240	; 0xf0
    4b70:	4a7b      	ldr	r2, [pc, #492]	; (0x4d60)
    4b72:	3a08      	subs	r2, #8
    4b74:	6051      	str	r1, [r2, #4]
    4b76:	e07b      	b.n	0x4c70
    4b78:	4979      	ldr	r1, [pc, #484]	; (0x4d60)
    4b7a:	3128      	adds	r1, #40	; 0x28
    4b7c:	4288      	cmp	r0, r1
    4b7e:	d108      	bne.n	0x4b92
    4b80:	4977      	ldr	r1, [pc, #476]	; (0x4d60)
    4b82:	3908      	subs	r1, #8
    4b84:	6849      	ldr	r1, [r1, #4]
    4b86:	f441 6170 	orr.w	r1, r1, #3840	; 0xf00
    4b8a:	4a75      	ldr	r2, [pc, #468]	; (0x4d60)
    4b8c:	3a08      	subs	r2, #8
    4b8e:	6051      	str	r1, [r2, #4]
    4b90:	e06e      	b.n	0x4c70
    4b92:	4973      	ldr	r1, [pc, #460]	; (0x4d60)
    4b94:	313c      	adds	r1, #60	; 0x3c
    4b96:	4288      	cmp	r0, r1
    4b98:	d108      	bne.n	0x4bac
    4b9a:	4971      	ldr	r1, [pc, #452]	; (0x4d60)
    4b9c:	3908      	subs	r1, #8
    4b9e:	6849      	ldr	r1, [r1, #4]
    4ba0:	f441 4170 	orr.w	r1, r1, #61440	; 0xf000
    4ba4:	4a6e      	ldr	r2, [pc, #440]	; (0x4d60)
    4ba6:	3a08      	subs	r2, #8
    4ba8:	6051      	str	r1, [r2, #4]
    4baa:	e061      	b.n	0x4c70
    4bac:	496c      	ldr	r1, [pc, #432]	; (0x4d60)
    4bae:	3150      	adds	r1, #80	; 0x50
    4bb0:	4288      	cmp	r0, r1
    4bb2:	d108      	bne.n	0x4bc6
    4bb4:	496a      	ldr	r1, [pc, #424]	; (0x4d60)
    4bb6:	3908      	subs	r1, #8
    4bb8:	6849      	ldr	r1, [r1, #4]
    4bba:	f441 2170 	orr.w	r1, r1, #983040	; 0xf0000
    4bbe:	4a68      	ldr	r2, [pc, #416]	; (0x4d60)
    4bc0:	3a08      	subs	r2, #8
    4bc2:	6051      	str	r1, [r2, #4]
    4bc4:	e054      	b.n	0x4c70
    4bc6:	4966      	ldr	r1, [pc, #408]	; (0x4d60)
    4bc8:	3164      	adds	r1, #100	; 0x64
    4bca:	4288      	cmp	r0, r1
    4bcc:	d108      	bne.n	0x4be0
    4bce:	4964      	ldr	r1, [pc, #400]	; (0x4d60)
    4bd0:	3908      	subs	r1, #8
    4bd2:	6849      	ldr	r1, [r1, #4]
    4bd4:	f441 0170 	orr.w	r1, r1, #15728640	; 0xf00000
    4bd8:	4a61      	ldr	r2, [pc, #388]	; (0x4d60)
    4bda:	3a08      	subs	r2, #8
    4bdc:	6051      	str	r1, [r2, #4]
    4bde:	e047      	b.n	0x4c70
    4be0:	495f      	ldr	r1, [pc, #380]	; (0x4d60)
    4be2:	3178      	adds	r1, #120	; 0x78
    4be4:	4288      	cmp	r0, r1
    4be6:	d108      	bne.n	0x4bfa
    4be8:	495d      	ldr	r1, [pc, #372]	; (0x4d60)
    4bea:	3908      	subs	r1, #8
    4bec:	6849      	ldr	r1, [r1, #4]
    4bee:	f041 6170 	orr.w	r1, r1, #251658240	; 0xf000000
    4bf2:	4a5b      	ldr	r2, [pc, #364]	; (0x4d60)
    4bf4:	3a08      	subs	r2, #8
    4bf6:	6051      	str	r1, [r2, #4]
    4bf8:	e03a      	b.n	0x4c70
    4bfa:	495a      	ldr	r1, [pc, #360]	; (0x4d64)
    4bfc:	4288      	cmp	r0, r1
    4bfe:	d108      	bne.n	0x4c12
    4c00:	f1a0 0104 	sub.w	r1, r0, #4
    4c04:	6809      	ldr	r1, [r1, #0]
    4c06:	f041 010f 	orr.w	r1, r1, #15
    4c0a:	4a57      	ldr	r2, [pc, #348]	; (0x4d68)
    4c0c:	f8c2 1404 	str.w	r1, [r2, #1028]	; 0x404
    4c10:	e02e      	b.n	0x4c70
    4c12:	4954      	ldr	r1, [pc, #336]	; (0x4d64)
    4c14:	3114      	adds	r1, #20
    4c16:	4288      	cmp	r0, r1
    4c18:	d107      	bne.n	0x4c2a
    4c1a:	4954      	ldr	r1, [pc, #336]	; (0x4d6c)
    4c1c:	6809      	ldr	r1, [r1, #0]
    4c1e:	f041 01f0 	orr.w	r1, r1, #240	; 0xf0
    4c22:	4a51      	ldr	r2, [pc, #324]	; (0x4d68)
    4c24:	f8c2 1404 	str.w	r1, [r2, #1028]	; 0x404
    4c28:	e022      	b.n	0x4c70
    4c2a:	494e      	ldr	r1, [pc, #312]	; (0x4d64)
    4c2c:	3128      	adds	r1, #40	; 0x28
    4c2e:	4288      	cmp	r0, r1
    4c30:	d107      	bne.n	0x4c42
    4c32:	494e      	ldr	r1, [pc, #312]	; (0x4d6c)
    4c34:	6809      	ldr	r1, [r1, #0]
    4c36:	f441 6170 	orr.w	r1, r1, #3840	; 0xf00
    4c3a:	4a4b      	ldr	r2, [pc, #300]	; (0x4d68)
    4c3c:	f8c2 1404 	str.w	r1, [r2, #1028]	; 0x404
    4c40:	e016      	b.n	0x4c70
    4c42:	4948      	ldr	r1, [pc, #288]	; (0x4d64)
    4c44:	313c      	adds	r1, #60	; 0x3c
    4c46:	4288      	cmp	r0, r1
    4c48:	d107      	bne.n	0x4c5a
    4c4a:	4948      	ldr	r1, [pc, #288]	; (0x4d6c)
    4c4c:	6809      	ldr	r1, [r1, #0]
    4c4e:	f441 4170 	orr.w	r1, r1, #61440	; 0xf000
    4c52:	4a45      	ldr	r2, [pc, #276]	; (0x4d68)
    4c54:	f8c2 1404 	str.w	r1, [r2, #1028]	; 0x404
    4c58:	e00a      	b.n	0x4c70
    4c5a:	4942      	ldr	r1, [pc, #264]	; (0x4d64)
    4c5c:	3150      	adds	r1, #80	; 0x50
    4c5e:	4288      	cmp	r0, r1
    4c60:	d106      	bne.n	0x4c70
    4c62:	4942      	ldr	r1, [pc, #264]	; (0x4d6c)
    4c64:	6809      	ldr	r1, [r1, #0]
    4c66:	f441 2170 	orr.w	r1, r1, #983040	; 0xf0000
    4c6a:	4a3f      	ldr	r2, [pc, #252]	; (0x4d68)
    4c6c:	f8c2 1404 	str.w	r1, [r2, #1028]	; 0x404
    4c70:	4770      	bx	lr
    4c72:	b510      	push	{r4, lr}
    4c74:	2200      	movs	r2, #0
    4c76:	6802      	ldr	r2, [r0, #0]
    4c78:	f647 73f0 	movw	r3, #32752	; 0x7ff0
    4c7c:	439a      	bics	r2, r3
    4c7e:	6a0c      	ldr	r4, [r1, #32]
    4c80:	688b      	ldr	r3, [r1, #8]
    4c82:	4323      	orrs	r3, r4
    4c84:	690c      	ldr	r4, [r1, #16]
    4c86:	4323      	orrs	r3, r4
    4c88:	694c      	ldr	r4, [r1, #20]
    4c8a:	4323      	orrs	r3, r4
    4c8c:	698c      	ldr	r4, [r1, #24]
    4c8e:	4323      	orrs	r3, r4
    4c90:	69cc      	ldr	r4, [r1, #28]
    4c92:	4323      	orrs	r3, r4
    4c94:	6a4c      	ldr	r4, [r1, #36]	; 0x24
    4c96:	4323      	orrs	r3, r4
    4c98:	6a8c      	ldr	r4, [r1, #40]	; 0x28
    4c9a:	4323      	orrs	r3, r4
    4c9c:	431a      	orrs	r2, r3
    4c9e:	6002      	str	r2, [r0, #0]
    4ca0:	68cb      	ldr	r3, [r1, #12]
    4ca2:	6043      	str	r3, [r0, #4]
    4ca4:	680b      	ldr	r3, [r1, #0]
    4ca6:	6083      	str	r3, [r0, #8]
    4ca8:	684b      	ldr	r3, [r1, #4]
    4caa:	60c3      	str	r3, [r0, #12]
    4cac:	bd10      	pop	{r4, pc}
    4cae:	2100      	movs	r1, #0
    4cb0:	6001      	str	r1, [r0, #0]
    4cb2:	6041      	str	r1, [r0, #4]
    4cb4:	6081      	str	r1, [r0, #8]
    4cb6:	60c1      	str	r1, [r0, #12]
    4cb8:	6101      	str	r1, [r0, #16]
    4cba:	6141      	str	r1, [r0, #20]
    4cbc:	6181      	str	r1, [r0, #24]
    4cbe:	61c1      	str	r1, [r0, #28]
    4cc0:	6201      	str	r1, [r0, #32]
    4cc2:	6241      	str	r1, [r0, #36]	; 0x24
    4cc4:	6281      	str	r1, [r0, #40]	; 0x28
    4cc6:	4770      	bx	lr
    4cc8:	b121      	cbz	r1, 0x4cd4
    4cca:	6802      	ldr	r2, [r0, #0]
    4ccc:	f042 0201 	orr.w	r2, r2, #1
    4cd0:	6002      	str	r2, [r0, #0]
    4cd2:	e003      	b.n	0x4cdc
    4cd4:	6802      	ldr	r2, [r0, #0]
    4cd6:	f022 0201 	bic.w	r2, r2, #1
    4cda:	6002      	str	r2, [r0, #0]
    4cdc:	4770      	bx	lr
    4cde:	b11a      	cbz	r2, 0x4ce8
    4ce0:	6803      	ldr	r3, [r0, #0]
    4ce2:	430b      	orrs	r3, r1
    4ce4:	6003      	str	r3, [r0, #0]
    4ce6:	e002      	b.n	0x4cee
    4ce8:	6803      	ldr	r3, [r0, #0]
    4cea:	438b      	bics	r3, r1
    4cec:	6003      	str	r3, [r0, #0]
    4cee:	4770      	bx	lr
    4cf0:	4601      	mov	r1, r0
    4cf2:	6848      	ldr	r0, [r1, #4]
    4cf4:	b280      	uxth	r0, r0
    4cf6:	4770      	bx	lr
    4cf8:	4601      	mov	r1, r0
    4cfa:	2000      	movs	r0, #0
    4cfc:	2200      	movs	r2, #0
    4cfe:	f011 5f80 	tst.w	r1, #268435456	; 0x10000000
    4d02:	d002      	beq.n	0x4d0a
    4d04:	4b1a      	ldr	r3, [pc, #104]	; (0x4d70)
    4d06:	681a      	ldr	r2, [r3, #0]
    4d08:	e001      	b.n	0x4d0e
    4d0a:	4b17      	ldr	r3, [pc, #92]	; (0x4d68)
    4d0c:	681a      	ldr	r2, [r3, #0]
    4d0e:	420a      	tst	r2, r1
    4d10:	d001      	beq.n	0x4d16
    4d12:	2001      	movs	r0, #1
    4d14:	e000      	b.n	0x4d18
    4d16:	2000      	movs	r0, #0
    4d18:	4770      	bx	lr
    4d1a:	f010 5f80 	tst.w	r0, #268435456	; 0x10000000
    4d1e:	d002      	beq.n	0x4d26
    4d20:	4912      	ldr	r1, [pc, #72]	; (0x4d6c)
    4d22:	6008      	str	r0, [r1, #0]
    4d24:	e001      	b.n	0x4d2a
    4d26:	4910      	ldr	r1, [pc, #64]	; (0x4d68)
    4d28:	6048      	str	r0, [r1, #4]
    4d2a:	4770      	bx	lr
    4d2c:	4601      	mov	r1, r0
    4d2e:	2000      	movs	r0, #0
    4d30:	2200      	movs	r2, #0
    4d32:	f011 5f80 	tst.w	r1, #268435456	; 0x10000000
    4d36:	d002      	beq.n	0x4d3e
    4d38:	4b0d      	ldr	r3, [pc, #52]	; (0x4d70)
    4d3a:	681a      	ldr	r2, [r3, #0]
    4d3c:	e001      	b.n	0x4d42
    4d3e:	4b0a      	ldr	r3, [pc, #40]	; (0x4d68)
    4d40:	681a      	ldr	r2, [r3, #0]
    4d42:	420a      	tst	r2, r1
    4d44:	d001      	beq.n	0x4d4a
    4d46:	2001      	movs	r0, #1
    4d48:	e000      	b.n	0x4d4c
    4d4a:	2000      	movs	r0, #0
    4d4c:	4770      	bx	lr
    4d4e:	f010 5f80 	tst.w	r0, #268435456	; 0x10000000
    4d52:	d002      	beq.n	0x4d5a
    4d54:	4905      	ldr	r1, [pc, #20]	; (0x4d6c)
    4d56:	6008      	str	r0, [r1, #0]
    4d58:	e001      	b.n	0x4d5e
    4d5a:	4903      	ldr	r1, [pc, #12]	; (0x4d68)
    4d5c:	6048      	str	r0, [r1, #4]
    4d5e:	4770      	bx	lr
    4d60:	0008      	movs	r0, r1
    4d62:	4002      	ands	r2, r0
    4d64:	0408      	lsls	r0, r1, #16
    4d66:	4002      	ands	r2, r0
    4d68:	0000      	movs	r0, r0
    4d6a:	4002      	ands	r2, r0
    4d6c:	0404      	lsls	r4, r0, #16
    4d6e:	4002      	ands	r2, r0
    4d70:	0400      	lsls	r0, r0, #16
    4d72:	4002      	ands	r2, r0
    4d74:	b510      	push	{r4, lr}
    4d76:	4604      	mov	r4, r0
    4d78:	48f8      	ldr	r0, [pc, #992]	; (0x515c)
    4d7a:	4284      	cmp	r4, r0
    4d7c:	d108      	bne.n	0x4d90
    4d7e:	2101      	movs	r1, #1
    4d80:	1540      	asrs	r0, r0, #21
    4d82:	f7ff f8f0 	bl	0x3f66
    4d86:	2100      	movs	r1, #0
    4d88:	1560      	asrs	r0, r4, #21
    4d8a:	f7ff f8ec 	bl	0x3f66
    4d8e:	e017      	b.n	0x4dc0
    4d90:	48f3      	ldr	r0, [pc, #972]	; (0x5160)
    4d92:	4284      	cmp	r4, r0
    4d94:	d108      	bne.n	0x4da8
    4d96:	2101      	movs	r1, #1
    4d98:	1500      	asrs	r0, r0, #20
    4d9a:	f7ff f8e4 	bl	0x3f66
    4d9e:	2100      	movs	r1, #0
    4da0:	1520      	asrs	r0, r4, #20
    4da2:	f7ff f8e0 	bl	0x3f66
    4da6:	e00b      	b.n	0x4dc0
    4da8:	48ee      	ldr	r0, [pc, #952]	; (0x5164)
    4daa:	4284      	cmp	r4, r0
    4dac:	d108      	bne.n	0x4dc0
    4dae:	2101      	movs	r1, #1
    4db0:	03c8      	lsls	r0, r1, #15
    4db2:	f7ff f8d8 	bl	0x3f66
    4db6:	2100      	movs	r1, #0
    4db8:	f44f 4000 	mov.w	r0, #32768	; 0x8000
    4dbc:	f7ff f8d3 	bl	0x3f66
    4dc0:	bd10      	pop	{r4, pc}
    4dc2:	b530      	push	{r4, r5, lr}
    4dc4:	4602      	mov	r2, r0
    4dc6:	2000      	movs	r0, #0
    4dc8:	2300      	movs	r3, #0
    4dca:	6850      	ldr	r0, [r2, #4]
    4dcc:	4ce6      	ldr	r4, [pc, #920]	; (0x5168)
    4dce:	4020      	ands	r0, r4
    4dd0:	790d      	ldrb	r5, [r1, #4]
    4dd2:	680c      	ldr	r4, [r1, #0]
    4dd4:	ea44 2405 	orr.w	r4, r4, r5, lsl #8
    4dd8:	4320      	orrs	r0, r4
    4dda:	6050      	str	r0, [r2, #4]
    4ddc:	6890      	ldr	r0, [r2, #8]
    4dde:	4ce3      	ldr	r4, [pc, #908]	; (0x516c)
    4de0:	4020      	ands	r0, r4
    4de2:	e9d1 5402 	ldrd	r5, r4, [r1, #8]
    4de6:	432c      	orrs	r4, r5
    4de8:	794d      	ldrb	r5, [r1, #5]
    4dea:	ea44 0445 	orr.w	r4, r4, r5, lsl #1
    4dee:	4320      	orrs	r0, r4
    4df0:	6090      	str	r0, [r2, #8]
    4df2:	6ad0      	ldr	r0, [r2, #44]	; 0x2c
    4df4:	f420 0070 	bic.w	r0, r0, #15728640	; 0xf00000
    4df8:	7c0c      	ldrb	r4, [r1, #16]
    4dfa:	1e64      	subs	r4, r4, #1
    4dfc:	b2e4      	uxtb	r4, r4
    4dfe:	4323      	orrs	r3, r4
    4e00:	ea40 5003 	orr.w	r0, r0, r3, lsl #20
    4e04:	62d0      	str	r0, [r2, #44]	; 0x2c
    4e06:	bd30      	pop	{r4, r5, pc}
    4e08:	2100      	movs	r1, #0
    4e0a:	6001      	str	r1, [r0, #0]
    4e0c:	7101      	strb	r1, [r0, #4]
    4e0e:	7141      	strb	r1, [r0, #5]
    4e10:	6081      	str	r1, [r0, #8]
    4e12:	60c1      	str	r1, [r0, #12]
    4e14:	2101      	movs	r1, #1
    4e16:	7401      	strb	r1, [r0, #16]
    4e18:	4770      	bx	lr
    4e1a:	b121      	cbz	r1, 0x4e26
    4e1c:	6882      	ldr	r2, [r0, #8]
    4e1e:	f042 0201 	orr.w	r2, r2, #1
    4e22:	6082      	str	r2, [r0, #8]
    4e24:	e003      	b.n	0x4e2e
    4e26:	6882      	ldr	r2, [r0, #8]
    4e28:	f022 0201 	bic.w	r2, r2, #1
    4e2c:	6082      	str	r2, [r0, #8]
    4e2e:	4770      	bx	lr
    4e30:	b121      	cbz	r1, 0x4e3c
    4e32:	6882      	ldr	r2, [r0, #8]
    4e34:	f442 7280 	orr.w	r2, r2, #256	; 0x100
    4e38:	6082      	str	r2, [r0, #8]
    4e3a:	e003      	b.n	0x4e44
    4e3c:	6882      	ldr	r2, [r0, #8]
    4e3e:	f422 7280 	bic.w	r2, r2, #256	; 0x100
    4e42:	6082      	str	r2, [r0, #8]
    4e44:	4770      	bx	lr
    4e46:	b510      	push	{r4, lr}
    4e48:	2300      	movs	r3, #0
    4e4a:	b2cb      	uxtb	r3, r1
    4e4c:	b11a      	cbz	r2, 0x4e56
    4e4e:	6844      	ldr	r4, [r0, #4]
    4e50:	431c      	orrs	r4, r3
    4e52:	6044      	str	r4, [r0, #4]
    4e54:	e002      	b.n	0x4e5c
    4e56:	6844      	ldr	r4, [r0, #4]
    4e58:	439c      	bics	r4, r3
    4e5a:	6044      	str	r4, [r0, #4]
    4e5c:	bd10      	pop	{r4, pc}
    4e5e:	6881      	ldr	r1, [r0, #8]
    4e60:	f041 0108 	orr.w	r1, r1, #8
    4e64:	6081      	str	r1, [r0, #8]
    4e66:	4770      	bx	lr
    4e68:	4601      	mov	r1, r0
    4e6a:	2000      	movs	r0, #0
    4e6c:	688a      	ldr	r2, [r1, #8]
    4e6e:	f012 0f08 	tst.w	r2, #8
    4e72:	d001      	beq.n	0x4e78
    4e74:	2001      	movs	r0, #1
    4e76:	e000      	b.n	0x4e7a
    4e78:	2000      	movs	r0, #0
    4e7a:	4770      	bx	lr
    4e7c:	6881      	ldr	r1, [r0, #8]
    4e7e:	f041 0104 	orr.w	r1, r1, #4
    4e82:	6081      	str	r1, [r0, #8]
    4e84:	4770      	bx	lr
    4e86:	4601      	mov	r1, r0
    4e88:	2000      	movs	r0, #0
    4e8a:	688a      	ldr	r2, [r1, #8]
    4e8c:	f012 0f04 	tst.w	r2, #4
    4e90:	d001      	beq.n	0x4e96
    4e92:	2001      	movs	r0, #1
    4e94:	e000      	b.n	0x4e98
    4e96:	2000      	movs	r0, #0
    4e98:	4770      	bx	lr
    4e9a:	b121      	cbz	r1, 0x4ea6
    4e9c:	6882      	ldr	r2, [r0, #8]
    4e9e:	f442 02a0 	orr.w	r2, r2, #5242880	; 0x500000
    4ea2:	6082      	str	r2, [r0, #8]
    4ea4:	e003      	b.n	0x4eae
    4ea6:	6882      	ldr	r2, [r0, #8]
    4ea8:	f422 02a0 	bic.w	r2, r2, #5242880	; 0x500000
    4eac:	6082      	str	r2, [r0, #8]
    4eae:	4770      	bx	lr
    4eb0:	4601      	mov	r1, r0
    4eb2:	2000      	movs	r0, #0
    4eb4:	688a      	ldr	r2, [r1, #8]
    4eb6:	f412 0f80 	tst.w	r2, #4194304	; 0x400000
    4eba:	d001      	beq.n	0x4ec0
    4ebc:	2001      	movs	r0, #1
    4ebe:	e000      	b.n	0x4ec2
    4ec0:	2000      	movs	r0, #0
    4ec2:	4770      	bx	lr
    4ec4:	b510      	push	{r4, lr}
    4ec6:	460a      	mov	r2, r1
    4ec8:	2100      	movs	r1, #0
    4eca:	2300      	movs	r3, #0
    4ecc:	6841      	ldr	r1, [r0, #4]
    4ece:	f421 4160 	bic.w	r1, r1, #57344	; 0xe000
    4ed2:	1e53      	subs	r3, r2, #1
    4ed4:	ea41 3143 	orr.w	r1, r1, r3, lsl #13
    4ed8:	6041      	str	r1, [r0, #4]
    4eda:	bd10      	pop	{r4, pc}
    4edc:	b121      	cbz	r1, 0x4ee8
    4ede:	6842      	ldr	r2, [r0, #4]
    4ee0:	f442 6200 	orr.w	r2, r2, #2048	; 0x800
    4ee4:	6042      	str	r2, [r0, #4]
    4ee6:	e003      	b.n	0x4ef0
    4ee8:	6842      	ldr	r2, [r0, #4]
    4eea:	f422 6200 	bic.w	r2, r2, #2048	; 0x800
    4eee:	6042      	str	r2, [r0, #4]
    4ef0:	4770      	bx	lr
    4ef2:	b5f0      	push	{r4, r5, r6, r7, lr}
    4ef4:	4604      	mov	r4, r0
    4ef6:	460d      	mov	r5, r1
    4ef8:	2000      	movs	r0, #0
    4efa:	2100      	movs	r1, #0
    4efc:	2d09      	cmp	r5, #9
    4efe:	dd11      	ble.n	0x4f24
    4f00:	68e0      	ldr	r0, [r4, #12]
    4f02:	f1a5 060a 	sub.w	r6, r5, #10
    4f06:	eb06 0746 	add.w	r7, r6, r6, lsl #1
    4f0a:	2607      	movs	r6, #7
    4f0c:	fa06 f107 	lsl.w	r1, r6, r7
    4f10:	4388      	bics	r0, r1
    4f12:	f1a5 060a 	sub.w	r6, r5, #10
    4f16:	eb06 0646 	add.w	r6, r6, r6, lsl #1
    4f1a:	fa03 f106 	lsl.w	r1, r3, r6
    4f1e:	4308      	orrs	r0, r1
    4f20:	60e0      	str	r0, [r4, #12]
    4f22:	e00c      	b.n	0x4f3e
    4f24:	6920      	ldr	r0, [r4, #16]
    4f26:	eb05 0745 	add.w	r7, r5, r5, lsl #1
    4f2a:	2607      	movs	r6, #7
    4f2c:	fa06 f107 	lsl.w	r1, r6, r7
    4f30:	4388      	bics	r0, r1
    4f32:	eb05 0645 	add.w	r6, r5, r5, lsl #1
    4f36:	fa03 f106 	lsl.w	r1, r3, r6
    4f3a:	4308      	orrs	r0, r1
    4f3c:	6120      	str	r0, [r4, #16]
    4f3e:	2a07      	cmp	r2, #7
    4f40:	da0f      	bge.n	0x4f62
    4f42:	6b60      	ldr	r0, [r4, #52]	; 0x34
    4f44:	1e56      	subs	r6, r2, #1
    4f46:	eb06 0786 	add.w	r7, r6, r6, lsl #2
    4f4a:	261f      	movs	r6, #31
    4f4c:	fa06 f107 	lsl.w	r1, r6, r7
    4f50:	4388      	bics	r0, r1
    4f52:	1e56      	subs	r6, r2, #1
    4f54:	eb06 0686 	add.w	r6, r6, r6, lsl #2
    4f58:	fa05 f106 	lsl.w	r1, r5, r6
    4f5c:	4308      	orrs	r0, r1
    4f5e:	6360      	str	r0, [r4, #52]	; 0x34
    4f60:	e022      	b.n	0x4fa8
    4f62:	2a0d      	cmp	r2, #13
    4f64:	da0f      	bge.n	0x4f86
    4f66:	6b20      	ldr	r0, [r4, #48]	; 0x30
    4f68:	1fd6      	subs	r6, r2, #7
    4f6a:	eb06 0786 	add.w	r7, r6, r6, lsl #2
    4f6e:	261f      	movs	r6, #31
    4f70:	fa06 f107 	lsl.w	r1, r6, r7
    4f74:	4388      	bics	r0, r1
    4f76:	1fd6      	subs	r6, r2, #7
    4f78:	eb06 0686 	add.w	r6, r6, r6, lsl #2
    4f7c:	fa05 f106 	lsl.w	r1, r5, r6
    4f80:	4308      	orrs	r0, r1
    4f82:	6320      	str	r0, [r4, #48]	; 0x30
    4f84:	e010      	b.n	0x4fa8
    4f86:	6ae0      	ldr	r0, [r4, #44]	; 0x2c
    4f88:	f1a2 060d 	sub.w	r6, r2, #13
    4f8c:	eb06 0786 	add.w	r7, r6, r6, lsl #2
    4f90:	261f      	movs	r6, #31
    4f92:	fa06 f107 	lsl.w	r1, r6, r7
    4f96:	4388      	bics	r0, r1
    4f98:	f1a2 060d 	sub.w	r6, r2, #13
    4f9c:	eb06 0686 	add.w	r6, r6, r6, lsl #2
    4fa0:	fa05 f106 	lsl.w	r1, r5, r6
    4fa4:	4308      	orrs	r0, r1
    4fa6:	62e0      	str	r0, [r4, #44]	; 0x2c
    4fa8:	bdf0      	pop	{r4, r5, r6, r7, pc}
    4faa:	b121      	cbz	r1, 0x4fb6
    4fac:	6882      	ldr	r2, [r0, #8]
    4fae:	f442 1280 	orr.w	r2, r2, #1048576	; 0x100000
    4fb2:	6082      	str	r2, [r0, #8]
    4fb4:	e003      	b.n	0x4fbe
    4fb6:	6882      	ldr	r2, [r0, #8]
    4fb8:	f422 1280 	bic.w	r2, r2, #1048576	; 0x100000
    4fbc:	6082      	str	r2, [r0, #8]
    4fbe:	4770      	bx	lr
    4fc0:	4601      	mov	r1, r0
    4fc2:	6cc8      	ldr	r0, [r1, #76]	; 0x4c
    4fc4:	b280      	uxth	r0, r0
    4fc6:	4770      	bx	lr
    4fc8:	4869      	ldr	r0, [pc, #420]	; (0x5170)
    4fca:	6800      	ldr	r0, [r0, #0]
    4fcc:	4770      	bx	lr
    4fce:	b121      	cbz	r1, 0x4fda
    4fd0:	6842      	ldr	r2, [r0, #4]
    4fd2:	f442 6280 	orr.w	r2, r2, #1024	; 0x400
    4fd6:	6042      	str	r2, [r0, #4]
    4fd8:	e003      	b.n	0x4fe2
    4fda:	6842      	ldr	r2, [r0, #4]
    4fdc:	f422 6280 	bic.w	r2, r2, #1024	; 0x400
    4fe0:	6042      	str	r2, [r0, #4]
    4fe2:	4770      	bx	lr
    4fe4:	b121      	cbz	r1, 0x4ff0
    4fe6:	6842      	ldr	r2, [r0, #4]
    4fe8:	f442 5280 	orr.w	r2, r2, #4096	; 0x1000
    4fec:	6042      	str	r2, [r0, #4]
    4fee:	e003      	b.n	0x4ff8
    4ff0:	6842      	ldr	r2, [r0, #4]
    4ff2:	f422 5280 	bic.w	r2, r2, #4096	; 0x1000
    4ff6:	6042      	str	r2, [r0, #4]
    4ff8:	4770      	bx	lr
    4ffa:	460a      	mov	r2, r1
    4ffc:	2100      	movs	r1, #0
    4ffe:	6881      	ldr	r1, [r0, #8]
    5000:	f421 41e0 	bic.w	r1, r1, #28672	; 0x7000
    5004:	4311      	orrs	r1, r2
    5006:	6081      	str	r1, [r0, #8]
    5008:	4770      	bx	lr
    500a:	b121      	cbz	r1, 0x5016
    500c:	6882      	ldr	r2, [r0, #8]
    500e:	f442 4200 	orr.w	r2, r2, #32768	; 0x8000
    5012:	6082      	str	r2, [r0, #8]
    5014:	e003      	b.n	0x501e
    5016:	6882      	ldr	r2, [r0, #8]
    5018:	f422 4200 	bic.w	r2, r2, #32768	; 0x8000
    501c:	6082      	str	r2, [r0, #8]
    501e:	4770      	bx	lr
    5020:	b121      	cbz	r1, 0x502c
    5022:	6882      	ldr	r2, [r0, #8]
    5024:	f442 1202 	orr.w	r2, r2, #2129920	; 0x208000
    5028:	6082      	str	r2, [r0, #8]
    502a:	e003      	b.n	0x5034
    502c:	6882      	ldr	r2, [r0, #8]
    502e:	f422 1202 	bic.w	r2, r2, #2129920	; 0x208000
    5032:	6082      	str	r2, [r0, #8]
    5034:	4770      	bx	lr
    5036:	4601      	mov	r1, r0
    5038:	2000      	movs	r0, #0
    503a:	688a      	ldr	r2, [r1, #8]
    503c:	f412 1f00 	tst.w	r2, #2097152	; 0x200000
    5040:	d001      	beq.n	0x5046
    5042:	2001      	movs	r0, #1
    5044:	e000      	b.n	0x5048
    5046:	2000      	movs	r0, #0
    5048:	4770      	bx	lr
    504a:	b5f0      	push	{r4, r5, r6, r7, lr}
    504c:	4604      	mov	r4, r0
    504e:	4615      	mov	r5, r2
    5050:	2000      	movs	r0, #0
    5052:	2200      	movs	r2, #0
    5054:	2600      	movs	r6, #0
    5056:	2909      	cmp	r1, #9
    5058:	dd11      	ble.n	0x507e
    505a:	68e0      	ldr	r0, [r4, #12]
    505c:	f1a1 070a 	sub.w	r7, r1, #10
    5060:	eb07 0c47 	add.w	ip, r7, r7, lsl #1
    5064:	2707      	movs	r7, #7
    5066:	fa07 f20c 	lsl.w	r2, r7, ip
    506a:	4390      	bics	r0, r2
    506c:	f1a1 070a 	sub.w	r7, r1, #10
    5070:	eb07 0747 	add.w	r7, r7, r7, lsl #1
    5074:	fa03 f207 	lsl.w	r2, r3, r7
    5078:	4310      	orrs	r0, r2
    507a:	60e0      	str	r0, [r4, #12]
    507c:	e00c      	b.n	0x5098
    507e:	6920      	ldr	r0, [r4, #16]
    5080:	eb01 0c41 	add.w	ip, r1, r1, lsl #1
    5084:	2707      	movs	r7, #7
    5086:	fa07 f20c 	lsl.w	r2, r7, ip
    508a:	4390      	bics	r0, r2
    508c:	eb01 0741 	add.w	r7, r1, r1, lsl #1
    5090:	fa03 f207 	lsl.w	r2, r3, r7
    5094:	4310      	orrs	r0, r2
    5096:	6120      	str	r0, [r4, #16]
    5098:	6ba0      	ldr	r0, [r4, #56]	; 0x38
    509a:	f3c0 5601 	ubfx	r6, r0, #20, #2
    509e:	1cef      	adds	r7, r5, #3
    50a0:	f106 0c01 	add.w	ip, r6, #1
    50a4:	eba7 070c 	sub.w	r7, r7, ip
    50a8:	eb07 0c87 	add.w	ip, r7, r7, lsl #2
    50ac:	271f      	movs	r7, #31
    50ae:	fa07 f20c 	lsl.w	r2, r7, ip
    50b2:	4390      	bics	r0, r2
    50b4:	1cef      	adds	r7, r5, #3
    50b6:	f106 0c01 	add.w	ip, r6, #1
    50ba:	eba7 070c 	sub.w	r7, r7, ip
    50be:	eb07 0787 	add.w	r7, r7, r7, lsl #2
    50c2:	fa01 f207 	lsl.w	r2, r1, r7
    50c6:	4310      	orrs	r0, r2
    50c8:	63a0      	str	r0, [r4, #56]	; 0x38
    50ca:	bdf0      	pop	{r4, r5, r6, r7, pc}
    50cc:	b510      	push	{r4, lr}
    50ce:	460a      	mov	r2, r1
    50d0:	2100      	movs	r1, #0
    50d2:	2300      	movs	r3, #0
    50d4:	6b81      	ldr	r1, [r0, #56]	; 0x38
    50d6:	f421 1140 	bic.w	r1, r1, #3145728	; 0x300000
    50da:	1e53      	subs	r3, r2, #1
    50dc:	ea41 5103 	orr.w	r1, r1, r3, lsl #20
    50e0:	6381      	str	r1, [r0, #56]	; 0x38
    50e2:	bd10      	pop	{r4, pc}
    50e4:	b510      	push	{r4, lr}
    50e6:	2300      	movs	r3, #0
    50e8:	4603      	mov	r3, r0
    50ea:	440b      	add	r3, r1
    50ec:	601a      	str	r2, [r3, #0]
    50ee:	bd10      	pop	{r4, pc}
    50f0:	4602      	mov	r2, r0
    50f2:	2300      	movs	r3, #0
    50f4:	4613      	mov	r3, r2
    50f6:	f101 0028 	add.w	r0, r1, #40	; 0x28
    50fa:	4403      	add	r3, r0
    50fc:	6818      	ldr	r0, [r3, #0]
    50fe:	b280      	uxth	r0, r0
    5100:	4770      	bx	lr
    5102:	460a      	mov	r2, r1
    5104:	2100      	movs	r1, #0
    5106:	6841      	ldr	r1, [r0, #4]
    5108:	4b1a      	ldr	r3, [pc, #104]	; (0x5174)
    510a:	4019      	ands	r1, r3
    510c:	4311      	orrs	r1, r2
    510e:	6041      	str	r1, [r0, #4]
    5110:	4770      	bx	lr
    5112:	6241      	str	r1, [r0, #36]	; 0x24
    5114:	6282      	str	r2, [r0, #40]	; 0x28
    5116:	4770      	bx	lr
    5118:	460a      	mov	r2, r1
    511a:	2100      	movs	r1, #0
    511c:	6841      	ldr	r1, [r0, #4]
    511e:	f021 011f 	bic.w	r1, r1, #31
    5122:	4311      	orrs	r1, r2
    5124:	6041      	str	r1, [r0, #4]
    5126:	4770      	bx	lr
    5128:	b138      	cbz	r0, 0x513a
    512a:	4913      	ldr	r1, [pc, #76]	; (0x5178)
    512c:	6809      	ldr	r1, [r1, #0]
    512e:	f441 0100 	orr.w	r1, r1, #8388608	; 0x800000
    5132:	4a12      	ldr	r2, [pc, #72]	; (0x517c)
    5134:	f8c2 1408 	str.w	r1, [r2, #1032]	; 0x408
    5138:	e006      	b.n	0x5148
    513a:	490f      	ldr	r1, [pc, #60]	; (0x5178)
    513c:	6809      	ldr	r1, [r1, #0]
    513e:	f421 0100 	bic.w	r1, r1, #8388608	; 0x800000
    5142:	4a0e      	ldr	r2, [pc, #56]	; (0x517c)
    5144:	f8c2 1408 	str.w	r1, [r2, #1032]	; 0x408
    5148:	4770      	bx	lr
    514a:	4602      	mov	r2, r0
    514c:	2000      	movs	r0, #0
    514e:	6813      	ldr	r3, [r2, #0]
    5150:	420b      	tst	r3, r1
    5152:	d001      	beq.n	0x5158
    5154:	2001      	movs	r0, #1
    5156:	e000      	b.n	0x515a
    5158:	2000      	movs	r0, #0
    515a:	4770      	bx	lr
    515c:	2400      	movs	r4, #0
    515e:	4001      	ands	r1, r0
    5160:	2800      	cmp	r0, #0
    5162:	4001      	ands	r1, r0
    5164:	3c00      	subs	r4, #0
    5166:	4001      	ands	r1, r0
    5168:	feff fff0 	mrc2	15, 7, pc, cr15, cr0, {7}
    516c:	f7fd fff1 	bl	0x3152
    5170:	244c      	movs	r4, #76	; 0x4c
    5172:	4001      	ands	r1, r0
    5174:	fdff ff3f 	ldc2l	15, cr15, [pc, #252]!	; 0x5274
    5178:	2408      	movs	r4, #8
    517a:	4001      	ands	r1, r0
    517c:	2000      	movs	r0, #0
    517e:	4001      	ands	r1, r0
    5180:	43ca      	mvns	r2, r1
    5182:	6002      	str	r2, [r0, #0]
    5184:	4770      	bx	lr
    5186:	b570      	push	{r4, r5, r6, lr}
    5188:	4602      	mov	r2, r0
    518a:	2000      	movs	r0, #0
    518c:	2300      	movs	r3, #0
    518e:	2400      	movs	r4, #0
    5190:	120b      	asrs	r3, r1, #8
    5192:	6855      	ldr	r5, [r2, #4]
    5194:	b2ce      	uxtb	r6, r1
    5196:	ea05 0406 	and.w	r4, r5, r6
    519a:	6815      	ldr	r5, [r2, #0]
    519c:	421d      	tst	r5, r3
    519e:	d002      	beq.n	0x51a6
    51a0:	b10c      	cbz	r4, 0x51a6
    51a2:	2001      	movs	r0, #1
    51a4:	e000      	b.n	0x51a8
    51a6:	2000      	movs	r0, #0
    51a8:	bd70      	pop	{r4, r5, r6, pc}
    51aa:	2200      	movs	r2, #0
    51ac:	120a      	asrs	r2, r1, #8
    51ae:	43d3      	mvns	r3, r2
    51b0:	6003      	str	r3, [r0, #0]
    51b2:	4770      	bx	lr
    51b4:	4770      	bx	lr
    51b6:	4770      	bx	lr
    51b8:	4770      	bx	lr
    51ba:	b510      	push	{r4, lr}
    51bc:	f000 f808 	bl	0x51d0
    51c0:	6800      	ldr	r0, [r0, #0]
    51c2:	bd10      	pop	{r4, pc}
    51c4:	b510      	push	{r4, lr}
    51c6:	4604      	mov	r4, r0
    51c8:	f000 f802 	bl	0x51d0
    51cc:	6004      	str	r4, [r0, #0]
    51ce:	bd10      	pop	{r4, pc}
    51d0:	4801      	ldr	r0, [pc, #4]	; (0x51d8)
    51d2:	4770      	bx	lr
    51d4:	4770      	bx	lr
    51d6:	bf00      	nop
    51d8:	1100      	asrs	r0, r0, #4
    51da:	2000      	movs	r0, #0
    51dc:	4800      	ldr	r0, [pc, #0]	; (0x51e0)
    51de:	4770      	bx	lr
    51e0:	1100      	asrs	r0, r0, #4
    51e2:	2000      	movs	r0, #0
    51e4:	4675      	mov	r5, lr
    51e6:	f7ff fff9 	bl	0x51dc
    51ea:	46ae      	mov	lr, r5
    51ec:	0005      	movs	r5, r0
    51ee:	4669      	mov	r1, sp
    51f0:	4653      	mov	r3, sl
    51f2:	f020 0007 	bic.w	r0, r0, #7
    51f6:	4685      	mov	sp, r0
    51f8:	b018      	add	sp, #96	; 0x60
    51fa:	b520      	push	{r5, lr}
    51fc:	f7fa fffa 	bl	0x1f4
    5200:	e8bd 4020 	ldmia.w	sp!, {r5, lr}
    5204:	f04f 0600 	mov.w	r6, #0
    5208:	f04f 0700 	mov.w	r7, #0
    520c:	f04f 0800 	mov.w	r8, #0
    5210:	f04f 0b00 	mov.w	fp, #0
    5214:	f021 0107 	bic.w	r1, r1, #7
    5218:	46ac      	mov	ip, r5
    521a:	e8ac 09c0 	stmia.w	ip!, {r6, r7, r8, fp}
    521e:	e8ac 09c0 	stmia.w	ip!, {r6, r7, r8, fp}
    5222:	e8ac 09c0 	stmia.w	ip!, {r6, r7, r8, fp}
    5226:	e8ac 09c0 	stmia.w	ip!, {r6, r7, r8, fp}
    522a:	468d      	mov	sp, r1
    522c:	4770      	bx	lr
    522e:	4604      	mov	r4, r0
    5230:	f3af 8000 	nop.w
    5234:	4620      	mov	r0, r4
    5236:	f7fa ffc4 	bl	0x1c2
    523a:	0000      	movs	r0, r0
    523c:	4801      	ldr	r0, [pc, #4]	; (0x5244)
    523e:	4770      	bx	lr
    5240:	4770      	bx	lr
    5242:	bf00      	nop
    5244:	1104      	asrs	r4, r0, #4
    5246:	2000      	movs	r0, #0
    5248:	4901      	ldr	r1, [pc, #4]	; (0x5250)
    524a:	2018      	movs	r0, #24
    524c:	beab      	bkpt	0x00ab
    524e:	e7fe      	b.n	0x524e
    5250:	0026      	movs	r6, r4
    5252:	0002      	movs	r2, r0
    5254:	4770      	bx	lr
    5256:	0049      	lsls	r1, r1, #1
    5258:	ea50 20c1 	orrs.w	r0, r0, r1, lsl #11
    525c:	bf18      	it	ne
    525e:	2004      	movne	r0, #4
    5260:	0d4a      	lsrs	r2, r1, #21
    5262:	bf18      	it	ne
    5264:	f040 0001 	orrne.w	r0, r0, #1
    5268:	f240 72ff 	movw	r2, #2047	; 0x7ff
    526c:	ebb2 5f51 	cmp.w	r2, r1, lsr #21
    5270:	bf08      	it	eq
    5272:	f040 0002 	orreq.w	r0, r0, #2
    5276:	2801      	cmp	r0, #1
    5278:	bf08      	it	eq
    527a:	2005      	moveq	r0, #5
    527c:	4770      	bx	lr
    527e:	0000      	movs	r0, r0
    5280:	e92d 4ff7 	stmdb	sp!, {r0, r1, r2, r4, r5, r6, r7, r8, r9, sl, fp, lr}
    5284:	4614      	mov	r4, r2
    5286:	2100      	movs	r1, #0
    5288:	b096      	sub	sp, #88	; 0x58
    528a:	e9c4 1102 	strd	r1, r1, [r4, #8]
    528e:	460a      	mov	r2, r1
    5290:	9917      	ldr	r1, [sp, #92]	; 0x5c
    5292:	910a      	str	r1, [sp, #40]	; 0x28
    5294:	f021 4500 	bic.w	r5, r1, #2147483648	; 0x80000000
    5298:	49c9      	ldr	r1, [pc, #804]	; (0x55c0)
    529a:	428d      	cmp	r5, r1
    529c:	dc06      	bgt.n	0x52ac
    529e:	9917      	ldr	r1, [sp, #92]	; 0x5c
    52a0:	e9c4 0100 	strd	r0, r1, [r4]
    52a4:	b019      	add	sp, #100	; 0x64
    52a6:	2000      	movs	r0, #0
    52a8:	e8bd 8ff0 	ldmia.w	sp!, {r4, r5, r6, r7, r8, r9, sl, fp, pc}
    52ac:	49c5      	ldr	r1, [pc, #788]	; (0x55c4)
    52ae:	4ec6      	ldr	r6, [pc, #792]	; (0x55c8)
    52b0:	42a9      	cmp	r1, r5
    52b2:	dd3d      	ble.n	0x5330
    52b4:	990a      	ldr	r1, [sp, #40]	; 0x28
    52b6:	4fc5      	ldr	r7, [pc, #788]	; (0x55cc)
    52b8:	2900      	cmp	r1, #0
    52ba:	f8df 8314 	ldr.w	r8, [pc, #788]	; 0x55d0
    52be:	4ac5      	ldr	r2, [pc, #788]	; (0x55d4)
    52c0:	9917      	ldr	r1, [sp, #92]	; 0x5c
    52c2:	4633      	mov	r3, r6
    52c4:	dd19      	ble.n	0x52fa
    52c6:	f001 fbbb 	bl	0x6a40
    52ca:	42b5      	cmp	r5, r6
    52cc:	d006      	beq.n	0x52dc
    52ce:	4ac2      	ldr	r2, [pc, #776]	; (0x55d8)
    52d0:	4bc2      	ldr	r3, [pc, #776]	; (0x55dc)
    52d2:	f001 fbb5 	bl	0x6a40
    52d6:	e9c4 0100 	strd	r0, r1, [r4]
    52da:	e00a      	b.n	0x52f2
    52dc:	f04f 52d3 	mov.w	r2, #442499072	; 0x1a600000
    52e0:	4bbe      	ldr	r3, [pc, #760]	; (0x55dc)
    52e2:	f001 fbad 	bl	0x6a40
    52e6:	463a      	mov	r2, r7
    52e8:	4643      	mov	r3, r8
    52ea:	f001 fba9 	bl	0x6a40
    52ee:	e9c4 0100 	strd	r0, r1, [r4]
    52f2:	b019      	add	sp, #100	; 0x64
    52f4:	2001      	movs	r0, #1
    52f6:	e8bd 8ff0 	ldmia.w	sp!, {r4, r5, r6, r7, r8, r9, sl, fp, pc}
    52fa:	f000 fdfd 	bl	0x5ef8
    52fe:	42b5      	cmp	r5, r6
    5300:	d006      	beq.n	0x5310
    5302:	4ab5      	ldr	r2, [pc, #724]	; (0x55d8)
    5304:	4bb5      	ldr	r3, [pc, #724]	; (0x55dc)
    5306:	f000 fdf7 	bl	0x5ef8
    530a:	e9c4 0100 	strd	r0, r1, [r4]
    530e:	e00a      	b.n	0x5326
    5310:	f04f 52d3 	mov.w	r2, #442499072	; 0x1a600000
    5314:	4bb1      	ldr	r3, [pc, #708]	; (0x55dc)
    5316:	f000 fdef 	bl	0x5ef8
    531a:	463a      	mov	r2, r7
    531c:	4643      	mov	r3, r8
    531e:	f000 fdeb 	bl	0x5ef8
    5322:	e9c4 0100 	strd	r0, r1, [r4]
    5326:	b019      	add	sp, #100	; 0x64
    5328:	f04f 30ff 	mov.w	r0, #4294967295	; 0xffffffff
    532c:	e8bd 8ff0 	ldmia.w	sp!, {r4, r5, r6, r7, r8, r9, sl, fp, pc}
    5330:	49ab      	ldr	r1, [pc, #684]	; (0x55e0)
    5332:	428d      	cmp	r5, r1
    5334:	9917      	ldr	r1, [sp, #92]	; 0x5c
    5336:	dc7b      	bgt.n	0x5430
    5338:	f021 4100 	bic.w	r1, r1, #2147483648	; 0x80000000
    533c:	4683      	mov	fp, r0
    533e:	468a      	mov	sl, r1
    5340:	4aa8      	ldr	r2, [pc, #672]	; (0x55e4)
    5342:	4ba9      	ldr	r3, [pc, #676]	; (0x55e8)
    5344:	f001 f8ae 	bl	0x64a4
    5348:	2200      	movs	r2, #0
    534a:	4ba8      	ldr	r3, [pc, #672]	; (0x55ec)
    534c:	f000 fdd4 	bl	0x5ef8
    5350:	f000 ffe4 	bl	0x631c
    5354:	900b      	str	r0, [sp, #44]	; 0x2c
    5356:	f001 f83e 	bl	0x63d6
    535a:	4680      	mov	r8, r0
    535c:	460f      	mov	r7, r1
    535e:	4a9d      	ldr	r2, [pc, #628]	; (0x55d4)
    5360:	4633      	mov	r3, r6
    5362:	f001 f89f 	bl	0x64a4
    5366:	465a      	mov	r2, fp
    5368:	4653      	mov	r3, sl
    536a:	f001 fa77 	bl	0x685c
    536e:	4682      	mov	sl, r0
    5370:	460e      	mov	r6, r1
    5372:	4a99      	ldr	r2, [pc, #612]	; (0x55d8)
    5374:	4b99      	ldr	r3, [pc, #612]	; (0x55dc)
    5376:	4640      	mov	r0, r8
    5378:	4639      	mov	r1, r7
    537a:	f001 f893 	bl	0x64a4
    537e:	0d2a      	lsrs	r2, r5, #20
    5380:	f04f 0b01 	mov.w	fp, #1
    5384:	9209      	str	r2, [sp, #36]	; 0x24
    5386:	4652      	mov	r2, sl
    5388:	4633      	mov	r3, r6
    538a:	f001 fa67 	bl	0x685c
    538e:	f1bb 0f03 	cmp.w	fp, #3
    5392:	e9c4 0100 	strd	r0, r1, [r4]
    5396:	d03a      	beq.n	0x540e
    5398:	460a      	mov	r2, r1
    539a:	9809      	ldr	r0, [sp, #36]	; 0x24
    539c:	eb0b 114b 	add.w	r1, fp, fp, lsl #5
    53a0:	f3c2 520a 	ubfx	r2, r2, #20, #11
    53a4:	3911      	subs	r1, #17
    53a6:	1a80      	subs	r0, r0, r2
    53a8:	4288      	cmp	r0, r1
    53aa:	dd30      	ble.n	0x540e
    53ac:	4890      	ldr	r0, [pc, #576]	; (0x55f0)
    53ae:	9605      	str	r6, [sp, #20]
    53b0:	4478      	add	r0, pc
    53b2:	eb00 100b 	add.w	r0, r0, fp, lsl #4
    53b6:	900c      	str	r0, [sp, #48]	; 0x30
    53b8:	e9d0 2300 	ldrd	r2, r3, [r0]
    53bc:	4655      	mov	r5, sl
    53be:	4640      	mov	r0, r8
    53c0:	4639      	mov	r1, r7
    53c2:	f001 f86f 	bl	0x64a4
    53c6:	4602      	mov	r2, r0
    53c8:	460b      	mov	r3, r1
    53ca:	9101      	str	r1, [sp, #4]
    53cc:	9008      	str	r0, [sp, #32]
    53ce:	4628      	mov	r0, r5
    53d0:	9905      	ldr	r1, [sp, #20]
    53d2:	f001 fb35 	bl	0x6a40
    53d6:	4682      	mov	sl, r0
    53d8:	460e      	mov	r6, r1
    53da:	4602      	mov	r2, r0
    53dc:	460b      	mov	r3, r1
    53de:	4628      	mov	r0, r5
    53e0:	9905      	ldr	r1, [sp, #20]
    53e2:	f001 fb2d 	bl	0x6a40
    53e6:	9b01      	ldr	r3, [sp, #4]
    53e8:	9a08      	ldr	r2, [sp, #32]
    53ea:	f001 fb29 	bl	0x6a40
    53ee:	4605      	mov	r5, r0
    53f0:	980c      	ldr	r0, [sp, #48]	; 0x30
    53f2:	9101      	str	r1, [sp, #4]
    53f4:	4639      	mov	r1, r7
    53f6:	e9d0 2302 	ldrd	r2, r3, [r0, #8]
    53fa:	4640      	mov	r0, r8
    53fc:	f001 f852 	bl	0x64a4
    5400:	462a      	mov	r2, r5
    5402:	9b01      	ldr	r3, [sp, #4]
    5404:	f001 fb1c 	bl	0x6a40
    5408:	f10b 0b01 	add.w	fp, fp, #1
    540c:	e7bb      	b.n	0x5386
    540e:	980a      	ldr	r0, [sp, #40]	; 0x28
    5410:	2800      	cmp	r0, #0
    5412:	bfa2      	ittt	ge
    5414:	980b      	ldrge	r0, [sp, #44]	; 0x2c
    5416:	b019      	addge	sp, #100	; 0x64
    5418:	e8bd 8ff0 	ldmiage.w	sp!, {r4, r5, r6, r7, r8, r9, sl, fp, pc}
    541c:	6861      	ldr	r1, [r4, #4]
    541e:	f081 4100 	eor.w	r1, r1, #2147483648	; 0x80000000
    5422:	6061      	str	r1, [r4, #4]
    5424:	980b      	ldr	r0, [sp, #44]	; 0x2c
    5426:	b019      	add	sp, #100	; 0x64
    5428:	4240      	negs	r0, r0
    542a:	e8bd 8ff0 	ldmia.w	sp!, {r4, r5, r6, r7, r8, r9, sl, fp, pc}
    542e:	e7ff      	b.n	0x5430
    5430:	4686      	mov	lr, r0
    5432:	9817      	ldr	r0, [sp, #92]	; 0x5c
    5434:	f3c1 0113 	ubfx	r1, r1, #0, #20
    5438:	f3c0 500a 	ubfx	r0, r0, #20, #11
    543c:	f441 1180 	orr.w	r1, r1, #1048576	; 0x100000
    5440:	f2a0 30f5 	subw	r0, r0, #1013	; 0x3f5
    5444:	9109      	str	r1, [sp, #36]	; 0x24
    5446:	1141      	asrs	r1, r0, #5
    5448:	f000 081f 	and.w	r8, r0, #31
    544c:	f1c8 0020 	rsb	r0, r8, #32
    5450:	9013      	str	r0, [sp, #76]	; 0x4c
    5452:	2000      	movs	r0, #0
    5454:	9010      	str	r0, [sp, #64]	; 0x40
    5456:	9011      	str	r0, [sp, #68]	; 0x44
    5458:	4866      	ldr	r0, [pc, #408]	; (0x55f4)
    545a:	4478      	add	r0, pc
    545c:	eb00 0081 	add.w	r0, r0, r1, lsl #2
    5460:	f100 0214 	add.w	r2, r0, #20
    5464:	a811      	add	r0, sp, #68	; 0x44
    5466:	2706      	movs	r7, #6
    5468:	e9d2 1300 	ldrd	r1, r3, [r2]
    546c:	9d13      	ldr	r5, [sp, #76]	; 0x4c
    546e:	f8dd c024 	ldr.w	ip, [sp, #36]	; 0x24
    5472:	40eb      	lsrs	r3, r5
    5474:	fa01 f108 	lsl.w	r1, r1, r8
    5478:	4319      	orrs	r1, r3
    547a:	fba1 3c0c 	umull	r3, ip, r1, ip
    547e:	fba1 610e 	umull	r6, r1, r1, lr
    5482:	6805      	ldr	r5, [r0, #0]
    5484:	440b      	add	r3, r1
    5486:	4435      	add	r5, r6
    5488:	42b5      	cmp	r5, r6
    548a:	bf34      	ite	cc
    548c:	2601      	movcc	r6, #1
    548e:	2600      	movcs	r6, #0
    5490:	f850 ac04 	ldr.w	sl, [r0, #-4]
    5494:	eb03 0b06 	add.w	fp, r3, r6
    5498:	428b      	cmp	r3, r1
    549a:	eb0a 010b 	add.w	r1, sl, fp
    549e:	bf34      	ite	cc
    54a0:	f04f 0a01 	movcc.w	sl, #1
    54a4:	f04f 0a00 	movcs.w	sl, #0
    54a8:	44d4      	add	ip, sl
    54aa:	b116      	cbz	r6, 0x54b2
    54ac:	4299      	cmp	r1, r3
    54ae:	d902      	bls.n	0x54b6
    54b0:	e003      	b.n	0x54ba
    54b2:	4299      	cmp	r1, r3
    54b4:	d201      	bcs.n	0x54ba
    54b6:	2301      	movs	r3, #1
    54b8:	e000      	b.n	0x54bc
    54ba:	2300      	movs	r3, #0
    54bc:	6005      	str	r5, [r0, #0]
    54be:	4463      	add	r3, ip
    54c0:	f840 1c04 	str.w	r1, [r0, #-4]
    54c4:	f840 3c08 	str.w	r3, [r0, #-8]
    54c8:	1f12      	subs	r2, r2, #4
    54ca:	1f00      	subs	r0, r0, #4
    54cc:	1e7f      	subs	r7, r7, #1
    54ce:	d1cb      	bne.n	0x5468
    54d0:	980c      	ldr	r0, [sp, #48]	; 0x30
    54d2:	9f0f      	ldr	r7, [sp, #60]	; 0x3c
    54d4:	f100 5000 	add.w	r0, r0, #536870912	; 0x20000000
    54d8:	0f80      	lsrs	r0, r0, #30
    54da:	9009      	str	r0, [sp, #36]	; 0x24
    54dc:	980c      	ldr	r0, [sp, #48]	; 0x30
    54de:	e9dd 560d 	ldrd	r5, r6, [sp, #52]	; 0x34
    54e2:	0080      	lsls	r0, r0, #2
    54e4:	f000 ff77 	bl	0x63d6
    54e8:	4683      	mov	fp, r0
    54ea:	4628      	mov	r0, r5
    54ec:	9107      	str	r1, [sp, #28]
    54ee:	f000 ff89 	bl	0x6404
    54f2:	f06f 021d 	mvn.w	r2, #29
    54f6:	f001 ff3a 	bl	0x736e
    54fa:	9012      	str	r0, [sp, #72]	; 0x48
    54fc:	9106      	str	r1, [sp, #24]
    54fe:	4630      	mov	r0, r6
    5500:	f000 ff80 	bl	0x6404
    5504:	f06f 023d 	mvn.w	r2, #61	; 0x3d
    5508:	f001 ff31 	bl	0x736e
    550c:	9004      	str	r0, [sp, #16]
    550e:	468a      	mov	sl, r1
    5510:	4638      	mov	r0, r7
    5512:	f000 ff77 	bl	0x6404
    5516:	f06f 025d 	mvn.w	r2, #93	; 0x5d
    551a:	f001 ff28 	bl	0x736e
    551e:	4607      	mov	r7, r0
    5520:	4688      	mov	r8, r1
    5522:	4602      	mov	r2, r0
    5524:	460b      	mov	r3, r1
    5526:	4651      	mov	r1, sl
    5528:	9804      	ldr	r0, [sp, #16]
    552a:	f000 fce5 	bl	0x5ef8
    552e:	9b06      	ldr	r3, [sp, #24]
    5530:	9a12      	ldr	r2, [sp, #72]	; 0x48
    5532:	f000 fce1 	bl	0x5ef8
    5536:	465a      	mov	r2, fp
    5538:	9b07      	ldr	r3, [sp, #28]
    553a:	f000 fcdd 	bl	0x5ef8
    553e:	2500      	movs	r5, #0
    5540:	460e      	mov	r6, r1
    5542:	465a      	mov	r2, fp
    5544:	4628      	mov	r0, r5
    5546:	9b07      	ldr	r3, [sp, #28]
    5548:	f001 fa7a 	bl	0x6a40
    554c:	9b06      	ldr	r3, [sp, #24]
    554e:	9a12      	ldr	r2, [sp, #72]	; 0x48
    5550:	f001 fa76 	bl	0x6a40
    5554:	4653      	mov	r3, sl
    5556:	9a04      	ldr	r2, [sp, #16]
    5558:	f001 fa72 	bl	0x6a40
    555c:	463a      	mov	r2, r7
    555e:	4643      	mov	r3, r8
    5560:	f001 f97c 	bl	0x685c
    5564:	f8df a094 	ldr.w	sl, [pc, #148]	; 0x55fc
    5568:	4a23      	ldr	r2, [pc, #140]	; (0x55f8)
    556a:	4653      	mov	r3, sl
    556c:	f000 ff9a 	bl	0x64a4
    5570:	4680      	mov	r8, r0
    5572:	460f      	mov	r7, r1
    5574:	4a22      	ldr	r2, [pc, #136]	; (0x5600)
    5576:	4b23      	ldr	r3, [pc, #140]	; (0x5604)
    5578:	4631      	mov	r1, r6
    557a:	4628      	mov	r0, r5
    557c:	f000 ff92 	bl	0x64a4
    5580:	4642      	mov	r2, r8
    5582:	463b      	mov	r3, r7
    5584:	f000 fcb8 	bl	0x5ef8
    5588:	4607      	mov	r7, r0
    558a:	4688      	mov	r8, r1
    558c:	f04f 42a8 	mov.w	r2, #1409286144	; 0x54000000
    5590:	4653      	mov	r3, sl
    5592:	4631      	mov	r1, r6
    5594:	4628      	mov	r0, r5
    5596:	f000 ff85 	bl	0x64a4
    559a:	463a      	mov	r2, r7
    559c:	4643      	mov	r3, r8
    559e:	f000 fcab 	bl	0x5ef8
    55a2:	9a17      	ldr	r2, [sp, #92]	; 0x5c
    55a4:	f012 4f00 	tst.w	r2, #2147483648	; 0x80000000
    55a8:	d004      	beq.n	0x55b4
    55aa:	9a09      	ldr	r2, [sp, #36]	; 0x24
    55ac:	f081 4100 	eor.w	r1, r1, #2147483648	; 0x80000000
    55b0:	4252      	negs	r2, r2
    55b2:	9209      	str	r2, [sp, #36]	; 0x24
    55b4:	e9c4 0100 	strd	r0, r1, [r4]
    55b8:	9809      	ldr	r0, [sp, #36]	; 0x24
    55ba:	b019      	add	sp, #100	; 0x64
    55bc:	e8bd 8ff0 	ldmia.w	sp!, {r4, r5, r6, r7, r8, r9, sl, fp, pc}
    55c0:	21fb      	movs	r1, #251	; 0xfb
    55c2:	3fe9      	subs	r7, #233	; 0xe9
    55c4:	d97c      	bls.n	0x56c0
    55c6:	4002      	ands	r2, r0
    55c8:	21fb      	movs	r1, #251	; 0xfb
    55ca:	3ff9      	subs	r7, #249	; 0xf9
    55cc:	7073      	strb	r3, [r6, #1]
    55ce:	2e03      	cmp	r6, #3
    55d0:	198a      	adds	r2, r1, r6
    55d2:	3ba3      	subs	r3, #163	; 0xa3
    55d4:	0000      	movs	r0, r0
    55d6:	5440      	strb	r0, [r0, r1]
    55d8:	6331      	str	r1, [r6, #48]	; 0x30
    55da:	1a62      	subs	r2, r4, r1
    55dc:	b461      	push	{r0, r5, r6}
    55de:	3dd0      	subs	r5, #208	; 0xd0
    55e0:	21fb      	movs	r1, #251	; 0xfb
    55e2:	4139      	asrs	r1, r7
    55e4:	c883      	ldmia	r0, {r0, r1, r7}
    55e6:	6dc9      	ldr	r1, [r1, #92]	; 0x5c
    55e8:	5f30      	ldrsh	r0, [r6, r4]
    55ea:	3fe4      	subs	r7, #228	; 0xe4
    55ec:	0000      	movs	r0, r0
    55ee:	3fe0      	subs	r7, #224	; 0xe0
    55f0:	211c      	movs	r1, #28
    55f2:	0000      	movs	r0, r0
    55f4:	20a2      	movs	r0, #162	; 0xa2
    55f6:	0000      	movs	r0, r0
    55f8:	2d18      	cmp	r5, #24
    55fa:	5444      	strb	r4, [r0, r1]
    55fc:	21fb      	movs	r1, #251	; 0xfb
    55fe:	3df9      	subs	r5, #249	; 0xf9
    5600:	2633      	movs	r6, #51	; 0x33
    5602:	11a6      	asrs	r6, r4, #6
    5604:	0b46      	lsrs	r6, r0, #13
    5606:	3c11      	subs	r4, #17
    5608:	e92d 4dff 	stmdb	sp!, {r0, r1, r2, r3, r4, r5, r6, r7, r8, sl, fp, lr}
    560c:	f021 4800 	bic.w	r8, r1, #2147483648	; 0x80000000
    5610:	4607      	mov	r7, r0
    5612:	460c      	mov	r4, r1
    5614:	f1b8 5f79 	cmp.w	r8, #1044381696	; 0x3e400000
    5618:	da08      	bge.n	0x562c
    561a:	f000 fe7f 	bl	0x631c
    561e:	2800      	cmp	r0, #0
    5620:	bf01      	itttt	eq
    5622:	2000      	moveq	r0, #0
    5624:	4932      	ldreq	r1, [pc, #200]	; (0x56f0)
    5626:	b004      	addeq	sp, #16
    5628:	e8bd 8df0 	ldmiaeq.w	sp!, {r4, r5, r6, r7, r8, sl, fp, pc}
    562c:	463a      	mov	r2, r7
    562e:	4623      	mov	r3, r4
    5630:	4638      	mov	r0, r7
    5632:	4621      	mov	r1, r4
    5634:	f000 ff36 	bl	0x64a4
    5638:	4605      	mov	r5, r0
    563a:	4602      	mov	r2, r0
    563c:	482d      	ldr	r0, [pc, #180]	; (0x56f4)
    563e:	460e      	mov	r6, r1
    5640:	460b      	mov	r3, r1
    5642:	2106      	movs	r1, #6
    5644:	4478      	add	r0, pc
    5646:	f000 f85d 	bl	0x5704
    564a:	462a      	mov	r2, r5
    564c:	4633      	mov	r3, r6
    564e:	f000 ff29 	bl	0x64a4
    5652:	e9dd 2302 	ldrd	r2, r3, [sp, #8]
    5656:	4682      	mov	sl, r0
    5658:	468b      	mov	fp, r1
    565a:	4638      	mov	r0, r7
    565c:	4621      	mov	r1, r4
    565e:	f000 ff21 	bl	0x64a4
    5662:	4604      	mov	r4, r0
    5664:	460f      	mov	r7, r1
    5666:	4652      	mov	r2, sl
    5668:	465b      	mov	r3, fp
    566a:	4628      	mov	r0, r5
    566c:	4631      	mov	r1, r6
    566e:	f000 ff19 	bl	0x64a4
    5672:	4622      	mov	r2, r4
    5674:	463b      	mov	r3, r7
    5676:	f001 f9e3 	bl	0x6a40
    567a:	4607      	mov	r7, r0
    567c:	468a      	mov	sl, r1
    567e:	f04f 32ff 	mov.w	r2, #4294967295	; 0xffffffff
    5682:	4628      	mov	r0, r5
    5684:	4631      	mov	r1, r6
    5686:	f001 fe72 	bl	0x736e
    568a:	4a1b      	ldr	r2, [pc, #108]	; (0x56f8)
    568c:	4590      	cmp	r8, r2
    568e:	da0a      	bge.n	0x56a6
    5690:	463a      	mov	r2, r7
    5692:	4653      	mov	r3, sl
    5694:	f001 f9d4 	bl	0x6a40
    5698:	b004      	add	sp, #16
    569a:	2200      	movs	r2, #0
    569c:	e8bd 4df0 	ldmia.w	sp!, {r4, r5, r6, r7, r8, sl, fp, lr}
    56a0:	4b13      	ldr	r3, [pc, #76]	; (0x56f0)
    56a2:	f001 b8db 	b.w	0x685c
    56a6:	4a15      	ldr	r2, [pc, #84]	; (0x56fc)
    56a8:	4542      	cmp	r2, r8
    56aa:	bfa8      	it	ge
    56ac:	f5a8 1500 	subge.w	r5, r8, #2097152	; 0x200000
    56b0:	f04f 0400 	mov.w	r4, #0
    56b4:	bfb8      	it	lt
    56b6:	4d12      	ldrlt	r5, [pc, #72]	; (0x5700)
    56b8:	4622      	mov	r2, r4
    56ba:	462b      	mov	r3, r5
    56bc:	f001 f9c0 	bl	0x6a40
    56c0:	4606      	mov	r6, r0
    56c2:	4688      	mov	r8, r1
    56c4:	4622      	mov	r2, r4
    56c6:	462b      	mov	r3, r5
    56c8:	2000      	movs	r0, #0
    56ca:	4909      	ldr	r1, [pc, #36]	; (0x56f0)
    56cc:	f001 f9b8 	bl	0x6a40
    56d0:	4604      	mov	r4, r0
    56d2:	460d      	mov	r5, r1
    56d4:	463a      	mov	r2, r7
    56d6:	4653      	mov	r3, sl
    56d8:	4630      	mov	r0, r6
    56da:	4641      	mov	r1, r8
    56dc:	f001 f9b0 	bl	0x6a40
    56e0:	b004      	add	sp, #16
    56e2:	4622      	mov	r2, r4
    56e4:	462b      	mov	r3, r5
    56e6:	e8bd 4df0 	ldmia.w	sp!, {r4, r5, r6, r7, r8, sl, fp, lr}
    56ea:	f001 b8b7 	b.w	0x685c
    56ee:	0000      	movs	r0, r0
    56f0:	0000      	movs	r0, r0
    56f2:	3ff0      	subs	r7, #240	; 0xf0
    56f4:	1e50      	subs	r0, r2, #1
    56f6:	0000      	movs	r0, r0
    56f8:	3333      	adds	r3, #51	; 0x33
    56fa:	3fd3      	subs	r7, #211	; 0xd3
    56fc:	0000      	movs	r0, r0
    56fe:	3fe9      	subs	r7, #233	; 0xe9
    5700:	0000      	movs	r0, r0
    5702:	3fd2      	subs	r7, #210	; 0xd2
    5704:	e92d 41f0 	stmdb	sp!, {r4, r5, r6, r7, r8, lr}
    5708:	1e4f      	subs	r7, r1, #1
    570a:	eb00 01c7 	add.w	r1, r0, r7, lsl #3
    570e:	4604      	mov	r4, r0
    5710:	e9d1 0100 	ldrd	r0, r1, [r1]
    5714:	4615      	mov	r5, r2
    5716:	461e      	mov	r6, r3
    5718:	f037 0206 	bics.w	r2, r7, #6
    571c:	d00d      	beq.n	0x573a
    571e:	462a      	mov	r2, r5
    5720:	4633      	mov	r3, r6
    5722:	f000 febf 	bl	0x64a4
    5726:	1e7f      	subs	r7, r7, #1
    5728:	eb04 03c7 	add.w	r3, r4, r7, lsl #3
    572c:	e9d3 2300 	ldrd	r2, r3, [r3]
    5730:	f000 fbe2 	bl	0x5ef8
    5734:	f037 0206 	bics.w	r2, r7, #6
    5738:	d1f1      	bne.n	0x571e
    573a:	2f02      	cmp	r7, #2
    573c:	d025      	beq.n	0x578a
    573e:	2f04      	cmp	r7, #4
    5740:	d013      	beq.n	0x576a
    5742:	2f06      	cmp	r7, #6
    5744:	bf18      	it	ne
    5746:	e8bd 81f0 	ldmiane.w	sp!, {r4, r5, r6, r7, r8, pc}
    574a:	462a      	mov	r2, r5
    574c:	4633      	mov	r3, r6
    574e:	f000 fea9 	bl	0x64a4
    5752:	e9d4 230a 	ldrd	r2, r3, [r4, #40]	; 0x28
    5756:	f000 fbcf 	bl	0x5ef8
    575a:	462a      	mov	r2, r5
    575c:	4633      	mov	r3, r6
    575e:	f000 fea1 	bl	0x64a4
    5762:	e9d4 2308 	ldrd	r2, r3, [r4, #32]
    5766:	f000 fbc7 	bl	0x5ef8
    576a:	462a      	mov	r2, r5
    576c:	4633      	mov	r3, r6
    576e:	f000 fe99 	bl	0x64a4
    5772:	e9d4 2306 	ldrd	r2, r3, [r4, #24]
    5776:	f000 fbbf 	bl	0x5ef8
    577a:	462a      	mov	r2, r5
    577c:	4633      	mov	r3, r6
    577e:	f000 fe91 	bl	0x64a4
    5782:	e9d4 2304 	ldrd	r2, r3, [r4, #16]
    5786:	f000 fbb7 	bl	0x5ef8
    578a:	462a      	mov	r2, r5
    578c:	4633      	mov	r3, r6
    578e:	f000 fe89 	bl	0x64a4
    5792:	e9d4 2302 	ldrd	r2, r3, [r4, #8]
    5796:	f000 fbaf 	bl	0x5ef8
    579a:	462a      	mov	r2, r5
    579c:	4633      	mov	r3, r6
    579e:	f000 fe81 	bl	0x64a4
    57a2:	e9d4 2300 	ldrd	r2, r3, [r4]
    57a6:	e8bd 41f0 	ldmia.w	sp!, {r4, r5, r6, r7, r8, lr}
    57aa:	f000 bba5 	b.w	0x5ef8
    57ae:	0000      	movs	r0, r0
    57b0:	e92d 4dff 	stmdb	sp!, {r0, r1, r2, r3, r4, r5, r6, r7, r8, sl, fp, lr}
    57b4:	4605      	mov	r5, r0
    57b6:	f021 4000 	bic.w	r0, r1, #2147483648	; 0x80000000
    57ba:	b084      	sub	sp, #16
    57bc:	460c      	mov	r4, r1
    57be:	f1b0 5f79 	cmp.w	r0, #1044381696	; 0x3e400000
    57c2:	da0b      	bge.n	0x57dc
    57c4:	4628      	mov	r0, r5
    57c6:	f7ff fd46 	bl	0x5256
    57ca:	2804      	cmp	r0, #4
    57cc:	bf08      	it	eq
    57ce:	f000 f867 	bleq	0x58a0
    57d2:	4628      	mov	r0, r5
    57d4:	b008      	add	sp, #32
    57d6:	4621      	mov	r1, r4
    57d8:	e8bd 8df0 	ldmia.w	sp!, {r4, r5, r6, r7, r8, sl, fp, pc}
    57dc:	460b      	mov	r3, r1
    57de:	462a      	mov	r2, r5
    57e0:	4628      	mov	r0, r5
    57e2:	4621      	mov	r1, r4
    57e4:	f000 fe5e 	bl	0x64a4
    57e8:	4606      	mov	r6, r0
    57ea:	460f      	mov	r7, r1
    57ec:	462a      	mov	r2, r5
    57ee:	4623      	mov	r3, r4
    57f0:	f000 fe58 	bl	0x64a4
    57f4:	4680      	mov	r8, r0
    57f6:	4827      	ldr	r0, [pc, #156]	; (0x5894)
    57f8:	468a      	mov	sl, r1
    57fa:	4632      	mov	r2, r6
    57fc:	463b      	mov	r3, r7
    57fe:	2105      	movs	r1, #5
    5800:	4478      	add	r0, pc
    5802:	f7ff ff7f 	bl	0x5704
    5806:	4683      	mov	fp, r0
    5808:	9810      	ldr	r0, [sp, #64]	; 0x40
    580a:	9102      	str	r1, [sp, #8]
    580c:	b360      	cbz	r0, 0x5868
    580e:	4a22      	ldr	r2, [pc, #136]	; (0x5898)
    5810:	4b22      	ldr	r3, [pc, #136]	; (0x589c)
    5812:	4640      	mov	r0, r8
    5814:	4651      	mov	r1, sl
    5816:	f000 fe45 	bl	0x64a4
    581a:	e9cd 0100 	strd	r0, r1, [sp]
    581e:	465a      	mov	r2, fp
    5820:	4640      	mov	r0, r8
    5822:	4651      	mov	r1, sl
    5824:	9b02      	ldr	r3, [sp, #8]
    5826:	f000 fe3d 	bl	0x64a4
    582a:	4682      	mov	sl, r0
    582c:	4688      	mov	r8, r1
    582e:	e9dd 0106 	ldrd	r0, r1, [sp, #24]
    5832:	f04f 32ff 	mov.w	r2, #4294967295	; 0xffffffff
    5836:	f001 fd9a 	bl	0x736e
    583a:	4652      	mov	r2, sl
    583c:	4643      	mov	r3, r8
    583e:	f001 f8ff 	bl	0x6a40
    5842:	4632      	mov	r2, r6
    5844:	463b      	mov	r3, r7
    5846:	f000 fe2d 	bl	0x64a4
    584a:	e9dd 2306 	ldrd	r2, r3, [sp, #24]
    584e:	f001 f8f7 	bl	0x6a40
    5852:	e9dd 2300 	ldrd	r2, r3, [sp]
    5856:	f001 f8f3 	bl	0x6a40
    585a:	b008      	add	sp, #32
    585c:	462a      	mov	r2, r5
    585e:	4623      	mov	r3, r4
    5860:	e8bd 4df0 	ldmia.w	sp!, {r4, r5, r6, r7, r8, sl, fp, lr}
    5864:	f000 bffa 	b.w	0x685c
    5868:	460b      	mov	r3, r1
    586a:	465a      	mov	r2, fp
    586c:	4630      	mov	r0, r6
    586e:	4639      	mov	r1, r7
    5870:	f000 fe18 	bl	0x64a4
    5874:	4a08      	ldr	r2, [pc, #32]	; (0x5898)
    5876:	4b09      	ldr	r3, [pc, #36]	; (0x589c)
    5878:	f000 fb3e 	bl	0x5ef8
    587c:	4642      	mov	r2, r8
    587e:	4653      	mov	r3, sl
    5880:	f000 fe10 	bl	0x64a4
    5884:	b008      	add	sp, #32
    5886:	462a      	mov	r2, r5
    5888:	4623      	mov	r3, r4
    588a:	e8bd 4df0 	ldmia.w	sp!, {r4, r5, r6, r7, r8, sl, fp, lr}
    588e:	f000 bb33 	b.w	0x5ef8
    5892:	0000      	movs	r0, r0
    5894:	1d94      	adds	r4, r2, #6
    5896:	0000      	movs	r0, r0
    5898:	5549      	strb	r1, [r1, r5]
    589a:	5555      	strb	r5, [r2, r5]
    589c:	5555      	strb	r5, [r2, r5]
    589e:	bfc5      	ittet	gt
    58a0:	4a02      	ldrgt	r2, [pc, #8]	; (0x58ac)
    58a2:	2000      	movgt	r0, #0
    58a4:	0711      	lslle	r1, r2, #28
    58a6:	f001 bd62 	bgt.w	0x736e
    58aa:	0000      	movs	r0, r0
    58ac:	fd01 ffff 	stc2	15, cr15, [r1, #-1020]	; 0xfffffc04
    58b0:	e92d 4ff8 	stmdb	sp!, {r3, r4, r5, r6, r7, r8, r9, sl, fp, lr}
    58b4:	4604      	mov	r4, r0
    58b6:	460d      	mov	r5, r1
    58b8:	f021 4000 	bic.w	r0, r1, #2147483648	; 0x80000000
    58bc:	9100      	str	r1, [sp, #0]
    58be:	4974      	ldr	r1, [pc, #464]	; (0x5a90)
    58c0:	4288      	cmp	r0, r1
    58c2:	db12      	blt.n	0x58ea
    58c4:	4973      	ldr	r1, [pc, #460]	; (0x5a94)
    58c6:	4288      	cmp	r0, r1
    58c8:	dc01      	bgt.n	0x58ce
    58ca:	d107      	bne.n	0x58dc
    58cc:	b134      	cbz	r4, 0x58dc
    58ce:	4620      	mov	r0, r4
    58d0:	4629      	mov	r1, r5
    58d2:	e8bd 4ff8 	ldmia.w	sp!, {r3, r4, r5, r6, r7, r8, r9, sl, fp, lr}
    58d6:	2201      	movs	r2, #1
    58d8:	f001 bd49 	b.w	0x736e
    58dc:	486e      	ldr	r0, [pc, #440]	; (0x5a98)
    58de:	2d00      	cmp	r5, #0
    58e0:	bfcc      	ite	gt
    58e2:	496e      	ldrgt	r1, [pc, #440]	; (0x5a9c)
    58e4:	496e      	ldrle	r1, [pc, #440]	; (0x5aa0)
    58e6:	e8bd 8ff8 	ldmia.w	sp!, {r3, r4, r5, r6, r7, r8, r9, sl, fp, pc}
    58ea:	496e      	ldr	r1, [pc, #440]	; (0x5aa4)
    58ec:	4288      	cmp	r0, r1
    58ee:	da11      	bge.n	0x5914
    58f0:	496d      	ldr	r1, [pc, #436]	; (0x5aa8)
    58f2:	4288      	cmp	r0, r1
    58f4:	bfa8      	it	ge
    58f6:	f04f 36ff 	movge.w	r6, #4294967295	; 0xffffffff
    58fa:	da6d      	bge.n	0x59d8
    58fc:	4620      	mov	r0, r4
    58fe:	4629      	mov	r1, r5
    5900:	f7ff fca9 	bl	0x5256
    5904:	2804      	cmp	r0, #4
    5906:	bf08      	it	eq
    5908:	f7ff ffca 	bleq	0x58a0
    590c:	4620      	mov	r0, r4
    590e:	4629      	mov	r1, r5
    5910:	e8bd 8ff8 	ldmia.w	sp!, {r3, r4, r5, r6, r7, r8, r9, sl, fp, pc}
    5914:	4965      	ldr	r1, [pc, #404]	; (0x5aac)
    5916:	f8df a198 	ldr.w	sl, [pc, #408]	; 0x5ab0
    591a:	f025 4500 	bic.w	r5, r5, #2147483648	; 0x80000000
    591e:	4288      	cmp	r0, r1
    5920:	da32      	bge.n	0x5988
    5922:	4964      	ldr	r1, [pc, #400]	; (0x5ab4)
    5924:	4288      	cmp	r0, r1
    5926:	da19      	bge.n	0x595c
    5928:	2600      	movs	r6, #0
    592a:	4632      	mov	r2, r6
    592c:	f04f 4380 	mov.w	r3, #1073741824	; 0x40000000
    5930:	4620      	mov	r0, r4
    5932:	4629      	mov	r1, r5
    5934:	f000 fae0 	bl	0x5ef8
    5938:	4607      	mov	r7, r0
    593a:	4688      	mov	r8, r1
    593c:	2201      	movs	r2, #1
    593e:	4620      	mov	r0, r4
    5940:	4629      	mov	r1, r5
    5942:	f001 fd14 	bl	0x736e
    5946:	2200      	movs	r2, #0
    5948:	4653      	mov	r3, sl
    594a:	f001 f879 	bl	0x6a40
    594e:	463a      	mov	r2, r7
    5950:	4643      	mov	r3, r8
    5952:	f000 fb8b 	bl	0x606c
    5956:	4604      	mov	r4, r0
    5958:	460d      	mov	r5, r1
    595a:	e03d      	b.n	0x59d8
    595c:	2601      	movs	r6, #1
    595e:	2200      	movs	r2, #0
    5960:	4653      	mov	r3, sl
    5962:	4620      	mov	r0, r4
    5964:	4629      	mov	r1, r5
    5966:	f000 fac7 	bl	0x5ef8
    596a:	4607      	mov	r7, r0
    596c:	4688      	mov	r8, r1
    596e:	2200      	movs	r2, #0
    5970:	4653      	mov	r3, sl
    5972:	4620      	mov	r0, r4
    5974:	4629      	mov	r1, r5
    5976:	f001 f863 	bl	0x6a40
    597a:	4643      	mov	r3, r8
    597c:	463a      	mov	r2, r7
    597e:	f000 fb75 	bl	0x606c
    5982:	4604      	mov	r4, r0
    5984:	460d      	mov	r5, r1
    5986:	e027      	b.n	0x59d8
    5988:	494b      	ldr	r1, [pc, #300]	; (0x5ab8)
    598a:	4288      	cmp	r0, r1
    598c:	da1b      	bge.n	0x59c6
    598e:	f8df 812c 	ldr.w	r8, [pc, #300]	; 0x5abc
    5992:	2602      	movs	r6, #2
    5994:	2200      	movs	r2, #0
    5996:	4643      	mov	r3, r8
    5998:	4620      	mov	r0, r4
    599a:	4629      	mov	r1, r5
    599c:	f000 fd82 	bl	0x64a4
    59a0:	2200      	movs	r2, #0
    59a2:	4653      	mov	r3, sl
    59a4:	f000 faa8 	bl	0x5ef8
    59a8:	4682      	mov	sl, r0
    59aa:	460f      	mov	r7, r1
    59ac:	2200      	movs	r2, #0
    59ae:	4643      	mov	r3, r8
    59b0:	4620      	mov	r0, r4
    59b2:	4629      	mov	r1, r5
    59b4:	f001 f844 	bl	0x6a40
    59b8:	4652      	mov	r2, sl
    59ba:	463b      	mov	r3, r7
    59bc:	f000 fb56 	bl	0x606c
    59c0:	4604      	mov	r4, r0
    59c2:	460d      	mov	r5, r1
    59c4:	e008      	b.n	0x59d8
    59c6:	2603      	movs	r6, #3
    59c8:	4622      	mov	r2, r4
    59ca:	462b      	mov	r3, r5
    59cc:	2000      	movs	r0, #0
    59ce:	493c      	ldr	r1, [pc, #240]	; (0x5ac0)
    59d0:	f000 fb4c 	bl	0x606c
    59d4:	4604      	mov	r4, r0
    59d6:	460d      	mov	r5, r1
    59d8:	4622      	mov	r2, r4
    59da:	462b      	mov	r3, r5
    59dc:	4620      	mov	r0, r4
    59de:	4629      	mov	r1, r5
    59e0:	f000 fd60 	bl	0x64a4
    59e4:	468b      	mov	fp, r1
    59e6:	4682      	mov	sl, r0
    59e8:	4602      	mov	r2, r0
    59ea:	460b      	mov	r3, r1
    59ec:	f000 fd5a 	bl	0x64a4
    59f0:	4607      	mov	r7, r0
    59f2:	4602      	mov	r2, r0
    59f4:	4833      	ldr	r0, [pc, #204]	; (0x5ac4)
    59f6:	4688      	mov	r8, r1
    59f8:	460b      	mov	r3, r1
    59fa:	2106      	movs	r1, #6
    59fc:	4478      	add	r0, pc
    59fe:	f7ff fe81 	bl	0x5704
    5a02:	4652      	mov	r2, sl
    5a04:	465b      	mov	r3, fp
    5a06:	f000 fd4d 	bl	0x64a4
    5a0a:	4682      	mov	sl, r0
    5a0c:	482e      	ldr	r0, [pc, #184]	; (0x5ac8)
    5a0e:	468b      	mov	fp, r1
    5a10:	463a      	mov	r2, r7
    5a12:	4643      	mov	r3, r8
    5a14:	2105      	movs	r1, #5
    5a16:	4478      	add	r0, pc
    5a18:	f7ff fe74 	bl	0x5704
    5a1c:	463a      	mov	r2, r7
    5a1e:	4643      	mov	r3, r8
    5a20:	f000 fd40 	bl	0x64a4
    5a24:	4602      	mov	r2, r0
    5a26:	460b      	mov	r3, r1
    5a28:	2e00      	cmp	r6, #0
    5a2a:	4650      	mov	r0, sl
    5a2c:	4659      	mov	r1, fp
    5a2e:	da0c      	bge.n	0x5a4a
    5a30:	f000 fa62 	bl	0x5ef8
    5a34:	4622      	mov	r2, r4
    5a36:	462b      	mov	r3, r5
    5a38:	f000 fd34 	bl	0x64a4
    5a3c:	b001      	add	sp, #4
    5a3e:	4622      	mov	r2, r4
    5a40:	462b      	mov	r3, r5
    5a42:	e8bd 4ff0 	ldmia.w	sp!, {r4, r5, r6, r7, r8, r9, sl, fp, lr}
    5a46:	f000 bf09 	b.w	0x685c
    5a4a:	f000 fa55 	bl	0x5ef8
    5a4e:	4622      	mov	r2, r4
    5a50:	462b      	mov	r3, r5
    5a52:	f000 fd27 	bl	0x64a4
    5a56:	4a1d      	ldr	r2, [pc, #116]	; (0x5acc)
    5a58:	447a      	add	r2, pc
    5a5a:	eb02 03c6 	add.w	r3, r2, r6, lsl #3
    5a5e:	e9d3 2300 	ldrd	r2, r3, [r3]
    5a62:	f000 ffed 	bl	0x6a40
    5a66:	4622      	mov	r2, r4
    5a68:	462b      	mov	r3, r5
    5a6a:	f000 ffe9 	bl	0x6a40
    5a6e:	4a18      	ldr	r2, [pc, #96]	; (0x5ad0)
    5a70:	447a      	add	r2, pc
    5a72:	eb02 03c6 	add.w	r3, r2, r6, lsl #3
    5a76:	e9d3 2300 	ldrd	r2, r3, [r3]
    5a7a:	f000 feef 	bl	0x685c
    5a7e:	9a00      	ldr	r2, [sp, #0]
    5a80:	2a00      	cmp	r2, #0
    5a82:	bfb4      	ite	lt
    5a84:	f081 4100 	eorlt.w	r1, r1, #2147483648	; 0x80000000
    5a88:	e8bd 8ff8 	ldmiage.w	sp!, {r3, r4, r5, r6, r7, r8, r9, sl, fp, pc}
    5a8c:	e8bd 8ff8 	ldmia.w	sp!, {r3, r4, r5, r6, r7, r8, r9, sl, fp, pc}
    5a90:	0000      	movs	r0, r0
    5a92:	4410      	add	r0, r2
    5a94:	0000      	movs	r0, r0
    5a96:	7ff0      	ldrb	r0, [r6, #31]
    5a98:	2d18      	cmp	r5, #24
    5a9a:	5444      	strb	r4, [r0, r1]
    5a9c:	21fb      	movs	r1, #251	; 0xfb
    5a9e:	3ff9      	subs	r7, #249	; 0xf9
    5aa0:	21fb      	movs	r1, #251	; 0xfb
    5aa2:	bff9      	ittee	<und>
    5aa4:	0000      	mov<und>	r0, r0
    5aa6:	3fdc      	sub<und>	r7, #220	; 0xdc
    5aa8:	0000      	moval	r0, r0
    5aaa:	3e20      	subal	r6, #32
    5aac:	0000      	movs	r0, r0
    5aae:	3ff3      	subs	r7, #243	; 0xf3
    5ab0:	0000      	movs	r0, r0
    5ab2:	3ff0      	subs	r7, #240	; 0xf0
    5ab4:	0000      	movs	r0, r0
    5ab6:	3fe6      	subs	r7, #230	; 0xe6
    5ab8:	8000      	strh	r0, [r0, #0]
    5aba:	4003      	ands	r3, r0
    5abc:	0000      	movs	r0, r0
    5abe:	3ff8      	subs	r7, #248	; 0xf8
    5ac0:	0000      	movs	r0, r0
    5ac2:	bff0      	nop	{15}
    5ac4:	1a68      	subs	r0, r5, r1
    5ac6:	0000      	movs	r0, r0
    5ac8:	1a26      	subs	r6, r4, r0
    5aca:	0000      	movs	r0, r0
    5acc:	19c4      	adds	r4, r0, r7
    5ace:	0000      	movs	r0, r0
    5ad0:	198c      	adds	r4, r1, r6
    5ad2:	0000      	movs	r0, r0
    5ad4:	e92d 4df0 	stmdb	sp!, {r4, r5, r6, r7, r8, sl, fp, lr}
    5ad8:	4694      	mov	ip, r2
    5ada:	f1cc 0400 	rsb	r4, ip, #0
    5ade:	f023 4600 	bic.w	r6, r3, #2147483648	; 0x80000000
    5ae2:	ea4c 0404 	orr.w	r4, ip, r4
    5ae6:	4f52      	ldr	r7, [pc, #328]	; (0x5c30)
    5ae8:	ea46 74d4 	orr.w	r4, r6, r4, lsr #31
    5aec:	4698      	mov	r8, r3
    5aee:	468a      	mov	sl, r1
    5af0:	f021 4200 	bic.w	r2, r1, #2147483648	; 0x80000000
    5af4:	42bc      	cmp	r4, r7
    5af6:	d806      	bhi.n	0x5b06
    5af8:	4245      	negs	r5, r0
    5afa:	ea40 0405 	orr.w	r4, r0, r5
    5afe:	ea42 74d4 	orr.w	r4, r2, r4, lsr #31
    5b02:	42bc      	cmp	r4, r7
    5b04:	d904      	bls.n	0x5b10
    5b06:	e8bd 4df0 	ldmia.w	sp!, {r4, r5, r6, r7, r8, sl, fp, lr}
    5b0a:	4662      	mov	r2, ip
    5b0c:	f000 b9f4 	b.w	0x5ef8
    5b10:	f1a8 5540 	sub.w	r5, r8, #805306368	; 0x30000000
    5b14:	f1a5 657f 	sub.w	r5, r5, #267386880	; 0xff00000
    5b18:	ea55 040c 	orrs.w	r4, r5, ip
    5b1c:	d00b      	beq.n	0x5b36
    5b1e:	2402      	movs	r4, #2
    5b20:	ea04 74a8 	and.w	r4, r4, r8, asr #30
    5b24:	4d43      	ldr	r5, [pc, #268]	; (0x5c34)
    5b26:	f8df e110 	ldr.w	lr, [pc, #272]	; 0x5c38
    5b2a:	ea44 74da 	orr.w	r4, r4, sl, lsr #31
    5b2e:	ea52 0b00 	orrs.w	fp, r2, r0
    5b32:	d004      	beq.n	0x5b3e
    5b34:	e00c      	b.n	0x5b50
    5b36:	e8bd 4df0 	ldmia.w	sp!, {r4, r5, r6, r7, r8, sl, fp, lr}
    5b3a:	f7ff beb9 	b.w	0x58b0
    5b3e:	2c00      	cmp	r4, #0
    5b40:	bf14      	ite	ne
    5b42:	2c01      	cmpne	r4, #1
    5b44:	e8bd 8df0 	ldmiaeq.w	sp!, {r4, r5, r6, r7, r8, sl, fp, pc}
    5b48:	2c02      	cmp	r4, #2
    5b4a:	d030      	beq.n	0x5bae
    5b4c:	2c03      	cmp	r4, #3
    5b4e:	d032      	beq.n	0x5bb6
    5b50:	ea56 0b0c 	orrs.w	fp, r6, ip
    5b54:	d00a      	beq.n	0x5b6c
    5b56:	42be      	cmp	r6, r7
    5b58:	d120      	bne.n	0x5b9c
    5b5a:	42ba      	cmp	r2, r7
    5b5c:	d109      	bne.n	0x5b72
    5b5e:	f026 4680 	bic.w	r6, r6, #1073741824	; 0x40000000
    5b62:	f022 4280 	bic.w	r2, r2, #1073741824	; 0x40000000
    5b66:	4633      	mov	r3, r6
    5b68:	4611      	mov	r1, r2
    5b6a:	e017      	b.n	0x5b9c
    5b6c:	2900      	cmp	r1, #0
    5b6e:	db1a      	blt.n	0x5ba6
    5b70:	e025      	b.n	0x5bbe
    5b72:	f8df b0c8 	ldr.w	fp, [pc, #200]	; 0x5c3c
    5b76:	44fb      	add	fp, pc
    5b78:	2c00      	cmp	r4, #0
    5b7a:	bf04      	itt	eq
    5b7c:	e9db 0100 	ldrdeq	r0, r1, [fp]
    5b80:	e8bd 8df0 	ldmiaeq.w	sp!, {r4, r5, r6, r7, r8, sl, fp, pc}
    5b84:	2c01      	cmp	r4, #1
    5b86:	bf02      	ittt	eq
    5b88:	e9db 0100 	ldrdeq	r0, r1, [fp]
    5b8c:	f081 4100 	eoreq.w	r1, r1, #2147483648	; 0x80000000
    5b90:	e8bd 8df0 	ldmiaeq.w	sp!, {r4, r5, r6, r7, r8, sl, fp, pc}
    5b94:	2c02      	cmp	r4, #2
    5b96:	d00a      	beq.n	0x5bae
    5b98:	2c03      	cmp	r4, #3
    5b9a:	d00c      	beq.n	0x5bb6
    5b9c:	42ba      	cmp	r2, r7
    5b9e:	d112      	bne.n	0x5bc6
    5ba0:	f1ba 0f00 	cmp.w	sl, #0
    5ba4:	da0b      	bge.n	0x5bbe
    5ba6:	4823      	ldr	r0, [pc, #140]	; (0x5c34)
    5ba8:	4925      	ldr	r1, [pc, #148]	; (0x5c40)
    5baa:	e8bd 8df0 	ldmia.w	sp!, {r4, r5, r6, r7, r8, sl, fp, pc}
    5bae:	4628      	mov	r0, r5
    5bb0:	4924      	ldr	r1, [pc, #144]	; (0x5c44)
    5bb2:	e8bd 8df0 	ldmia.w	sp!, {r4, r5, r6, r7, r8, sl, fp, pc}
    5bb6:	4628      	mov	r0, r5
    5bb8:	4671      	mov	r1, lr
    5bba:	e8bd 8df0 	ldmia.w	sp!, {r4, r5, r6, r7, r8, sl, fp, pc}
    5bbe:	481d      	ldr	r0, [pc, #116]	; (0x5c34)
    5bc0:	4921      	ldr	r1, [pc, #132]	; (0x5c48)
    5bc2:	e8bd 8df0 	ldmia.w	sp!, {r4, r5, r6, r7, r8, sl, fp, pc}
    5bc6:	1b92      	subs	r2, r2, r6
    5bc8:	1512      	asrs	r2, r2, #20
    5bca:	2a3c      	cmp	r2, #60	; 0x3c
    5bcc:	bfc4      	itt	gt
    5bce:	4819      	ldrgt	r0, [pc, #100]	; (0x5c34)
    5bd0:	491d      	ldrgt	r1, [pc, #116]	; (0x5c48)
    5bd2:	dc0e      	bgt.n	0x5bf2
    5bd4:	f1b8 0f00 	cmp.w	r8, #0
    5bd8:	bfbe      	ittt	lt
    5bda:	f112 0f3c 	cmnlt.w	r2, #60	; 0x3c
    5bde:	2000      	movlt	r0, #0
    5be0:	4601      	movlt	r1, r0
    5be2:	db06      	blt.n	0x5bf2
    5be4:	4662      	mov	r2, ip
    5be6:	f000 fa41 	bl	0x606c
    5bea:	f021 4100 	bic.w	r1, r1, #2147483648	; 0x80000000
    5bee:	f7ff fe5f 	bl	0x58b0
    5bf2:	2c00      	cmp	r4, #0
    5bf4:	bf08      	it	eq
    5bf6:	e8bd 8df0 	ldmiaeq.w	sp!, {r4, r5, r6, r7, r8, sl, fp, pc}
    5bfa:	2c01      	cmp	r4, #1
    5bfc:	bf04      	itt	eq
    5bfe:	f081 4100 	eoreq.w	r1, r1, #2147483648	; 0x80000000
    5c02:	e8bd 8df0 	ldmiaeq.w	sp!, {r4, r5, r6, r7, r8, sl, fp, pc}
    5c06:	4a11      	ldr	r2, [pc, #68]	; (0x5c4c)
    5c08:	4b11      	ldr	r3, [pc, #68]	; (0x5c50)
    5c0a:	2c02      	cmp	r4, #2
    5c0c:	d007      	beq.n	0x5c1e
    5c0e:	f000 ff17 	bl	0x6a40
    5c12:	462a      	mov	r2, r5
    5c14:	e8bd 4df0 	ldmia.w	sp!, {r4, r5, r6, r7, r8, sl, fp, lr}
    5c18:	4b0a      	ldr	r3, [pc, #40]	; (0x5c44)
    5c1a:	f000 bf11 	b.w	0x6a40
    5c1e:	f000 ff0f 	bl	0x6a40
    5c22:	462a      	mov	r2, r5
    5c24:	e8bd 4df0 	ldmia.w	sp!, {r4, r5, r6, r7, r8, sl, fp, lr}
    5c28:	4b06      	ldr	r3, [pc, #24]	; (0x5c44)
    5c2a:	f000 be17 	b.w	0x685c
    5c2e:	0000      	movs	r0, r0
    5c30:	0000      	movs	r0, r0
    5c32:	7ff0      	ldrb	r0, [r6, #31]
    5c34:	2d18      	cmp	r5, #24
    5c36:	5444      	strb	r4, [r0, r1]
    5c38:	21fb      	movs	r1, #251	; 0xfb
    5c3a:	c009      	stmia	r0!, {r0, r3}
    5c3c:	194e      	adds	r6, r1, r5
    5c3e:	0000      	movs	r0, r0
    5c40:	21fb      	movs	r1, #251	; 0xfb
    5c42:	bff9      	ittee	<und>
    5c44:	21fb      	mov<und>	r1, #251	; 0xfb
    5c46:	4009      	and<und>	r1, r1
    5c48:	21fb      	moval	r1, #251	; 0xfb
    5c4a:	3ff9      	subal	r7, #249	; 0xf9
    5c4c:	5c07      	ldrb	r7, [r0, r0]
    5c4e:	3314      	adds	r3, #20
    5c50:	a626      	add	r6, pc, #152	; (adr r6, 0x5cec)
    5c52:	3ca1      	subs	r4, #161	; 0xa1
    5c54:	b500      	push	{lr}
    5c56:	4b28      	ldr	r3, [pc, #160]	; (0x5cf8)
    5c58:	f021 4200 	bic.w	r2, r1, #2147483648	; 0x80000000
    5c5c:	b087      	sub	sp, #28
    5c5e:	429a      	cmp	r2, r3
    5c60:	bfdc      	itt	le
    5c62:	2200      	movle	r2, #0
    5c64:	4613      	movle	r3, r2
    5c66:	dd30      	ble.n	0x5cca
    5c68:	4b24      	ldr	r3, [pc, #144]	; (0x5cfc)
    5c6a:	429a      	cmp	r2, r3
    5c6c:	d10d      	bne.n	0x5c8a
    5c6e:	b968      	cbnz	r0, 0x5c8c
    5c70:	f04f 0001 	mov.w	r0, #1
    5c74:	f7ff faa6 	bl	0x51c4
    5c78:	2200      	movs	r2, #0
    5c7a:	b007      	add	sp, #28
    5c7c:	4613      	mov	r3, r2
    5c7e:	4610      	mov	r0, r2
    5c80:	4611      	mov	r1, r2
    5c82:	f85d eb04 	ldr.w	lr, [sp], #4
    5c86:	f000 b9f1 	b.w	0x606c
    5c8a:	db05      	blt.n	0x5c98
    5c8c:	b007      	add	sp, #28
    5c8e:	2201      	movs	r2, #1
    5c90:	f85d eb04 	ldr.w	lr, [sp], #4
    5c94:	f001 bb6b 	b.w	0x736e
    5c98:	aa02      	add	r2, sp, #8
    5c9a:	f7ff faf1 	bl	0x5280
    5c9e:	f010 0003 	ands.w	r0, r0, #3
    5ca2:	bf04      	itt	eq
    5ca4:	f10d 0c08 	addeq.w	ip, sp, #8
    5ca8:	e8bc 000f 	ldmiaeq.w	ip!, {r0, r1, r2, r3}
    5cac:	d00d      	beq.n	0x5cca
    5cae:	2801      	cmp	r0, #1
    5cb0:	d00f      	beq.n	0x5cd2
    5cb2:	2802      	cmp	r0, #2
    5cb4:	d016      	beq.n	0x5ce4
    5cb6:	2301      	movs	r3, #1
    5cb8:	f10d 0c08 	add.w	ip, sp, #8
    5cbc:	9300      	str	r3, [sp, #0]
    5cbe:	e8bc 000f 	ldmia.w	ip!, {r0, r1, r2, r3}
    5cc2:	f7ff fd75 	bl	0x57b0
    5cc6:	b007      	add	sp, #28
    5cc8:	bd00      	pop	{pc}
    5cca:	f7ff fc9d 	bl	0x5608
    5cce:	b007      	add	sp, #28
    5cd0:	bd00      	pop	{pc}
    5cd2:	2301      	movs	r3, #1
    5cd4:	f10d 0c08 	add.w	ip, sp, #8
    5cd8:	9300      	str	r3, [sp, #0]
    5cda:	e8bc 000f 	ldmia.w	ip!, {r0, r1, r2, r3}
    5cde:	f7ff fd67 	bl	0x57b0
    5ce2:	e005      	b.n	0x5cf0
    5ce4:	f10d 0c08 	add.w	ip, sp, #8
    5ce8:	e8bc 000f 	ldmia.w	ip!, {r0, r1, r2, r3}
    5cec:	f7ff fc8c 	bl	0x5608
    5cf0:	b007      	add	sp, #28
    5cf2:	f081 4100 	eor.w	r1, r1, #2147483648	; 0x80000000
    5cf6:	bd00      	pop	{pc}
    5cf8:	21fb      	movs	r1, #251	; 0xfb
    5cfa:	3fe9      	subs	r7, #233	; 0xe9
    5cfc:	0000      	movs	r0, r0
    5cfe:	7ff0      	ldrb	r0, [r6, #31]
    5d00:	b570      	push	{r4, r5, r6, lr}
    5d02:	4614      	mov	r4, r2
    5d04:	461d      	mov	r5, r3
    5d06:	460e      	mov	r6, r1
    5d08:	2800      	cmp	r0, #0
    5d0a:	bf14      	ite	ne
    5d0c:	2101      	movne	r1, #1
    5d0e:	2100      	moveq	r1, #0
    5d10:	4331      	orrs	r1, r6
    5d12:	f021 4100 	bic.w	r1, r1, #2147483648	; 0x80000000
    5d16:	f1c1 617f 	rsb	r1, r1, #267386880	; 0xff00000
    5d1a:	f111 41e0 	adds.w	r1, r1, #1879048192	; 0x70000000
    5d1e:	d415      	bmi.n	0x5d4c
    5d20:	2c00      	cmp	r4, #0
    5d22:	bf14      	ite	ne
    5d24:	2101      	movne	r1, #1
    5d26:	2100      	moveq	r1, #0
    5d28:	4329      	orrs	r1, r5
    5d2a:	f021 4100 	bic.w	r1, r1, #2147483648	; 0x80000000
    5d2e:	f1c1 617f 	rsb	r1, r1, #267386880	; 0xff00000
    5d32:	f111 41e0 	adds.w	r1, r1, #1879048192	; 0x70000000
    5d36:	d409      	bmi.n	0x5d4c
    5d38:	4916      	ldr	r1, [pc, #88]	; (0x5d94)
    5d3a:	ebb1 0f46 	cmp.w	r1, r6, lsl #1
    5d3e:	bf08      	it	eq
    5d40:	2800      	cmpeq	r0, #0
    5d42:	d01c      	beq.n	0x5d7e
    5d44:	0069      	lsls	r1, r5, #1
    5d46:	bf08      	it	eq
    5d48:	2c00      	cmpeq	r4, #0
    5d4a:	d018      	beq.n	0x5d7e
    5d4c:	4631      	mov	r1, r6
    5d4e:	f000 fca1 	bl	0x6694
    5d52:	4602      	mov	r2, r0
    5d54:	f240 70ff 	movw	r0, #2047	; 0x7ff
    5d58:	ea30 5011 	bics.w	r0, r0, r1, lsr #20
    5d5c:	d00d      	beq.n	0x5d7a
    5d5e:	17f0      	asrs	r0, r6, #31
    5d60:	ebb0 7fe1 	cmp.w	r0, r1, asr #31
    5d64:	d009      	beq.n	0x5d7a
    5d66:	4608      	mov	r0, r1
    5d68:	f365 001e 	bfi	r0, r5, #0, #31
    5d6c:	4684      	mov	ip, r0
    5d6e:	460b      	mov	r3, r1
    5d70:	4620      	mov	r0, r4
    5d72:	4661      	mov	r1, ip
    5d74:	f000 fd72 	bl	0x685c
    5d78:	4602      	mov	r2, r0
    5d7a:	4610      	mov	r0, r2
    5d7c:	bd70      	pop	{r4, r5, r6, pc}
    5d7e:	2001      	movs	r0, #1
    5d80:	f7ff fa20 	bl	0x51c4
    5d84:	2200      	movs	r2, #0
    5d86:	e8bd 4070 	ldmia.w	sp!, {r4, r5, r6, lr}
    5d8a:	4613      	mov	r3, r2
    5d8c:	4610      	mov	r0, r2
    5d8e:	4611      	mov	r1, r2
    5d90:	f000 b96c 	b.w	0x606c
    5d94:	0000      	movs	r0, r0
    5d96:	ffe0 b500 	vabal.u32	<illegal reg q13.5>, d0, d0
    5d9a:	4b29      	ldr	r3, [pc, #164]	; (0x5e40)
    5d9c:	f021 4200 	bic.w	r2, r1, #2147483648	; 0x80000000
    5da0:	b087      	sub	sp, #28
    5da2:	429a      	cmp	r2, r3
    5da4:	dc03      	bgt.n	0x5dae
    5da6:	2300      	movs	r3, #0
    5da8:	461a      	mov	r2, r3
    5daa:	9300      	str	r3, [sp, #0]
    5dac:	e032      	b.n	0x5e14
    5dae:	4b25      	ldr	r3, [pc, #148]	; (0x5e44)
    5db0:	429a      	cmp	r2, r3
    5db2:	d10d      	bne.n	0x5dd0
    5db4:	b968      	cbnz	r0, 0x5dd2
    5db6:	f04f 0001 	mov.w	r0, #1
    5dba:	f7ff fa03 	bl	0x51c4
    5dbe:	2200      	movs	r2, #0
    5dc0:	b007      	add	sp, #28
    5dc2:	4613      	mov	r3, r2
    5dc4:	4610      	mov	r0, r2
    5dc6:	4611      	mov	r1, r2
    5dc8:	f85d eb04 	ldr.w	lr, [sp], #4
    5dcc:	f000 b94e 	b.w	0x606c
    5dd0:	db05      	blt.n	0x5dde
    5dd2:	b007      	add	sp, #28
    5dd4:	2201      	movs	r2, #1
    5dd6:	f85d eb04 	ldr.w	lr, [sp], #4
    5dda:	f001 bac8 	b.w	0x736e
    5dde:	aa02      	add	r2, sp, #8
    5de0:	f7ff fa4e 	bl	0x5280
    5de4:	f010 0003 	ands.w	r0, r0, #3
    5de8:	d00e      	beq.n	0x5e08
    5dea:	2801      	cmp	r0, #1
    5dec:	d016      	beq.n	0x5e1c
    5dee:	2802      	cmp	r0, #2
    5df0:	d01c      	beq.n	0x5e2c
    5df2:	f10d 0c08 	add.w	ip, sp, #8
    5df6:	e8bc 000f 	ldmia.w	ip!, {r0, r1, r2, r3}
    5dfa:	f7ff fc05 	bl	0x5608
    5dfe:	bf00      	nop
    5e00:	b007      	add	sp, #28
    5e02:	f081 4100 	eor.w	r1, r1, #2147483648	; 0x80000000
    5e06:	bd00      	pop	{pc}
    5e08:	2301      	movs	r3, #1
    5e0a:	f10d 0c08 	add.w	ip, sp, #8
    5e0e:	9300      	str	r3, [sp, #0]
    5e10:	e8bc 000f 	ldmia.w	ip!, {r0, r1, r2, r3}
    5e14:	f7ff fccc 	bl	0x57b0
    5e18:	b007      	add	sp, #28
    5e1a:	bd00      	pop	{pc}
    5e1c:	f10d 0c08 	add.w	ip, sp, #8
    5e20:	e8bc 000f 	ldmia.w	ip!, {r0, r1, r2, r3}
    5e24:	f7ff fbf0 	bl	0x5608
    5e28:	b007      	add	sp, #28
    5e2a:	bd00      	pop	{pc}
    5e2c:	2301      	movs	r3, #1
    5e2e:	f10d 0c08 	add.w	ip, sp, #8
    5e32:	9300      	str	r3, [sp, #0]
    5e34:	e8bc 000f 	ldmia.w	ip!, {r0, r1, r2, r3}
    5e38:	f7ff fcba 	bl	0x57b0
    5e3c:	e7e0      	b.n	0x5e00
    5e3e:	0000      	movs	r0, r0
    5e40:	21fb      	movs	r1, #251	; 0xfb
    5e42:	3fe9      	subs	r7, #233	; 0xe9
    5e44:	0000      	movs	r0, r0
    5e46:	7ff0      	ldrb	r0, [r6, #31]
    5e48:	e92d 41f0 	stmdb	sp!, {r4, r5, r6, r7, r8, lr}
    5e4c:	4606      	mov	r6, r0
    5e4e:	460f      	mov	r7, r1
    5e50:	f000 fd10 	bl	0x6874
    5e54:	0004      	movs	r4, r0
    5e56:	460d      	mov	r5, r1
    5e58:	bf18      	it	ne
    5e5a:	2001      	movne	r0, #1
    5e5c:	4328      	orrs	r0, r5
    5e5e:	f020 4000 	bic.w	r0, r0, #2147483648	; 0x80000000
    5e62:	f1c0 607f 	rsb	r0, r0, #267386880	; 0xff00000
    5e66:	f110 40e0 	adds.w	r0, r0, #1879048192	; 0x70000000
    5e6a:	d50e      	bpl.n	0x5e8a
    5e6c:	2e00      	cmp	r6, #0
    5e6e:	bf14      	ite	ne
    5e70:	2001      	movne	r0, #1
    5e72:	2000      	moveq	r0, #0
    5e74:	4338      	orrs	r0, r7
    5e76:	f020 4000 	bic.w	r0, r0, #2147483648	; 0x80000000
    5e7a:	f1c0 607f 	rsb	r0, r0, #267386880	; 0xff00000
    5e7e:	f110 40e0 	adds.w	r0, r0, #1879048192	; 0x70000000
    5e82:	bf5c      	itt	pl
    5e84:	2001      	movpl	r0, #1
    5e86:	f7ff f99d 	blpl	0x51c4
    5e8a:	4620      	mov	r0, r4
    5e8c:	4629      	mov	r1, r5
    5e8e:	e8bd 81f0 	ldmia.w	sp!, {r4, r5, r6, r7, r8, pc}
    5e92:	0000      	movs	r0, r0
    5e94:	f021 4200 	bic.w	r2, r1, #2147483648	; 0x80000000
    5e98:	f1a2 5260 	sub.w	r2, r2, #939524096	; 0x38000000
    5e9c:	f5b2 1f80 	cmp.w	r2, #1048576	; 0x100000
    5ea0:	f001 4300 	and.w	r3, r1, #2147483648	; 0x80000000
    5ea4:	bf28      	it	cs
    5ea6:	f1d2 6c7f 	rsbscs	ip, r2, #267386880	; 0xff00000
    5eaa:	d90b      	bls.n	0x5ec4
    5eac:	ea5f 1c00 	movs.w	ip, r0, lsl #4
    5eb0:	ea43 02c2 	orr.w	r2, r3, r2, lsl #3
    5eb4:	eb42 7050 	adc.w	r0, r2, r0, lsr #29
    5eb8:	bf18      	it	ne
    5eba:	4770      	bxne	lr
    5ebc:	bf28      	it	cs
    5ebe:	f020 0001 	biccs.w	r0, r0, #1
    5ec2:	4770      	bx	lr
    5ec4:	f5b2 1f80 	cmp.w	r2, #1048576	; 0x100000
    5ec8:	bfbc      	itt	lt
    5eca:	4618      	movlt	r0, r3
    5ecc:	4770      	bxlt	lr
    5ece:	ea4f 0c41 	mov.w	ip, r1, lsl #1
    5ed2:	f51c 1f00 	cmn.w	ip, #2097152	; 0x200000
    5ed6:	d202      	bcs.n	0x5ede
    5ed8:	4608      	mov	r0, r1
    5eda:	f001 b961 	b.w	0x71a0
    5ede:	b570      	push	{r4, r5, r6, lr}
    5ee0:	f000 fb8a 	bl	0x65f8
    5ee4:	0000      	movs	r0, r0
    5ee6:	8900      	ldrh	r0, [r0, #8]
    5ee8:	f7ff bff6 	b.w	0x5ed8
    5eec:	f04f 4000 	mov.w	r0, #2147483648	; 0x80000000
    5ef0:	f5a0 0080 	sub.w	r0, r0, #4194304	; 0x400000
    5ef4:	4770      	bx	lr
    5ef6:	0000      	movs	r0, r0
    5ef8:	b510      	push	{r4, lr}
    5efa:	ea91 0f03 	teq	r1, r3
    5efe:	bf48      	it	mi
    5f00:	f083 4300 	eormi.w	r3, r3, #2147483648	; 0x80000000
    5f04:	f100 85a4 	bmi.w	0x6a50
    5f08:	1a84      	subs	r4, r0, r2
    5f0a:	eb71 0e03 	sbcs.w	lr, r1, r3
    5f0e:	d205      	bcs.n	0x5f1c
    5f10:	1912      	adds	r2, r2, r4
    5f12:	eb43 030e 	adc.w	r3, r3, lr
    5f16:	1b00      	subs	r0, r0, r4
    5f18:	eb61 010e 	sbc.w	r1, r1, lr
    5f1c:	f8df c120 	ldr.w	ip, [pc, #288]	; 0x6040
    5f20:	ea4f 5411 	mov.w	r4, r1, lsr #20
    5f24:	eba4 5e13 	sub.w	lr, r4, r3, lsr #20
    5f28:	ea1c 0f43 	tst.w	ip, r3, lsl #1
    5f2c:	bf18      	it	ne
    5f2e:	ea9c 5f44 	teqne	ip, r4, lsl #21
    5f32:	d071      	beq.n	0x6018
    5f34:	ea23 030c 	bic.w	r3, r3, ip
    5f38:	f1de 0c20 	rsbs	ip, lr, #32
    5f3c:	ea21 5104 	bic.w	r1, r1, r4, lsl #20
    5f40:	f443 1380 	orr.w	r3, r3, #1048576	; 0x100000
    5f44:	d332      	bcc.n	0x5fac
    5f46:	fa22 fc0e 	lsr.w	ip, r2, lr
    5f4a:	eb10 000c 	adds.w	r0, r0, ip
    5f4e:	fa23 fc0e 	lsr.w	ip, r3, lr
    5f52:	eb41 010c 	adc.w	r1, r1, ip
    5f56:	f1ce 0c20 	rsb	ip, lr, #32
    5f5a:	fa03 fc0c 	lsl.w	ip, r3, ip
    5f5e:	eb10 000c 	adds.w	r0, r0, ip
    5f62:	f151 0100 	adcs.w	r1, r1, #0
    5f66:	f5b1 1f80 	cmp.w	r1, #1048576	; 0x100000
    5f6a:	f1ce 0c20 	rsb	ip, lr, #32
    5f6e:	d232      	bcs.n	0x5fd6
    5f70:	eb01 5104 	add.w	r1, r1, r4, lsl #20
    5f74:	e8bd 4010 	ldmia.w	sp!, {r4, lr}
    5f78:	fa12 f20c 	lsls.w	r2, r2, ip
    5f7c:	bf58      	it	pl
    5f7e:	4770      	bxpl	lr
    5f80:	1c40      	adds	r0, r0, #1
    5f82:	bf38      	it	cc
    5f84:	ea5f 0242 	movscc.w	r2, r2, lsl #1
    5f88:	bf18      	it	ne
    5f8a:	4770      	bxne	lr
    5f8c:	2800      	cmp	r0, #0
    5f8e:	bf14      	ite	ne
    5f90:	f020 0001 	bicne.w	r0, r0, #1
    5f94:	f141 0100 	adceq.w	r1, r1, #0
    5f98:	ea4f 0341 	mov.w	r3, r1, lsl #1
    5f9c:	f513 1f00 	cmn.w	r3, #2097152	; 0x200000
    5fa0:	bf38      	it	cc
    5fa2:	4770      	bxcc	lr
    5fa4:	f1a1 41c0 	sub.w	r1, r1, #1610612736	; 0x60000000
    5fa8:	f000 bc1c 	b.w	0x67e4
    5fac:	2a01      	cmp	r2, #1
    5fae:	eb43 0203 	adc.w	r2, r3, r3
    5fb2:	f1ae 0e20 	sub.w	lr, lr, #32
    5fb6:	f1de 0c1f 	rsbs	ip, lr, #31
    5fba:	bf32      	itee	cc
    5fbc:	f04f 0c00 	movcc.w	ip, #0
    5fc0:	fa23 f30e 	lsrcs.w	r3, r3, lr
    5fc4:	eb10 0003 	addscs.w	r0, r0, r3
    5fc8:	eb41 5104 	adc.w	r1, r1, r4, lsl #20
    5fcc:	ebb4 5f11 	cmp.w	r4, r1, lsr #20
    5fd0:	d0d0      	beq.n	0x5f74
    5fd2:	eba1 5104 	sub.w	r1, r1, r4, lsl #20
    5fd6:	f501 1180 	add.w	r1, r1, #1048576	; 0x100000
    5fda:	0849      	lsrs	r1, r1, #1
    5fdc:	eb01 5104 	add.w	r1, r1, r4, lsl #20
    5fe0:	e8bd 4010 	ldmia.w	sp!, {r4, lr}
    5fe4:	ea5f 0030 	movs.w	r0, r0, rrx
    5fe8:	d30c      	bcc.n	0x6004
    5fea:	f150 0000 	adcs.w	r0, r0, #0
    5fee:	bf38      	it	cc
    5ff0:	fa12 fc0c 	lslscc.w	ip, r2, ip
    5ff4:	d106      	bne.n	0x6004
    5ff6:	e7c9      	b.n	0x5f8c
    5ff8:	1c40      	adds	r0, r0, #1
    5ffa:	bf38      	it	cc
    5ffc:	ea5f 0242 	movscc.w	r2, r2, lsl #1
    6000:	d1ca      	bne.n	0x5f98
    6002:	e7c3      	b.n	0x5f8c
    6004:	ea4f 0341 	mov.w	r3, r1, lsl #1
    6008:	f513 1f00 	cmn.w	r3, #2097152	; 0x200000
    600c:	bf38      	it	cc
    600e:	4770      	bxcc	lr
    6010:	f1a1 41c0 	sub.w	r1, r1, #1610612736	; 0x60000000
    6014:	f000 bbe6 	b.w	0x67e4
    6018:	ea9c 5f44 	teq	ip, r4, lsl #21
    601c:	d008      	beq.n	0x6030
    601e:	e8bd 4010 	ldmia.w	sp!, {r4, lr}
    6022:	ea11 0f5c 	tst.w	r1, ip, lsr #1
    6026:	bf04      	itt	eq
    6028:	f001 4100 	andeq.w	r1, r1, #2147483648	; 0x80000000
    602c:	2000      	moveq	r0, #0
    602e:	4770      	bx	lr
    6030:	e8bd 4010 	ldmia.w	sp!, {r4, lr}
    6034:	b570      	push	{r4, r5, r6, lr}
    6036:	f000 fadf 	bl	0x65f8
    603a:	bf00      	nop
    603c:	fb64 3ebe 			; <UNDEFINED> instruction: 0xfb643ebe
    6040:	0000      	movs	r0, r0
    6042:	ffe0 4902 			; <UNDEFINED> instruction: 0xffe04902
    6046:	f04f 0000 	mov.w	r0, #0
    604a:	f001 b95e 	b.w	0x730a
    604e:	bf00      	nop
    6050:	0000      	movs	r0, r0
    6052:	7ff8      	ldrb	r0, [r7, #31]
    6054:	1049      	asrs	r1, r1, #1
    6056:	bf58      	it	pl
    6058:	f1c1 4140 	rsbpl	r1, r1, #3221225472	; 0xc0000000
    605c:	105b      	asrs	r3, r3, #1
    605e:	bf58      	it	pl
    6060:	f1c3 4340 	rsbpl	r3, r3, #3221225472	; 0xc0000000
    6064:	428b      	cmp	r3, r1
    6066:	f3ef 8000 	mrs	r0, CPSR
    606a:	4770      	bx	lr
    606c:	e92d 41c0 	stmdb	sp!, {r6, r7, r8, lr}
    6070:	b430      	push	{r4, r5}
    6072:	f8df c2a0 	ldr.w	ip, [pc, #672]	; 0x6314
    6076:	ea3c 1411 	bics.w	r4, ip, r1, lsr #4
    607a:	bf18      	it	ne
    607c:	ea3c 1413 	bicsne.w	r4, ip, r3, lsr #4
    6080:	f000 80ec 	beq.w	0x625c
    6084:	ea81 0503 	eor.w	r5, r1, r3
    6088:	ea1c 1411 	ands.w	r4, ip, r1, lsr #4
    608c:	ea44 74d5 	orr.w	r4, r4, r5, lsr #31
    6090:	bf18      	it	ne
    6092:	ea1c 1513 	andsne.w	r5, ip, r3, lsr #4
    6096:	f000 80c7 	beq.w	0x6228
    609a:	eba4 0405 	sub.w	r4, r4, r5
    609e:	f04f 4500 	mov.w	r5, #2147483648	; 0x80000000
    60a2:	ea45 21c1 	orr.w	r1, r5, r1, lsl #11
    60a6:	ea45 23c3 	orr.w	r3, r5, r3, lsl #11
    60aa:	ea41 5150 	orr.w	r1, r1, r0, lsr #21
    60ae:	ea43 5352 	orr.w	r3, r3, r2, lsr #21
    60b2:	f104 747f 	add.w	r4, r4, #66846720	; 0x3fc0000
    60b6:	4299      	cmp	r1, r3
    60b8:	f504 3400 	add.w	r4, r4, #131072	; 0x20000
    60bc:	ea4f 20c0 	mov.w	r0, r0, lsl #11
    60c0:	ea4f 22c2 	mov.w	r2, r2, lsl #11
    60c4:	bf08      	it	eq
    60c6:	4290      	cmpeq	r0, r2
    60c8:	f000 809c 	beq.w	0x6204
    60cc:	ea4f 6513 	mov.w	r5, r3, lsr #24
    60d0:	f20f 1640 	addw	r6, pc, #320	; 0x140
    60d4:	5d76      	ldrb	r6, [r6, r5]
    60d6:	ea4f 4513 	mov.w	r5, r3, lsr #16
    60da:	fb06 f705 	mul.w	r7, r6, r5
    60de:	f1c7 7780 	rsb	r7, r7, #16777216	; 0x1000000
    60e2:	fb06 f707 	mul.w	r7, r6, r7
    60e6:	ea4f 37d7 	mov.w	r7, r7, lsr #15
    60ea:	fba7 6803 	umull	r6, r8, r7, r3
    60ee:	4276      	negs	r6, r6
    60f0:	f5c8 3880 	rsb	r8, r8, #65536	; 0x10000
    60f4:	fba7 ce06 	umull	ip, lr, r7, r6
    60f8:	bf38      	it	cc
    60fa:	f1a8 0801 	subcc.w	r8, r8, #1
    60fe:	fb07 e608 	mla	r6, r7, r8, lr
    6102:	f04f 0e00 	mov.w	lr, #0
    6106:	fba6 8c02 	umull	r8, ip, r6, r2
    610a:	fbe6 ce03 	umlal	ip, lr, r6, r3
    610e:	f1dc 0c00 	rsbs	ip, ip, #0
    6112:	f1ce 4e00 	rsb	lr, lr, #2147483648	; 0x80000000
    6116:	bf38      	it	cc
    6118:	f1ae 0e01 	subcc.w	lr, lr, #1
    611c:	fba6 580c 	umull	r5, r8, r6, ip
    6120:	f04f 0700 	mov.w	r7, #0
    6124:	f04f 0500 	mov.w	r5, #0
    6128:	fbe6 870e 	umlal	r8, r7, r6, lr
    612c:	fba1 c608 	umull	ip, r6, r1, r8
    6130:	fba0 ce07 	umull	ip, lr, r0, r7
    6134:	eb16 060e 	adds.w	r6, r6, lr
    6138:	f145 0500 	adc.w	r5, r5, #0
    613c:	fbe1 6507 	umlal	r6, r5, r1, r7
    6140:	f115 4ee0 	adds.w	lr, r5, #1879048192	; 0x70000000
    6144:	bf7e      	ittt	vc
    6146:	f5a4 3480 	subvc.w	r4, r4, #65536	; 0x10000
    614a:	ea5f 0646 	movsvc.w	r6, r6, lsl #1
    614e:	416d      	adcvc	r5, r5
    6150:	f116 0780 	adds.w	r7, r6, #128	; 0x80
    6154:	f145 0500 	adc.w	r5, r5, #0
    6158:	ea4f 2717 	mov.w	r7, r7, lsr #8
    615c:	ea4f 6606 	mov.w	r6, r6, lsl #24
    6160:	ea47 6705 	orr.w	r7, r7, r5, lsl #24
    6164:	f1a6 46de 	sub.w	r6, r6, #1862270976	; 0x6f000000
    6168:	f1b6 5f80 	cmp.w	r6, #268435456	; 0x10000000
    616c:	ea4f 2515 	mov.w	r5, r5, lsr #8
    6170:	d91f      	bls.n	0x61b2
    6172:	4638      	mov	r0, r7
    6174:	f024 0c01 	bic.w	ip, r4, #1
    6178:	eb05 71c4 	add.w	r1, r5, r4, lsl #31
    617c:	f1bc 6ffe 	cmp.w	ip, #133169152	; 0x7f00000
    6180:	eb01 110c 	add.w	r1, r1, ip, lsl #4
    6184:	d802      	bhi.n	0x618c
    6186:	bcf0      	pop	{r4, r5, r6, r7}
    6188:	e8bd 8100 	ldmia.w	sp!, {r8, pc}
    618c:	4224      	tst	r4, r4
    618e:	bf5c      	itt	pl
    6190:	f501 1e80 	addpl.w	lr, r1, #1048576	; 0x100000
    6194:	ea9e 7fc4 	teqpl	lr, r4, lsl #31
    6198:	d402      	bmi.n	0x61a0
    619a:	bcf0      	pop	{r4, r5, r6, r7}
    619c:	e8bd 8100 	ldmia.w	sp!, {r8, pc}
    61a0:	4224      	tst	r4, r4
    61a2:	d438      	bmi.n	0x6216
    61a4:	bcf0      	pop	{r4, r5, r6, r7}
    61a6:	f1a1 41c0 	sub.w	r1, r1, #1610612736	; 0x60000000
    61aa:	e8bd 4100 	ldmia.w	sp!, {r8, lr}
    61ae:	f000 bb19 	b.w	0x67e4
    61b2:	ea4f 22d2 	mov.w	r2, r2, lsr #11
    61b6:	ea42 5243 	orr.w	r2, r2, r3, lsl #21
    61ba:	ea4f 23d3 	mov.w	r3, r3, lsr #11
    61be:	fba7 8602 	umull	r8, r6, r7, r2
    61c2:	ea4f 20d0 	mov.w	r0, r0, lsr #11
    61c6:	ea40 5041 	orr.w	r0, r0, r1, lsl #21
    61ca:	fb07 6603 	mla	r6, r7, r3, r6
    61ce:	ea1e 0f0e 	tst.w	lr, lr
    61d2:	ea4f 21d1 	mov.w	r1, r1, lsr #11
    61d6:	fb05 6602 	mla	r6, r5, r2, r6
    61da:	bf58      	it	pl
    61dc:	eba6 5600 	subpl.w	r6, r6, r0, lsl #20
    61e0:	ebb6 5600 	subs.w	r6, r6, r0, lsl #20
    61e4:	ea4f 0e52 	mov.w	lr, r2, lsr #1
    61e8:	ea4e 7ec3 	orr.w	lr, lr, r3, lsl #31
    61ec:	eb18 0e0e 	adds.w	lr, r8, lr
    61f0:	eb56 0e53 	adcs.w	lr, r6, r3, lsr #1
    61f4:	d5bd      	bpl.n	0x6172
    61f6:	eb18 0802 	adds.w	r8, r8, r2
    61fa:	415e      	adcs	r6, r3
    61fc:	1c7f      	adds	r7, r7, #1
    61fe:	f155 0500 	adcs.w	r5, r5, #0
    6202:	e7b6      	b.n	0x6172
    6204:	f44f 1580 	mov.w	r5, #1048576	; 0x100000
    6208:	f04f 0700 	mov.w	r7, #0
    620c:	f04f 0600 	mov.w	r6, #0
    6210:	f04f 0800 	mov.w	r8, #0
    6214:	e7ad      	b.n	0x6172
    6216:	bcf0      	pop	{r4, r5, r6, r7}
    6218:	f04f 0000 	mov.w	r0, #0
    621c:	f101 41c0 	add.w	r1, r1, #1610612736	; 0x60000000
    6220:	f001 4100 	and.w	r1, r1, #2147483648	; 0x80000000
    6224:	e8bd 8100 	ldmia.w	sp!, {r8, pc}
    6228:	ea11 1f0c 	tst.w	r1, ip, lsl #4
    622c:	ea0c 1513 	and.w	r5, ip, r3, lsr #4
    6230:	d000      	beq.n	0x6234
    6232:	e00c      	b.n	0x624e
    6234:	ea13 1f0c 	tst.w	r3, ip, lsl #4
    6238:	f000 8025 	beq.w	0x6286
    623c:	f04f 0000 	mov.w	r0, #0
    6240:	bcf0      	pop	{r4, r5, r6, r7}
    6242:	ea81 0103 	eor.w	r1, r1, r3
    6246:	f001 4100 	and.w	r1, r1, #2147483648	; 0x80000000
    624a:	e8bd 8100 	ldmia.w	sp!, {r8, pc}
    624e:	bcf0      	pop	{r4, r5, r6, r7}
    6250:	e8bd 4100 	ldmia.w	sp!, {r8, lr}
    6254:	ea81 0103 	eor.w	r1, r1, r3
    6258:	f000 bac4 	b.w	0x67e4
    625c:	bcf0      	pop	{r4, r5, r6, r7}
    625e:	e8bd 4100 	ldmia.w	sp!, {r8, lr}
    6262:	b570      	push	{r4, r5, r6, lr}
    6264:	f000 f9c8 	bl	0x65f8
    6268:	7e09      	ldrb	r1, [r1, #24]
    626a:	3efc      	subs	r6, #252	; 0xfc
    626c:	f000 b807 	b.w	0x627e
    6270:	ea81 0103 	eor.w	r1, r1, r3
    6274:	f04f 0000 	mov.w	r0, #0
    6278:	f001 4100 	and.w	r1, r1, #2147483648	; 0x80000000
    627c:	4770      	bx	lr
    627e:	ea81 0103 	eor.w	r1, r1, r3
    6282:	f000 baaf 	b.w	0x67e4
    6286:	bcf0      	pop	{r4, r5, r6, r7}
    6288:	e8bd 4100 	ldmia.w	sp!, {r8, lr}
    628c:	f04f 0000 	mov.w	r0, #0
    6290:	4921      	ldr	r1, [pc, #132]	; (0x6318)
    6292:	4770      	bx	lr
    6294:	fdff f9fb 	ldc2l	9, cr15, [pc, #502]!	; 0x648e	; <UNPREDICTABLE>
    6298:	f5f7 f2f4 	bl	0xff9fd884
    629c:	eef0 ebed 	vabs.f64	d30, d29
    62a0:	e8e9 e4e6 	strd	lr, r4, [r9], #920	; 0x398
    62a4:	e1e3      	b.n	0x666e
    62a6:	dee0      	udf	#224	; 0xe0
    62a8:	dbdd      	blt.n	0x6266
    62aa:	d8da      	bhi.n	0x6262
    62ac:	d5d7      	bpl.n	0x625e
    62ae:	d3d4      	bcc.n	0x625a
    62b0:	d0d1      	beq.n	0x6256
    62b2:	cdcf      	ldmia	r5!, {r0, r1, r2, r3, r6, r7}
    62b4:	cbcc      	ldmia	r3, {r2, r3, r6, r7}
    62b6:	c8ca      	ldmia	r0!, {r1, r3, r6, r7}
    62b8:	c6c7      	stmia	r6!, {r0, r1, r2, r6, r7}
    62ba:	c4c5      	stmia	r4!, {r0, r2, r6, r7}
    62bc:	c1c2      	stmia	r1!, {r1, r6, r7}
    62be:	bfc0      	nop	{12}
    62c0:	bdbe      	pop	{r1, r2, r3, r4, r5, r7, pc}
    62c2:	bbbc      	cbnz	r4, 0x6334
    62c4:	b9ba      	cbnz	r2, 0x62f6
    62c6:	b7b8      			; <UNDEFINED> instruction: 0xb7b8
    62c8:	b5b6      	push	{r1, r2, r4, r5, r7, lr}
    62ca:	b3b4      	cbz	r4, 0x633a
    62cc:	b1b2      	cbz	r2, 0x62fc
    62ce:	afb0      	add	r7, sp, #704	; 0x2c0
    62d0:	adae      	add	r5, sp, #696	; 0x2b8
    62d2:	abac      	add	r3, sp, #688	; 0x2b0
    62d4:	a9aa      	add	r1, sp, #680	; 0x2a8
    62d6:	a8a8      	add	r0, sp, #672	; 0x2a0
    62d8:	a6a7      	add	r6, pc, #668	; (adr r6, 0x6578)
    62da:	a4a5      	add	r4, pc, #660	; (adr r4, 0x6570)
    62dc:	a3a3      	add	r3, pc, #652	; (adr r3, 0x656c)
    62de:	a1a2      	add	r1, pc, #648	; (adr r1, 0x6568)
    62e0:	9fa0      	ldr	r7, [sp, #640]	; 0x280
    62e2:	9e9f      	ldr	r6, [sp, #636]	; 0x27c
    62e4:	9c9d      	ldr	r4, [sp, #628]	; 0x274
    62e6:	9b9c      	ldr	r3, [sp, #624]	; 0x270
    62e8:	999a      	ldr	r1, [sp, #616]	; 0x268
    62ea:	9899      	ldr	r0, [sp, #612]	; 0x264
    62ec:	9797      	str	r7, [sp, #604]	; 0x25c
    62ee:	9596      	str	r5, [sp, #600]	; 0x258
    62f0:	9495      	str	r4, [sp, #596]	; 0x254
    62f2:	9393      	str	r3, [sp, #588]	; 0x24c
    62f4:	9192      	str	r1, [sp, #584]	; 0x248
    62f6:	9091      	str	r0, [sp, #580]	; 0x244
    62f8:	8f8f      	ldrh	r7, [r1, #60]	; 0x3c
    62fa:	8e8e      	ldrh	r6, [r1, #52]	; 0x34
    62fc:	8c8d      	ldrh	r5, [r1, #36]	; 0x24
    62fe:	8b8c      	ldrh	r4, [r1, #28]
    6300:	8a8b      	ldrh	r3, [r1, #20]
    6302:	8989      	ldrh	r1, [r1, #12]
    6304:	8888      	ldrh	r0, [r1, #4]
    6306:	8787      	strh	r7, [r0, #60]	; 0x3c
    6308:	8586      	strh	r6, [r0, #44]	; 0x2c
    630a:	8485      	strh	r5, [r0, #36]	; 0x24
    630c:	8384      	strh	r4, [r0, #28]
    630e:	8283      	strh	r3, [r0, #20]
    6310:	8182      	strh	r2, [r0, #12]
    6312:	8081      	strh	r1, [r0, #4]
    6314:	0000      	movs	r0, r0
    6316:	07ff      	lsls	r7, r7, #31
    6318:	0000      	movs	r0, r0
    631a:	7ff8      	ldrb	r0, [r7, #31]
    631c:	ea4f 0341 	mov.w	r3, r1, lsl #1
    6320:	ea4f 5353 	mov.w	r3, r3, lsr #21
    6324:	f5a3 6380 	sub.w	r3, r3, #1024	; 0x400
    6328:	f1d3 031e 	rsbs	r3, r3, #30
    632c:	bfc8      	it	gt
    632e:	f1d3 0c21 	rsbsgt	ip, r3, #33	; 0x21
    6332:	dd0c      	ble.n	0x634e
    6334:	f04f 4200 	mov.w	r2, #2147483648	; 0x80000000
    6338:	ea42 22c1 	orr.w	r2, r2, r1, lsl #11
    633c:	ea42 5250 	orr.w	r2, r2, r0, lsr #21
    6340:	fa32 fc03 	lsrs.w	ip, r2, r3
    6344:	ea8c 7ce1 	eor.w	ip, ip, r1, asr #31
    6348:	ebac 70e1 	sub.w	r0, ip, r1, asr #31
    634c:	4770      	bx	lr
    634e:	2b10      	cmp	r3, #16
    6350:	bfc4      	itt	gt
    6352:	2000      	movgt	r0, #0
    6354:	4770      	bxgt	lr
    6356:	f503 7c78 	add.w	ip, r3, #992	; 0x3e0
    635a:	f1bc 3fff 	cmp.w	ip, #4294967295	; 0xffffffff
    635e:	d004      	beq.n	0x636a
    6360:	f06f 4200 	mvn.w	r2, #2147483648	; 0x80000000
    6364:	ea82 0021 	eor.w	r0, r2, r1, asr #32
    6368:	4770      	bx	lr
    636a:	b570      	push	{r4, r5, r6, lr}
    636c:	f000 f944 	bl	0x65f8
    6370:	9249      	str	r2, [sp, #292]	; 0x124
    6372:	8024      	strh	r4, [r4, #0]
    6374:	2000      	movs	r0, #0
    6376:	4770      	bx	lr
    6378:	e7f2      	b.n	0x6360
    637a:	0000      	movs	r0, r0
    637c:	ea4f 5311 	mov.w	r3, r1, lsr #20
    6380:	f5a3 6380 	sub.w	r3, r3, #1024	; 0x400
    6384:	f1d3 031e 	rsbs	r3, r3, #30
    6388:	bfa8      	it	ge
    638a:	f1d3 0c20 	rsbsge	ip, r3, #32
    638e:	db08      	blt.n	0x63a2
    6390:	f04f 4200 	mov.w	r2, #2147483648	; 0x80000000
    6394:	ea42 22c1 	orr.w	r2, r2, r1, lsl #11
    6398:	ea52 5250 	orrs.w	r2, r2, r0, lsr #21
    639c:	fa32 f003 	lsrs.w	r0, r2, r3
    63a0:	4770      	bx	lr
    63a2:	4209      	tst	r1, r1
    63a4:	d40b      	bmi.n	0x63be
    63a6:	2b10      	cmp	r3, #16
    63a8:	bfc4      	itt	gt
    63aa:	2000      	movgt	r0, #0
    63ac:	4770      	bxgt	lr
    63ae:	f503 7c78 	add.w	ip, r3, #992	; 0x3e0
    63b2:	f1bc 3fff 	cmp.w	ip, #4294967295	; 0xffffffff
    63b6:	d005      	beq.n	0x63c4
    63b8:	f04f 30ff 	mov.w	r0, #4294967295	; 0xffffffff
    63bc:	4770      	bx	lr
    63be:	f04f 0000 	mov.w	r0, #0
    63c2:	4770      	bx	lr
    63c4:	b570      	push	{r4, r5, r6, lr}
    63c6:	f000 f917 	bl	0x65f8
    63ca:	bf00      	nop
    63cc:	9249      	str	r2, [sp, #292]	; 0x124
    63ce:	8024      	strh	r4, [r4, #0]
    63d0:	2000      	movs	r0, #0
    63d2:	4770      	bx	lr
    63d4:	e7f0      	b.n	0x63b8
    63d6:	f010 4200 	ands.w	r2, r0, #2147483648	; 0x80000000
    63da:	bf48      	it	mi
    63dc:	4240      	negmi	r0, r0
    63de:	fab0 f380 	clz	r3, r0
    63e2:	fa10 f103 	lsls.w	r1, r0, r3
    63e6:	d00a      	beq.n	0x63fe
    63e8:	f1c3 031d 	rsb	r3, r3, #29
    63ec:	f503 6380 	add.w	r3, r3, #1024	; 0x400
    63f0:	ea4f 5041 	mov.w	r0, r1, lsl #21
    63f4:	eb02 5203 	add.w	r2, r2, r3, lsl #20
    63f8:	eb02 21d1 	add.w	r1, r2, r1, lsr #11
    63fc:	4770      	bx	lr
    63fe:	f04f 0000 	mov.w	r0, #0
    6402:	4770      	bx	lr
    6404:	fab0 f380 	clz	r3, r0
    6408:	fa10 f103 	lsls.w	r1, r0, r3
    640c:	d00a      	beq.n	0x6424
    640e:	f1c3 031d 	rsb	r3, r3, #29
    6412:	f503 6380 	add.w	r3, r3, #1024	; 0x400
    6416:	ea4f 5041 	mov.w	r0, r1, lsl #21
    641a:	ea4f 5203 	mov.w	r2, r3, lsl #20
    641e:	eb02 21d1 	add.w	r1, r2, r1, lsr #11
    6422:	4770      	bx	lr
    6424:	f04f 0000 	mov.w	r0, #0
    6428:	4770      	bx	lr
    642a:	0000      	movs	r0, r0
    642c:	ea51 0c03 	orrs.w	ip, r1, r3
    6430:	d417      	bmi.n	0x6462
    6432:	f51c 1f80 	cmn.w	ip, #1048576	; 0x100000
    6436:	bf58      	it	pl
    6438:	f5bc 1f80 	cmppl.w	ip, #1048576	; 0x100000
    643c:	f100 8006 	bmi.w	0x644c
    6440:	4299      	cmp	r1, r3
    6442:	bf18      	it	ne
    6444:	4770      	bxne	lr
    6446:	bf08      	it	eq
    6448:	4290      	cmpeq	r0, r2
    644a:	4770      	bx	lr
    644c:	d707      	bvc.n	0x645e
    644e:	f511 1f80 	cmn.w	r1, #1048576	; 0x100000
    6452:	bf58      	it	pl
    6454:	f513 1f80 	cmnpl.w	r3, #1048576	; 0x100000
    6458:	d419      	bmi.n	0x648e
    645a:	4299      	cmp	r1, r3
    645c:	4770      	bx	lr
    645e:	4289      	cmp	r1, r1
    6460:	4770      	bx	lr
    6462:	f51c 1f80 	cmn.w	ip, #1048576	; 0x100000
    6466:	d508      	bpl.n	0x647a
    6468:	f5bc 1f80 	cmp.w	ip, #1048576	; 0x100000
    646c:	d5f7      	bpl.n	0x645e
    646e:	428b      	cmp	r3, r1
    6470:	bf18      	it	ne
    6472:	4770      	bxne	lr
    6474:	bf08      	it	eq
    6476:	4282      	cmpeq	r2, r0
    6478:	4770      	bx	lr
    647a:	f44f 1c00 	mov.w	ip, #2097152	; 0x200000
    647e:	eb1c 0f41 	cmn.w	ip, r1, lsl #1
    6482:	bf38      	it	cc
    6484:	eb1c 0f43 	cmncc.w	ip, r3, lsl #1
    6488:	d201      	bcs.n	0x648e
    648a:	428b      	cmp	r3, r1
    648c:	4770      	bx	lr
    648e:	b570      	push	{r4, r5, r6, lr}
    6490:	f000 f8b2 	bl	0x65f8
    6494:	2492      	movs	r4, #146	; 0x92
    6496:	0049      	lsls	r1, r1, #1
    6498:	f04f 5100 	mov.w	r1, #536870912	; 0x20000000
    649c:	f04f 5380 	mov.w	r3, #268435456	; 0x10000000
    64a0:	f7ff bdd8 	b.w	0x6054
    64a4:	f8df c148 	ldr.w	ip, [pc, #328]	; 0x65f0
    64a8:	b570      	push	{r4, r5, r6, lr}
    64aa:	ea1c 1e11 	ands.w	lr, ip, r1, lsr #4
    64ae:	bf1e      	ittt	ne
    64b0:	ea1c 1513 	andsne.w	r5, ip, r3, lsr #4
    64b4:	ea9e 0f0c 	teqne	lr, ip
    64b8:	ea95 0f0c 	teqne	r5, ip
    64bc:	f000 806f 	beq.w	0x659e
    64c0:	ea81 0403 	eor.w	r4, r1, r3
    64c4:	ea23 134c 	bic.w	r3, r3, ip, lsl #5
    64c8:	ea4e 7ed4 	orr.w	lr, lr, r4, lsr #31
    64cc:	ea21 114c 	bic.w	r1, r1, ip, lsl #5
    64d0:	f441 1180 	orr.w	r1, r1, #1048576	; 0x100000
    64d4:	f443 1380 	orr.w	r3, r3, #1048576	; 0x100000
    64d8:	44ae      	add	lr, r5
    64da:	fba1 4c02 	umull	r4, ip, r1, r2
    64de:	fba0 6503 	umull	r6, r5, r0, r3
    64e2:	f1ae 7e7f 	sub.w	lr, lr, #66846720	; 0x3fc0000
    64e6:	1936      	adds	r6, r6, r4
    64e8:	eb55 050c 	adcs.w	r5, r5, ip
    64ec:	fba1 4c03 	umull	r4, ip, r1, r3
    64f0:	f14c 0300 	adc.w	r3, ip, #0
    64f4:	fba0 1c02 	umull	r1, ip, r0, r2
    64f8:	eb16 060c 	adds.w	r6, r6, ip
    64fc:	4165      	adcs	r5, r4
    64fe:	f153 0300 	adcs.w	r3, r3, #0
    6502:	4209      	tst	r1, r1
    6504:	bf18      	it	ne
    6506:	f046 0601 	orrne.w	r6, r6, #1
    650a:	f413 7f00 	tst.w	r3, #512	; 0x200
    650e:	d10b      	bne.n	0x6528
    6510:	ea4f 3103 	mov.w	r1, r3, lsl #12
    6514:	ea4f 3005 	mov.w	r0, r5, lsl #12
    6518:	0334      	lsls	r4, r6, #12
    651a:	ea41 5115 	orr.w	r1, r1, r5, lsr #20
    651e:	ea40 5016 	orr.w	r0, r0, r6, lsr #20
    6522:	f06f 0203 	mvn.w	r2, #3
    6526:	e00a      	b.n	0x653e
    6528:	ea4f 21c3 	mov.w	r1, r3, lsl #11
    652c:	ea4f 20c5 	mov.w	r0, r5, lsl #11
    6530:	02f4      	lsls	r4, r6, #11
    6532:	ea41 5155 	orr.w	r1, r1, r5, lsr #21
    6536:	ea40 5056 	orr.w	r0, r0, r6, lsr #21
    653a:	f06f 0202 	mvn.w	r2, #2
    653e:	eb02 422e 	add.w	r2, r2, lr, asr #16
    6542:	eb01 5502 	add.w	r5, r1, r2, lsl #20
    6546:	ea85 71ce 	eor.w	r1, r5, lr, lsl #31
    654a:	d00a      	beq.n	0x6562
    654c:	ea5f 0c44 	movs.w	ip, r4, lsl #1
    6550:	bf18      	it	ne
    6552:	f024 4400 	bicne.w	r4, r4, #2147483648	; 0x80000000
    6556:	f150 0000 	adcs.w	r0, r0, #0
    655a:	f141 0100 	adc.w	r1, r1, #0
    655e:	ea20 70d4 	bic.w	r0, r0, r4, lsr #31
    6562:	f240 7cfe 	movw	ip, #2046	; 0x7fe
    6566:	4562      	cmp	r2, ip
    6568:	d200      	bcs.n	0x656c
    656a:	bd70      	pop	{r4, r5, r6, pc}
    656c:	42a8      	cmp	r0, r5
    656e:	bf14      	ite	ne
    6570:	f04f 4480 	movne.w	r4, #1073741824	; 0x40000000
    6574:	f04f 4440 	moveq.w	r4, #3221225472	; 0xc0000000
    6578:	2e00      	cmp	r6, #0
    657a:	bf08      	it	eq
    657c:	2400      	moveq	r4, #0
    657e:	f1be 6f80 	cmp.w	lr, #67108864	; 0x4000000
    6582:	bfa8      	it	ge
    6584:	f1a1 41c0 	subge.w	r1, r1, #1610612736	; 0x60000000
    6588:	e8bd 4070 	ldmia.w	sp!, {r4, r5, r6, lr}
    658c:	f280 812a 	bge.w	0x67e4
    6590:	f04f 0000 	mov.w	r0, #0
    6594:	f101 41c0 	add.w	r1, r1, #1610612736	; 0x60000000
    6598:	f001 4100 	and.w	r1, r1, #2147483648	; 0x80000000
    659c:	4770      	bx	lr
    659e:	ea9e 0f0c 	teq	lr, ip
    65a2:	ea0c 1513 	and.w	r5, ip, r3, lsr #4
    65a6:	bf18      	it	ne
    65a8:	ea95 0f0c 	teqne	r5, ip
    65ac:	d006      	beq.n	0x65bc
    65ae:	f04f 0000 	mov.w	r0, #0
    65b2:	ea81 0e03 	eor.w	lr, r1, r3
    65b6:	f00e 4100 	and.w	r1, lr, #2147483648	; 0x80000000
    65ba:	bd70      	pop	{r4, r5, r6, pc}
    65bc:	f000 f81c 	bl	0x65f8
    65c0:	0089      	lsls	r1, r1, #2
    65c2:	3e01      	subs	r6, #1
    65c4:	f000 b807 	b.w	0x65d6
    65c8:	f000 b809 	b.w	0x65de
    65cc:	ea4f 0c43 	mov.w	ip, r3, lsl #1
    65d0:	ea5f 5c5c 	movs.w	ip, ip, lsr #21
    65d4:	d008      	beq.n	0x65e8
    65d6:	ea81 0103 	eor.w	r1, r1, r3
    65da:	f000 b903 	b.w	0x67e4
    65de:	ea4f 0c41 	mov.w	ip, r1, lsl #1
    65e2:	ea5f 5c5c 	movs.w	ip, ip, lsr #21
    65e6:	d1f6      	bne.n	0x65d6
    65e8:	f04f 0000 	mov.w	r0, #0
    65ec:	4901      	ldr	r1, [pc, #4]	; (0x65f4)
    65ee:	4770      	bx	lr
    65f0:	0000      	movs	r0, r0
    65f2:	07ff      	lsls	r7, r7, #31
    65f4:	0000      	movs	r0, r0
    65f6:	7ff8      	ldrb	r0, [r7, #31]
    65f8:	f10e 0e02 	add.w	lr, lr, #2
    65fc:	f02e 0e03 	bic.w	lr, lr, #3
    6600:	f85e 6b04 	ldr.w	r6, [lr], #4
    6604:	4236      	tst	r6, r6
    6606:	d405      	bmi.n	0x6614
    6608:	2a01      	cmp	r2, #1
    660a:	eb43 0503 	adc.w	r5, r3, r3
    660e:	f515 1f00 	cmn.w	r5, #2097152	; 0x200000
    6612:	d812      	bhi.n	0x663a
    6614:	2801      	cmp	r0, #1
    6616:	eb41 0c01 	adc.w	ip, r1, r1
    661a:	f51c 1f00 	cmn.w	ip, #2097152	; 0x200000
    661e:	d80c      	bhi.n	0x663a
    6620:	d10e      	bne.n	0x6640
    6622:	ea4f 7cd1 	mov.w	ip, r1, lsr #31
    6626:	f515 1f00 	cmn.w	r5, #2097152	; 0x200000
    662a:	eb0c 0c4c 	add.w	ip, ip, ip, lsl #1
    662e:	f10c 0c02 	add.w	ip, ip, #2
    6632:	bf08      	it	eq
    6634:	eb4c 7cd3 	adceq.w	ip, ip, r3, lsr #31
    6638:	e004      	b.n	0x6644
    663a:	f04f 0c08 	mov.w	ip, #8
    663e:	e001      	b.n	0x6644
    6640:	ea4f 7cd3 	mov.w	ip, r3, lsr #31
    6644:	eb0c 054c 	add.w	r5, ip, ip, lsl #1
    6648:	fa26 f605 	lsr.w	r6, r6, r5
    664c:	f006 0607 	and.w	r6, r6, #7
    6650:	f1b6 0c04 	subs.w	ip, r6, #4
    6654:	d206      	bcs.n	0x6664
    6656:	eb0e 0c86 	add.w	ip, lr, r6, lsl #2
    665a:	e8bd 4070 	ldmia.w	sp!, {r4, r5, r6, lr}
    665e:	f04c 0c01 	orr.w	ip, ip, #1
    6662:	4760      	bx	ip
    6664:	e8df f00c 	tbb	[pc, ip]
    6668:	0b09      	lsrs	r1, r1, #12
    666a:	0202      	lsls	r2, r0, #8
    666c:	f04f 4100 	mov.w	r1, #2147483648	; 0x80000000
    6670:	f04f 0000 	mov.w	r0, #0
    6674:	f5a1 2100 	sub.w	r1, r1, #524288	; 0x80000
    6678:	bd70      	pop	{r4, r5, r6, pc}
    667a:	4619      	mov	r1, r3
    667c:	4610      	mov	r0, r2
    667e:	2801      	cmp	r0, #1
    6680:	eb51 0401 	adcs.w	r4, r1, r1
    6684:	bf18      	it	ne
    6686:	f5d4 1400 	rsbsne	r4, r4, #2097152	; 0x200000
    668a:	bf84      	itt	hi
    668c:	2000      	movhi	r0, #0
    668e:	f001 4100 	andhi.w	r1, r1, #2147483648	; 0x80000000
    6692:	bd70      	pop	{r4, r5, r6, pc}
    6694:	f8df c144 	ldr.w	ip, [pc, #324]	; 0x67dc
    6698:	b570      	push	{r4, r5, r6, lr}
    669a:	ea3c 1411 	bics.w	r4, ip, r1, lsr #4
    669e:	bf18      	it	ne
    66a0:	ea3c 1513 	bicsne.w	r5, ip, r3, lsr #4
    66a4:	f000 808f 	beq.w	0x67c6
    66a8:	f111 4f00 	cmn.w	r1, #2147483648	; 0x80000000
    66ac:	ea1c 1513 	ands.w	r5, ip, r3, lsr #4
    66b0:	ea0c 1411 	and.w	r4, ip, r1, lsr #4
    66b4:	bf68      	it	vs
    66b6:	f045 0505 	orrvs.w	r5, r5, #5
    66ba:	bf18      	it	ne
    66bc:	ea11 1f0c 	tstne.w	r1, ip, lsl #4
    66c0:	f000 8079 	beq.w	0x67b6
    66c4:	462e      	mov	r6, r5
    66c6:	ea21 114c 	bic.w	r1, r1, ip, lsl #5
    66ca:	ea23 134c 	bic.w	r3, r3, ip, lsl #5
    66ce:	f441 1180 	orr.w	r1, r1, #1048576	; 0x100000
    66d2:	f443 1380 	orr.w	r3, r3, #1048576	; 0x100000
    66d6:	f5a5 3580 	sub.w	r5, r5, #65536	; 0x10000
    66da:	42ac      	cmp	r4, r5
    66dc:	dd3d      	ble.n	0x675a
    66de:	1a80      	subs	r0, r0, r2
    66e0:	4199      	sbcs	r1, r3
    66e2:	f5a4 3680 	sub.w	r6, r4, #65536	; 0x10000
    66e6:	d509      	bpl.n	0x66fc
    66e8:	4240      	negs	r0, r0
    66ea:	f1c1 0100 	rsb	r1, r1, #0
    66ee:	bf34      	ite	cc
    66f0:	f1b1 0101 	subscc.w	r1, r1, #1
    66f4:	f1b1 0100 	subscs.w	r1, r1, #0
    66f8:	f085 0501 	eor.w	r5, r5, #1
    66fc:	f411 1ff0 	tst.w	r1, #1966080	; 0x1e0000
    6700:	d008      	beq.n	0x6714
    6702:	f411 1f80 	tst.w	r1, #1048576	; 0x100000
    6706:	d1e8      	bne.n	0x66da
    6708:	0040      	lsls	r0, r0, #1
    670a:	eb41 0101 	adc.w	r1, r1, r1
    670e:	f5a4 3480 	sub.w	r4, r4, #65536	; 0x10000
    6712:	e7f6      	b.n	0x6702
    6714:	f021 4100 	bic.w	r1, r1, #2147483648	; 0x80000000
    6718:	fab1 f681 	clz	r6, r1
    671c:	2e20      	cmp	r6, #32
    671e:	bf04      	itt	eq
    6720:	fab0 fe80 	clzeq	lr, r0
    6724:	f10e 0620 	addeq.w	r6, lr, #32
    6728:	f1a6 060b 	sub.w	r6, r6, #11
    672c:	f1b6 0e20 	subs.w	lr, r6, #32
    6730:	eba4 4406 	sub.w	r4, r4, r6, lsl #16
    6734:	d20c      	bcs.n	0x6750
    6736:	f1c6 0e20 	rsb	lr, r6, #32
    673a:	fa01 f106 	lsl.w	r1, r1, r6
    673e:	fa20 f60e 	lsr.w	r6, r0, lr
    6742:	ea41 0106 	orr.w	r1, r1, r6
    6746:	f1ce 0620 	rsb	r6, lr, #32
    674a:	fa00 f006 	lsl.w	r0, r0, r6
    674e:	e003      	b.n	0x6758
    6750:	fa00 f10e 	lsl.w	r1, r0, lr
    6754:	f04f 0000 	mov.w	r0, #0
    6758:	e7bf      	b.n	0x66da
    675a:	ea50 0e41 	orrs.w	lr, r0, r1, lsl #1
    675e:	d023      	beq.n	0x67a8
    6760:	ea4f 4e24 	mov.w	lr, r4, asr #16
    6764:	ebbe 4f25 	cmp.w	lr, r5, asr #16
    6768:	db0f      	blt.n	0x678a
    676a:	4299      	cmp	r1, r3
    676c:	bf08      	it	eq
    676e:	4290      	cmpeq	r0, r2
    6770:	d004      	beq.n	0x677c
    6772:	d30a      	bcc.n	0x678a
    6774:	0052      	lsls	r2, r2, #1
    6776:	eb43 0303 	adc.w	r3, r3, r3
    677a:	e7b0      	b.n	0x66de
    677c:	ea4f 4616 	mov.w	r6, r6, lsr #16
    6780:	ebb6 4f14 	cmp.w	r6, r4, lsr #16
    6784:	bf08      	it	eq
    6786:	f085 0501 	eoreq.w	r5, r5, #1
    678a:	f5b4 3480 	subs.w	r4, r4, #65536	; 0x10000
    678e:	eb01 1104 	add.w	r1, r1, r4, lsl #4
    6792:	ea81 71c5 	eor.w	r1, r1, r5, lsl #31
    6796:	db00      	blt.n	0x679a
    6798:	bd70      	pop	{r4, r5, r6, pc}
    679a:	f101 41c0 	add.w	r1, r1, #1610612736	; 0x60000000
    679e:	f04f 0000 	mov.w	r0, #0
    67a2:	f001 4100 	and.w	r1, r1, #2147483648	; 0x80000000
    67a6:	bd70      	pop	{r4, r5, r6, pc}
    67a8:	ea4f 7145 	mov.w	r1, r5, lsl #29
    67ac:	f04f 0000 	mov.w	r0, #0
    67b0:	f001 4100 	and.w	r1, r1, #2147483648	; 0x80000000
    67b4:	bd70      	pop	{r4, r5, r6, pc}
    67b6:	ea1c 1f13 	tst.w	ip, r3, lsr #4
    67ba:	d009      	beq.n	0x67d0
    67bc:	f04f 0000 	mov.w	r0, #0
    67c0:	f001 4100 	and.w	r1, r1, #2147483648	; 0x80000000
    67c4:	bd70      	pop	{r4, r5, r6, pc}
    67c6:	f7ff ff17 	bl	0x65f8
    67ca:	bf00      	nop
    67cc:	ffed 3eff 			; <UNDEFINED> instruction: 0xffed3eff
    67d0:	e8bd 4070 	ldmia.w	sp!, {r4, r5, r6, lr}
    67d4:	f04f 0000 	mov.w	r0, #0
    67d8:	4901      	ldr	r1, [pc, #4]	; (0x67e0)
    67da:	4770      	bx	lr
    67dc:	0000      	movs	r0, r0
    67de:	07ff      	lsls	r7, r7, #31
    67e0:	0000      	movs	r0, r0
    67e2:	7ff8      	ldrb	r0, [r7, #31]
    67e4:	0808      	lsrs	r0, r1, #32
    67e6:	f5a0 1100 	sub.w	r1, r0, #2097152	; 0x200000
    67ea:	ea4f 0131 	mov.w	r1, r1, rrx
    67ee:	4770      	bx	lr
    67f0:	ea53 0c01 	orrs.w	ip, r3, r1
    67f4:	d417      	bmi.n	0x6826
    67f6:	f51c 1f80 	cmn.w	ip, #1048576	; 0x100000
    67fa:	bf58      	it	pl
    67fc:	f5bc 1f80 	cmppl.w	ip, #1048576	; 0x100000
    6800:	f100 8006 	bmi.w	0x6810
    6804:	428b      	cmp	r3, r1
    6806:	bf18      	it	ne
    6808:	4770      	bxne	lr
    680a:	bf08      	it	eq
    680c:	4282      	cmpeq	r2, r0
    680e:	4770      	bx	lr
    6810:	d707      	bvc.n	0x6822
    6812:	f513 1f80 	cmn.w	r3, #1048576	; 0x100000
    6816:	bf58      	it	pl
    6818:	f511 1f80 	cmnpl.w	r1, #1048576	; 0x100000
    681c:	d419      	bmi.n	0x6852
    681e:	428b      	cmp	r3, r1
    6820:	4770      	bx	lr
    6822:	429b      	cmp	r3, r3
    6824:	4770      	bx	lr
    6826:	f51c 1f80 	cmn.w	ip, #1048576	; 0x100000
    682a:	d508      	bpl.n	0x683e
    682c:	f5bc 1f80 	cmp.w	ip, #1048576	; 0x100000
    6830:	d5f7      	bpl.n	0x6822
    6832:	4299      	cmp	r1, r3
    6834:	bf18      	it	ne
    6836:	4770      	bxne	lr
    6838:	bf08      	it	eq
    683a:	4290      	cmpeq	r0, r2
    683c:	4770      	bx	lr
    683e:	f44f 1c00 	mov.w	ip, #2097152	; 0x200000
    6842:	eb1c 0f43 	cmn.w	ip, r3, lsl #1
    6846:	bf38      	it	cc
    6848:	eb1c 0f41 	cmncc.w	ip, r1, lsl #1
    684c:	d201      	bcs.n	0x6852
    684e:	4299      	cmp	r1, r3
    6850:	4770      	bx	lr
    6852:	b40f      	push	{r0, r1, r2, r3}
    6854:	bc0c      	pop	{r2, r3}
    6856:	bc03      	pop	{r0, r1}
    6858:	f7ff be19 	b.w	0x648e
    685c:	ea91 0f03 	teq	r1, r3
    6860:	b510      	push	{r4, lr}
    6862:	f081 4100 	eor.w	r1, r1, #2147483648	; 0x80000000
    6866:	f53f ab4f 	bmi.w	0x5f08
    686a:	f083 4300 	eor.w	r3, r3, #2147483648	; 0x80000000
    686e:	f000 b8ef 	b.w	0x6a50
    6872:	0000      	movs	r0, r0
    6874:	e92d 41f0 	stmdb	sp!, {r4, r5, r6, r7, r8, lr}
    6878:	f501 1c80 	add.w	ip, r1, #1048576	; 0x100000
    687c:	f5bc 1f00 	cmp.w	ip, #2097152	; 0x200000
    6880:	f2c0 80c3 	blt.w	0x6a0a
    6884:	ea4f 5c11 	mov.w	ip, r1, lsr #20
    6888:	ea21 510c 	bic.w	r1, r1, ip, lsl #20
    688c:	f10c 0cfd 	add.w	ip, ip, #253	; 0xfd
    6890:	f441 1180 	orr.w	r1, r1, #1048576	; 0x100000
    6894:	ea5f 0c5c 	movs.w	ip, ip, lsr #1
    6898:	f50c 7cc0 	add.w	ip, ip, #384	; 0x180
    689c:	d301      	bcc.n	0x68a2
    689e:	0040      	lsls	r0, r0, #1
    68a0:	4149      	adcs	r1, r1
    68a2:	a43d      	add	r4, pc, #244	; (adr r4, 0x6998)
    68a4:	0289      	lsls	r1, r1, #10
    68a6:	ea41 5190 	orr.w	r1, r1, r0, lsr #22
    68aa:	0287      	lsls	r7, r0, #10
    68ac:	0e8e      	lsrs	r6, r1, #26
    68ae:	0c0a      	lsrs	r2, r1, #16
    68b0:	5da4      	ldrb	r4, [r4, r6]
    68b2:	fb04 f604 	mul.w	r6, r4, r4
    68b6:	fb02 f606 	mul.w	r6, r2, r6
    68ba:	f1c6 4640 	rsb	r6, r6, #3221225472	; 0xc0000000
    68be:	fba4 6206 	umull	r6, r2, r4, r6
    68c2:	0df6      	lsrs	r6, r6, #23
    68c4:	ea46 2642 	orr.w	r6, r6, r2, lsl #9
    68c8:	fb06 f406 	mul.w	r4, r6, r6
    68cc:	fba4 2301 	umull	r2, r3, r4, r1
    68d0:	4252      	negs	r2, r2
    68d2:	f1c3 4340 	rsb	r3, r3, #3221225472	; 0xc0000000
    68d6:	bf38      	it	cc
    68d8:	1e5b      	subcc	r3, r3, #1
    68da:	fba6 4202 	umull	r4, r2, r6, r2
    68de:	2400      	movs	r4, #0
    68e0:	fbe6 2403 	umlal	r2, r4, r6, r3
    68e4:	0bd2      	lsrs	r2, r2, #15
    68e6:	ea42 4644 	orr.w	r6, r2, r4, lsl #17
    68ea:	fba6 2306 	umull	r2, r3, r6, r6
    68ee:	fba1 e202 	umull	lr, r2, r1, r2
    68f2:	fba3 e407 	umull	lr, r4, r3, r7
    68f6:	18a4      	adds	r4, r4, r2
    68f8:	f04f 0200 	mov.w	r2, #0
    68fc:	f152 0200 	adcs.w	r2, r2, #0
    6900:	fbe3 4201 	umlal	r4, r2, r3, r1
    6904:	4264      	negs	r4, r4
    6906:	f1c2 4e40 	rsb	lr, r2, #3221225472	; 0xc0000000
    690a:	bf38      	it	cc
    690c:	f1ae 0e01 	subcc.w	lr, lr, #1
    6910:	fba6 2304 	umull	r2, r3, r6, r4
    6914:	f04f 0200 	mov.w	r2, #0
    6918:	fbe6 320e 	umlal	r3, r2, r6, lr
    691c:	fba2 4603 	umull	r4, r6, r2, r3
    6920:	f04f 0400 	mov.w	r4, #0
    6924:	19b6      	adds	r6, r6, r6
    6926:	f154 0400 	adcs.w	r4, r4, #0
    692a:	fbe2 6402 	umlal	r6, r4, r2, r2
    692e:	fba1 e606 	umull	lr, r6, r1, r6
    6932:	fba4 e807 	umull	lr, r8, r4, r7
    6936:	eb16 0608 	adds.w	r6, r6, r8
    693a:	f04f 0800 	mov.w	r8, #0
    693e:	f158 0800 	adcs.w	r8, r8, #0
    6942:	fbe4 6801 	umlal	r6, r8, r4, r1
    6946:	4276      	negs	r6, r6
    6948:	f1c8 5840 	rsb	r8, r8, #805306368	; 0x30000000
    694c:	bf38      	it	cc
    694e:	f1a8 0801 	subcc.w	r8, r8, #1
    6952:	fba2 e406 	umull	lr, r4, r2, r6
    6956:	fba3 e508 	umull	lr, r5, r3, r8
    695a:	192d      	adds	r5, r5, r4
    695c:	f04f 0400 	mov.w	r4, #0
    6960:	f154 0400 	adcs.w	r4, r4, #0
    6964:	fbe2 5408 	umlal	r5, r4, r2, r8
    6968:	fba1 e605 	umull	lr, r6, r1, r5
    696c:	fba7 e804 	umull	lr, r8, r7, r4
    6970:	eb18 0806 	adds.w	r8, r8, r6
    6974:	f04f 0600 	mov.w	r6, #0
    6978:	f156 0600 	adcs.w	r6, r6, #0
    697c:	fbe1 8604 	umlal	r8, r6, r1, r4
    6980:	f118 0520 	adds.w	r5, r8, #32
    6984:	f156 0600 	adcs.w	r6, r6, #0
    6988:	09a8      	lsrs	r0, r5, #6
    698a:	f1a8 081b 	sub.w	r8, r8, #27
    698e:	09b1      	lsrs	r1, r6, #6
    6990:	f008 083f 	and.w	r8, r8, #63	; 0x3f
    6994:	f1b8 0f0a 	cmp.w	r8, #10
    6998:	ea40 6086 	orr.w	r0, r0, r6, lsl #26
    699c:	d91c      	bls.n	0x69d8
    699e:	eb01 510c 	add.w	r1, r1, ip, lsl #20
    69a2:	e8bd 81f0 	ldmia.w	sp!, {r4, r5, r6, r7, r8, pc}
    69a6:	bf00      	nop
    69a8:	f5fc e8ee 	blx	0xffe02b88
    69ac:	dde2      	ble.n	0x6974
    69ae:	d3d8      	bcc.n	0x6962
    69b0:	cbcf      	ldmia	r3, {r0, r1, r2, r3, r6, r7}
    69b2:	c3c7      	stmia	r3!, {r0, r1, r2, r6, r7}
    69b4:	bdc0      	pop	{r6, r7, pc}
    69b6:	b6b9      			; <UNDEFINED> instruction: 0xb6b9
    69b8:	b1b4      	cbz	r4, 0x69e8
    69ba:	acae      	add	r4, sp, #696	; 0x2b8
    69bc:	a7a9      	add	r7, pc, #676	; (adr r7, 0x6c64)
    69be:	a3a5      	add	r3, pc, #660	; (adr r3, 0x6c54)
    69c0:	9fa1      	ldr	r7, [sp, #644]	; 0x284
    69c2:	9b9d      	ldr	r3, [sp, #628]	; 0x274
    69c4:	989a      	ldr	r0, [sp, #616]	; 0x268
    69c6:	9596      	str	r5, [sp, #600]	; 0x258
    69c8:	9293      	str	r2, [sp, #588]	; 0x24c
    69ca:	8f90      	ldrh	r0, [r2, #60]	; 0x3c
    69cc:	8c8d      	ldrh	r5, [r1, #36]	; 0x24
    69ce:	898b      	ldrh	r3, [r1, #12]
    69d0:	8788      	strh	r0, [r1, #60]	; 0x3c
    69d2:	8586      	strh	r6, [r0, #44]	; 0x2c
    69d4:	8384      	strh	r4, [r0, #28]
    69d6:	8182      	strh	r2, [r0, #12]
    69d8:	fba0 6800 	umull	r6, r8, r0, r0
    69dc:	fb00 f201 	mul.w	r2, r0, r1
    69e0:	eb08 0842 	add.w	r8, r8, r2, lsl #1
    69e4:	ebb8 2887 	subs.w	r8, r8, r7, lsl #10
    69e8:	d507      	bpl.n	0x69fa
    69ea:	1834      	adds	r4, r6, r0
    69ec:	eb58 0401 	adcs.w	r4, r8, r1
    69f0:	d5d5      	bpl.n	0x699e
    69f2:	1c40      	adds	r0, r0, #1
    69f4:	f151 0100 	adcs.w	r1, r1, #0
    69f8:	e7d1      	b.n	0x699e
    69fa:	1a34      	subs	r4, r6, r0
    69fc:	eb78 0401 	sbcs.w	r4, r8, r1
    6a00:	d4cd      	bmi.n	0x699e
    6a02:	1e40      	subs	r0, r0, #1
    6a04:	f171 0100 	sbcs.w	r1, r1, #0
    6a08:	e7c9      	b.n	0x699e
    6a0a:	ea5f 0c4c 	movs.w	ip, ip, lsl #1
    6a0e:	ea5f 5c9c 	movs.w	ip, ip, lsr #22
    6a12:	d10d      	bne.n	0x6a30
    6a14:	d305      	bcc.n	0x6a22
    6a16:	f04f 0000 	mov.w	r0, #0
    6a1a:	f001 4100 	and.w	r1, r1, #2147483648	; 0x80000000
    6a1e:	e8bd 81f0 	ldmia.w	sp!, {r4, r5, r6, r7, r8, pc}
    6a22:	e8bd 41f0 	ldmia.w	sp!, {r4, r5, r6, r7, r8, lr}
    6a26:	b570      	push	{r4, r5, r6, lr}
    6a28:	f7ff fde6 	bl	0x65f8
    6a2c:	db6d      	blt.n	0x6b0a
    6a2e:	beff      	bkpt	0x00ff
    6a30:	e8bd 41f0 	ldmia.w	sp!, {r4, r5, r6, r7, r8, lr}
    6a34:	f04f 0000 	mov.w	r0, #0
    6a38:	4900      	ldr	r1, [pc, #0]	; (0x6a3c)
    6a3a:	4770      	bx	lr
    6a3c:	0000      	movs	r0, r0
    6a3e:	7ff8      	ldrb	r0, [r7, #31]
    6a40:	b510      	push	{r4, lr}
    6a42:	ea91 0f03 	teq	r1, r3
    6a46:	bf48      	it	mi
    6a48:	f083 4300 	eormi.w	r3, r3, #2147483648	; 0x80000000
    6a4c:	f53f aa5c 	bmi.w	0x5f08
    6a50:	1a84      	subs	r4, r0, r2
    6a52:	eb71 0e03 	sbcs.w	lr, r1, r3
    6a56:	d207      	bcs.n	0x6a68
    6a58:	1912      	adds	r2, r2, r4
    6a5a:	f08e 4e00 	eor.w	lr, lr, #2147483648	; 0x80000000
    6a5e:	eb43 030e 	adc.w	r3, r3, lr
    6a62:	1b00      	subs	r0, r0, r4
    6a64:	eb61 010e 	sbc.w	r1, r1, lr
    6a68:	f8df c1a4 	ldr.w	ip, [pc, #420]	; 0x6c10
    6a6c:	ea4f 5411 	mov.w	r4, r1, lsr #20
    6a70:	eba4 5e13 	sub.w	lr, r4, r3, lsr #20
    6a74:	ea1c 0f43 	tst.w	ip, r3, lsl #1
    6a78:	bf18      	it	ne
    6a7a:	ea9c 5f44 	teqne	ip, r4, lsl #21
    6a7e:	f000 80b0 	beq.w	0x6be2
    6a82:	ea23 036c 	bic.w	r3, r3, ip, asr #1
    6a86:	4252      	negs	r2, r2
    6a88:	ea21 5104 	bic.w	r1, r1, r4, lsl #20
    6a8c:	ebc3 036c 	rsb	r3, r3, ip, asr #1
    6a90:	bf38      	it	cc
    6a92:	1e5b      	subcc	r3, r3, #1
    6a94:	f1de 0c20 	rsbs	ip, lr, #32
    6a98:	d325      	bcc.n	0x6ae6
    6a9a:	fa22 fc0e 	lsr.w	ip, r2, lr
    6a9e:	eb10 000c 	adds.w	r0, r0, ip
    6aa2:	fa43 fc0e 	asr.w	ip, r3, lr
    6aa6:	eb41 010c 	adc.w	r1, r1, ip
    6aaa:	f1ce 0c20 	rsb	ip, lr, #32
    6aae:	fa03 fc0c 	lsl.w	ip, r3, ip
    6ab2:	eb10 000c 	adds.w	r0, r0, ip
    6ab6:	f151 0100 	adcs.w	r1, r1, #0
    6aba:	f1ce 0c20 	rsb	ip, lr, #32
    6abe:	d429      	bmi.n	0x6b14
    6ac0:	eb01 5104 	add.w	r1, r1, r4, lsl #20
    6ac4:	e8bd 4010 	ldmia.w	sp!, {r4, lr}
    6ac8:	fa12 f20c 	lsls.w	r2, r2, ip
    6acc:	bf58      	it	pl
    6ace:	4770      	bxpl	lr
    6ad0:	1c40      	adds	r0, r0, #1
    6ad2:	bf1c      	itt	ne
    6ad4:	f1b2 4f00 	cmpne.w	r2, #2147483648	; 0x80000000
    6ad8:	4770      	bxne	lr
    6ada:	2800      	cmp	r0, #0
    6adc:	bf0c      	ite	eq
    6ade:	1c49      	addeq	r1, r1, #1
    6ae0:	f020 0001 	bicne.w	r0, r0, #1
    6ae4:	4770      	bx	lr
    6ae6:	eb12 0c02 	adds.w	ip, r2, r2
    6aea:	eb43 0203 	adc.w	r2, r3, r3
    6aee:	bf18      	it	ne
    6af0:	f04f 0c01 	movne.w	ip, #1
    6af4:	ea4c 0242 	orr.w	r2, ip, r2, lsl #1
    6af8:	f1ae 0e20 	sub.w	lr, lr, #32
    6afc:	f1de 0c1e 	rsbs	ip, lr, #30
    6b00:	d954      	bls.n	0x6bac
    6b02:	fa43 fc0e 	asr.w	ip, r3, lr
    6b06:	eb10 000c 	adds.w	r0, r0, ip
    6b0a:	f151 31ff 	adcs.w	r1, r1, #4294967295	; 0xffffffff
    6b0e:	f1ce 0c1e 	rsb	ip, lr, #30
    6b12:	d5d5      	bpl.n	0x6ac0
    6b14:	f10c 0c01 	add.w	ip, ip, #1
    6b18:	fa12 fc0c 	lsls.w	ip, r2, ip
    6b1c:	4140      	adcs	r0, r0
    6b1e:	eb41 0101 	adc.w	r1, r1, r1
    6b22:	eb01 5e44 	add.w	lr, r1, r4, lsl #21
    6b26:	ea5f 5e5e 	movs.w	lr, lr, lsr #21
    6b2a:	d910      	bls.n	0x6b4e
    6b2c:	eb01 5104 	add.w	r1, r1, r4, lsl #20
    6b30:	e8bd 4010 	ldmia.w	sp!, {r4, lr}
    6b34:	eb10 70dc 	adds.w	r0, r0, ip, lsr #31
    6b38:	bf38      	it	cc
    6b3a:	f1bc 4f00 	cmpcc.w	ip, #2147483648	; 0x80000000
    6b3e:	bf18      	it	ne
    6b40:	4770      	bxne	lr
    6b42:	2800      	cmp	r0, #0
    6b44:	bf0c      	ite	eq
    6b46:	1c49      	addeq	r1, r1, #1
    6b48:	f020 0001 	bicne.w	r0, r0, #1
    6b4c:	4770      	bx	lr
    6b4e:	d230      	bcs.n	0x6bb2
    6b50:	ea4f 2ed4 	mov.w	lr, r4, lsr #11
    6b54:	f511 1100 	adds.w	r1, r1, #2097152	; 0x200000
    6b58:	f424 6400 	bic.w	r4, r4, #2048	; 0x800
    6b5c:	d01b      	beq.n	0x6b96
    6b5e:	fab1 f281 	clz	r2, r1
    6b62:	3a0b      	subs	r2, #11
    6b64:	1aa4      	subs	r4, r4, r2
    6b66:	1ea4      	subs	r4, r4, #2
    6b68:	f1d2 0320 	rsbs	r3, r2, #32
    6b6c:	4091      	lsls	r1, r2
    6b6e:	fa30 f303 	lsrs.w	r3, r0, r3
    6b72:	4319      	orrs	r1, r3
    6b74:	4090      	lsls	r0, r2
    6b76:	eb01 71ce 	add.w	r1, r1, lr, lsl #31
    6b7a:	2c00      	cmp	r4, #0
    6b7c:	eb01 5104 	add.w	r1, r1, r4, lsl #20
    6b80:	e8bd 4010 	ldmia.w	sp!, {r4, lr}
    6b84:	bfa8      	it	ge
    6b86:	4770      	bxge	lr
    6b88:	f101 41c0 	add.w	r1, r1, #1610612736	; 0x60000000
    6b8c:	f04f 0000 	mov.w	r0, #0
    6b90:	f001 4100 	and.w	r1, r1, #2147483648	; 0x80000000
    6b94:	4770      	bx	lr
    6b96:	fab0 f380 	clz	r3, r0
    6b9a:	fa10 f103 	lsls.w	r1, r0, r3
    6b9e:	d100      	bne.n	0x6ba2
    6ba0:	bd10      	pop	{r4, pc}
    6ba2:	1ae4      	subs	r4, r4, r3
    6ba4:	3c17      	subs	r4, #23
    6ba6:	0548      	lsls	r0, r1, #21
    6ba8:	0ac9      	lsrs	r1, r1, #11
    6baa:	e7e4      	b.n	0x6b76
    6bac:	eb01 5104 	add.w	r1, r1, r4, lsl #20
    6bb0:	bd10      	pop	{r4, pc}
    6bb2:	1049      	asrs	r1, r1, #1
    6bb4:	eb01 5104 	add.w	r1, r1, r4, lsl #20
    6bb8:	e8bd 4010 	ldmia.w	sp!, {r4, lr}
    6bbc:	ea4f 0030 	mov.w	r0, r0, rrx
    6bc0:	e002      	b.n	0x6bc8
    6bc2:	f04f 0100 	mov.w	r1, #0
    6bc6:	4770      	bx	lr
    6bc8:	004a      	lsls	r2, r1, #1
    6bca:	bf08      	it	eq
    6bcc:	4200      	tsteq	r0, r0
    6bce:	d0f8      	beq.n	0x6bc2
    6bd0:	f5b2 1f00 	cmp.w	r2, #2097152	; 0x200000
    6bd4:	bf28      	it	cs
    6bd6:	4770      	bxcs	lr
    6bd8:	f001 4100 	and.w	r1, r1, #2147483648	; 0x80000000
    6bdc:	f04f 0000 	mov.w	r0, #0
    6be0:	4770      	bx	lr
    6be2:	ea9c 5f44 	teq	ip, r4, lsl #21
    6be6:	d007      	beq.n	0x6bf8
    6be8:	e8bd 4010 	ldmia.w	sp!, {r4, lr}
    6bec:	ea11 0f5c 	tst.w	r1, ip, lsr #1
    6bf0:	bf04      	itt	eq
    6bf2:	2100      	moveq	r1, #0
    6bf4:	2000      	moveq	r0, #0
    6bf6:	4770      	bx	lr
    6bf8:	e8bd 4010 	ldmia.w	sp!, {r4, lr}
    6bfc:	b570      	push	{r4, r5, r6, lr}
    6bfe:	f7ff fcfb 	bl	0x65f8
    6c02:	bf00      	nop
    6c04:	df40      	svc	64	; 0x40
    6c06:	3ef6      	subs	r6, #246	; 0xf6
    6c08:	f083 4100 	eor.w	r1, r3, #2147483648	; 0x80000000
    6c0c:	4610      	mov	r0, r2
    6c0e:	4770      	bx	lr
    6c10:	0000      	movs	r0, r0
    6c12:	ffe0 0043 	vmla.i32	q8, q0, d3[0]
    6c16:	ea4f 0cd3 	mov.w	ip, r3, lsr #3
    6c1a:	ea4f 0c3c 	mov.w	ip, ip, rrx
    6c1e:	4043      	eors	r3, r0
    6c20:	bf1f      	itttt	ne
    6c22:	0740      	lslne	r0, r0, #29
    6c24:	f10c 5160 	addne.w	r1, ip, #939524096	; 0x38000000
    6c28:	f013 4ffe 	tstne.w	r3, #2130706432	; 0x7f000000
    6c2c:	4770      	bxne	lr
    6c2e:	f01c 6f00 	tst.w	ip, #134217728	; 0x8000000
    6c32:	d103      	bne.n	0x6c3c
    6c34:	2000      	movs	r0, #0
    6c36:	f00c 4100 	and.w	r1, ip, #2147483648	; 0x80000000
    6c3a:	4770      	bx	lr
    6c3c:	f00c 4300 	and.w	r3, ip, #2147483648	; 0x80000000
    6c40:	ea43 7050 	orr.w	r0, r3, r0, lsr #29
    6c44:	b510      	push	{r4, lr}
    6c46:	ea40 00cc 	orr.w	r0, r0, ip, lsl #3
    6c4a:	f000 fa5c 	bl	0x7106
    6c4e:	bf00      	nop
    6c50:	0000      	movs	r0, r0
    6c52:	9200      	str	r2, [sp, #0]
    6c54:	ea4f 0100 	mov.w	r1, r0
    6c58:	f7ff bdc4 	b.w	0x67e4
    6c5c:	f04f 4100 	mov.w	r1, #2147483648	; 0x80000000
    6c60:	f04f 0000 	mov.w	r0, #0
    6c64:	f5a1 2100 	sub.w	r1, r1, #524288	; 0x80000
    6c68:	4770      	bx	lr
    6c6a:	0000      	movs	r0, r0
    6c6c:	ea90 0f01 	teq	r0, r1
    6c70:	bf48      	it	mi
    6c72:	f081 4100 	eormi.w	r1, r1, #2147483648	; 0x80000000
    6c76:	f100 82da 	bmi.w	0x722e
    6c7a:	1a42      	subs	r2, r0, r1
    6c7c:	bf3c      	itt	cc
    6c7e:	1a80      	subcc	r0, r0, r2
    6c80:	1889      	addcc	r1, r1, r2
    6c82:	ea4f 52d0 	mov.w	r2, r0, lsr #23
    6c86:	f04f 4c7f 	mov.w	ip, #4278190080	; 0xff000000
    6c8a:	ea1c 0f41 	tst.w	ip, r1, lsl #1
    6c8e:	eba2 53d1 	sub.w	r3, r2, r1, lsr #23
    6c92:	bf18      	it	ne
    6c94:	ea9c 6f02 	teqne	ip, r2, lsl #24
    6c98:	f000 803b 	beq.w	0x6d12
    6c9c:	f04f 4c00 	mov.w	ip, #2147483648	; 0x80000000
    6ca0:	ea4c 2000 	orr.w	r0, ip, r0, lsl #8
    6ca4:	ea4c 2101 	orr.w	r1, ip, r1, lsl #8
    6ca8:	fa21 fc03 	lsr.w	ip, r1, r3
    6cac:	eb10 0c0c 	adds.w	ip, r0, ip
    6cb0:	d21e      	bcs.n	0x6cf0
    6cb2:	f102 32ff 	add.w	r2, r2, #4294967295	; 0xffffffff
    6cb6:	ea5f 201c 	movs.w	r0, ip, lsr #8
    6cba:	eb40 50c2 	adc.w	r0, r0, r2, lsl #23
    6cbe:	bf38      	it	cc
    6cc0:	4770      	bxcc	lr
    6cc2:	f01c 0f7f 	tst.w	ip, #127	; 0x7f
    6cc6:	ea4f 0c40 	mov.w	ip, r0, lsl #1
    6cca:	bf18      	it	ne
    6ccc:	f1bc 4f7f 	cmpne.w	ip, #4278190080	; 0xff000000
    6cd0:	bf38      	it	cc
    6cd2:	4770      	bxcc	lr
    6cd4:	f1c3 0320 	rsb	r3, r3, #32
    6cd8:	4099      	lsls	r1, r3
    6cda:	bf08      	it	eq
    6cdc:	f020 0001 	biceq.w	r0, r0, #1
    6ce0:	f1bc 4f7f 	cmp.w	ip, #4278190080	; 0xff000000
    6ce4:	bf38      	it	cc
    6ce6:	4770      	bxcc	lr
    6ce8:	f1a0 40c0 	sub.w	r0, r0, #1610612736	; 0x60000000
    6cec:	f000 ba58 	b.w	0x71a0
    6cf0:	ea4f 003c 	mov.w	r0, ip, rrx
    6cf4:	0a00      	lsrs	r0, r0, #8
    6cf6:	eb40 50c2 	adc.w	r0, r0, r2, lsl #23
    6cfa:	bf28      	it	cs
    6cfc:	f01c 0fff 	tstcs.w	ip, #255	; 0xff
    6d00:	ea4f 0c40 	mov.w	ip, r0, lsl #1
    6d04:	d0e6      	beq.n	0x6cd4
    6d06:	bf18      	it	ne
    6d08:	f1bc 4f7f 	cmpne.w	ip, #4278190080	; 0xff000000
    6d0c:	bf38      	it	cc
    6d0e:	4770      	bxcc	lr
    6d10:	e7ea      	b.n	0x6ce8
    6d12:	ea9c 6f02 	teq	ip, r2, lsl #24
    6d16:	d005      	beq.n	0x6d24
    6d18:	ea10 0f5c 	tst.w	r0, ip, lsr #1
    6d1c:	bf08      	it	eq
    6d1e:	f000 4000 	andeq.w	r0, r0, #2147483648	; 0x80000000
    6d22:	4770      	bx	lr
    6d24:	b510      	push	{r4, lr}
    6d26:	f000 f9ee 	bl	0x7106
    6d2a:	bf00      	nop
    6d2c:	fb64 3ebe 			; <UNDEFINED> instruction: 0xfb643ebe
    6d30:	1040      	asrs	r0, r0, #1
    6d32:	bf58      	it	pl
    6d34:	f1c0 4040 	rsbpl	r0, r0, #3221225472	; 0xc0000000
    6d38:	1049      	asrs	r1, r1, #1
    6d3a:	bf58      	it	pl
    6d3c:	f1c1 4140 	rsbpl	r1, r1, #3221225472	; 0xc0000000
    6d40:	4281      	cmp	r1, r0
    6d42:	f3ef 8000 	mrs	r0, CPSR
    6d46:	4770      	bx	lr
    6d48:	f44f 0c7f 	mov.w	ip, #16711680	; 0xff0000
    6d4c:	ea1c 12d0 	ands.w	r2, ip, r0, lsr #7
    6d50:	bf1e      	ittt	ne
    6d52:	ea1c 13d1 	andsne.w	r3, ip, r1, lsr #7
    6d56:	ea92 0f0c 	teqne	r2, ip
    6d5a:	ea93 0f0c 	teqne	r3, ip
    6d5e:	f000 8085 	beq.w	0x6e6c
    6d62:	ea90 0f01 	teq	r0, r1
    6d66:	bf48      	it	mi
    6d68:	f442 7280 	orrmi.w	r2, r2, #256	; 0x100
    6d6c:	f440 0c00 	orr.w	ip, r0, #8388608	; 0x800000
    6d70:	f441 0000 	orr.w	r0, r1, #8388608	; 0x800000
    6d74:	f02c 417f 	bic.w	r1, ip, #4278190080	; 0xff000000
    6d78:	f020 407f 	bic.w	r0, r0, #4278190080	; 0xff000000
    6d7c:	b500      	push	{lr}
    6d7e:	4281      	cmp	r1, r0
    6d80:	eba2 0203 	sub.w	r2, r2, r3
    6d84:	f20f 1c08 	addw	ip, pc, #264	; 0x108
    6d88:	ebac 4e50 	sub.w	lr, ip, r0, lsr #17
    6d8c:	f1c0 0000 	rsb	r0, r0, #0
    6d90:	f89e e000 	ldrb.w	lr, [lr]
    6d94:	ea4f 0e4e 	mov.w	lr, lr, lsl #1
    6d98:	fb00 fc0e 	mul.w	ip, r0, lr
    6d9c:	bf38      	it	cc
    6d9e:	0049      	lslcc	r1, r1, #1
    6da0:	ea4f 1c2c 	mov.w	ip, ip, asr #4
    6da4:	f502 02fa 	add.w	r2, r2, #8192000	; 0x7d0000
    6da8:	fb0c f30e 	mul.w	r3, ip, lr
    6dac:	ea4f 1ece 	mov.w	lr, lr, lsl #7
    6db0:	ea4f 2c11 	mov.w	ip, r1, lsr #8
    6db4:	ea4f 21c1 	mov.w	r1, r1, lsl #11
    6db8:	eb0e 5e63 	add.w	lr, lr, r3, asr #21
    6dbc:	eb42 4222 	adc.w	r2, r2, r2, asr #16
    6dc0:	fb0e fc0c 	mul.w	ip, lr, ip
    6dc4:	ea4f 531c 	mov.w	r3, ip, lsr #20
    6dc8:	fb00 1103 	mla	r1, r0, r3, r1
    6dcc:	ea4f 2c11 	mov.w	ip, r1, lsr #8
    6dd0:	ea4f 3101 	mov.w	r1, r1, lsl #12
    6dd4:	fb0e fc0c 	mul.w	ip, lr, ip
    6dd8:	ea4f 4cdc 	mov.w	ip, ip, lsr #19
    6ddc:	fb00 110c 	mla	r1, r0, ip, r1
    6de0:	42c1      	cmn	r1, r0
    6de2:	bf28      	it	cs
    6de4:	1809      	addcs	r1, r1, r0
    6de6:	eb4c 3303 	adc.w	r3, ip, r3, lsl #12
    6dea:	f85d eb04 	ldr.w	lr, [sp], #4
    6dee:	eb10 0141 	adds.w	r1, r0, r1, lsl #1
    6df2:	eb43 50c2 	adc.w	r0, r3, r2, lsl #23
    6df6:	f5b2 0f7c 	cmp.w	r2, #16515072	; 0xfc0000
    6dfa:	bf38      	it	cc
    6dfc:	4770      	bxcc	lr
    6dfe:	d529      	bpl.n	0x6e54
    6e00:	f012 0ff0 	tst.w	r2, #240	; 0xf0
    6e04:	bf1c      	itt	ne
    6e06:	f100 40c0 	addne.w	r0, r0, #1610612736	; 0x60000000
    6e0a:	f000 4000 	andne.w	r0, r0, #2147483648	; 0x80000000
    6e0e:	4770      	bx	lr
    6e10:	8100      	strh	r0, [r0, #8]
    6e12:	8382      	strh	r2, [r0, #28]
    6e14:	8584      	strh	r4, [r0, #44]	; 0x2c
    6e16:	8786      	strh	r6, [r0, #60]	; 0x3c
    6e18:	8988      	ldrh	r0, [r1, #12]
    6e1a:	8c8b      	ldrh	r3, [r1, #36]	; 0x24
    6e1c:	8e8d      	ldrh	r5, [r1, #52]	; 0x34
    6e1e:	918f      	str	r1, [sp, #572]	; 0x23c
    6e20:	9392      	str	r3, [sp, #584]	; 0x248
    6e22:	9695      	str	r6, [sp, #596]	; 0x254
    6e24:	9997      	ldr	r1, [sp, #604]	; 0x25c
    6e26:	9c9a      	ldr	r4, [sp, #616]	; 0x268
    6e28:	9f9d      	ldr	r7, [sp, #628]	; 0x274
    6e2a:	a2a0      	add	r2, pc, #640	; (adr r2, 0x70ac)
    6e2c:	a5a3      	add	r5, pc, #652	; (adr r5, 0x70bc)
    6e2e:	a8a7      	add	r0, sp, #668	; 0x29c
    6e30:	acaa      	add	r4, sp, #680	; 0x2a8
    6e32:	b0ae      	sub	sp, #184	; 0xb8
    6e34:	b3b2      	cbz	r2, 0x6ea4
    6e36:	b7b5      			; <UNDEFINED> instruction: 0xb7b5
    6e38:	bcb9      	pop	{r0, r3, r4, r5, r7}
    6e3a:	c0be      	stmia	r0!, {r1, r2, r3, r4, r5, r7}
    6e3c:	c5c2      	stmia	r5!, {r1, r6, r7}
    6e3e:	c9c7      	ldmia	r1, {r0, r1, r2, r6, r7}
    6e40:	cecc      	ldmia	r6, {r2, r3, r6, r7}
    6e42:	d4d1      	bmi.n	0x6de8
    6e44:	d9d7      	bls.n	0x6df6
    6e46:	dfdc      	svc	220	; 0xdc
    6e48:	e6e2      	b.n	0x6c10
    6e4a:	ece9 f3f0 	stcl	3, cr15, [r9], #960	; 0x3c0
    6e4e:	faf7 00fe 			; <UNDEFINED> instruction: 0xfaf700fe
    6e52:	0000      	movs	r0, r0
    6e54:	ea4f 0c40 	mov.w	ip, r0, lsl #1
    6e58:	f10c 7c80 	add.w	ip, ip, #16777216	; 0x1000000
    6e5c:	f1bc 4f7e 	cmp.w	ip, #4261412864	; 0xfe000000
    6e60:	bf28      	it	cs
    6e62:	4770      	bxcs	lr
    6e64:	f1b0 40c0 	subs.w	r0, r0, #1610612736	; 0x60000000
    6e68:	f000 b99a 	b.w	0x71a0
    6e6c:	ea90 0f01 	teq	r0, r1
    6e70:	ea0c 13d1 	and.w	r3, ip, r1, lsr #7
    6e74:	bf48      	it	mi
    6e76:	f442 7280 	orrmi.w	r2, r2, #256	; 0x100
    6e7a:	4562      	cmp	r2, ip
    6e7c:	bf38      	it	cc
    6e7e:	4563      	cmpcc	r3, ip
    6e80:	d207      	bcs.n	0x6e92
    6e82:	f413 0f7f 	tst.w	r3, #16711680	; 0xff0000
    6e86:	d016      	beq.n	0x6eb6
    6e88:	ea80 0001 	eor.w	r0, r0, r1
    6e8c:	f000 4000 	and.w	r0, r0, #2147483648	; 0x80000000
    6e90:	4770      	bx	lr
    6e92:	b510      	push	{r4, lr}
    6e94:	f000 f937 	bl	0x7106
    6e98:	7e09      	ldrb	r1, [r1, #24]
    6e9a:	3efc      	subs	r6, #252	; 0xfc
    6e9c:	f000 b805 	b.w	0x6eaa
    6ea0:	ea80 0001 	eor.w	r0, r0, r1
    6ea4:	f000 4000 	and.w	r0, r0, #2147483648	; 0x80000000
    6ea8:	4770      	bx	lr
    6eaa:	ea80 0001 	eor.w	r0, r0, r1
    6eae:	f000 4000 	and.w	r0, r0, #2147483648	; 0x80000000
    6eb2:	f000 b975 	b.w	0x71a0
    6eb6:	f412 0f7f 	tst.w	r2, #16711680	; 0xff0000
    6eba:	bf04      	itt	eq
    6ebc:	4802      	ldreq	r0, [pc, #8]	; (0x6ec8)
    6ebe:	4770      	bxeq	lr
    6ec0:	ea80 0001 	eor.w	r0, r0, r1
    6ec4:	f000 b96c 	b.w	0x71a0
    6ec8:	0000      	movs	r0, r0
    6eca:	7fc0      	ldrb	r0, [r0, #31]
    6ecc:	ea50 0c01 	orrs.w	ip, r0, r1
    6ed0:	f100 8013 	bmi.w	0x6efa
    6ed4:	f51c 0f00 	cmn.w	ip, #8388608	; 0x800000
    6ed8:	bf58      	it	pl
    6eda:	f5bc 0f00 	cmppl.w	ip, #8388608	; 0x800000
    6ede:	d401      	bmi.n	0x6ee4
    6ee0:	4288      	cmp	r0, r1
    6ee2:	4770      	bx	lr
    6ee4:	d707      	bvc.n	0x6ef6
    6ee6:	f510 0f00 	cmn.w	r0, #8388608	; 0x800000
    6eea:	bf58      	it	pl
    6eec:	f511 0f00 	cmnpl.w	r1, #8388608	; 0x800000
    6ef0:	d415      	bmi.n	0x6f1e
    6ef2:	4288      	cmp	r0, r1
    6ef4:	4770      	bx	lr
    6ef6:	4289      	cmp	r1, r1
    6ef8:	4770      	bx	lr
    6efa:	f51c 0f00 	cmn.w	ip, #8388608	; 0x800000
    6efe:	d504      	bpl.n	0x6f0a
    6f00:	f5bc 0f00 	cmp.w	ip, #8388608	; 0x800000
    6f04:	d5f7      	bpl.n	0x6ef6
    6f06:	4281      	cmp	r1, r0
    6f08:	4770      	bx	lr
    6f0a:	f04f 7c80 	mov.w	ip, #16777216	; 0x1000000
    6f0e:	eb1c 0f40 	cmn.w	ip, r0, lsl #1
    6f12:	bf38      	it	cc
    6f14:	eb1c 0f41 	cmncc.w	ip, r1, lsl #1
    6f18:	d201      	bcs.n	0x6f1e
    6f1a:	4281      	cmp	r1, r0
    6f1c:	4770      	bx	lr
    6f1e:	b510      	push	{r4, lr}
    6f20:	f000 f8f1 	bl	0x7106
    6f24:	2492      	movs	r4, #146	; 0x92
    6f26:	0049      	lsls	r1, r1, #1
    6f28:	f04f 5000 	mov.w	r0, #536870912	; 0x20000000
    6f2c:	f04f 5180 	mov.w	r1, #268435456	; 0x10000000
    6f30:	f7ff befe 	b.w	0x6d30
    6f34:	0041      	lsls	r1, r0, #1
    6f36:	0e0b      	lsrs	r3, r1, #24
    6f38:	f1d3 029e 	rsbs	r2, r3, #158	; 0x9e
    6f3c:	d908      	bls.n	0x6f50
    6f3e:	f450 0300 	orrs.w	r3, r0, #8388608	; 0x800000
    6f42:	ea4f 2303 	mov.w	r3, r3, lsl #8
    6f46:	fa23 f002 	lsr.w	r0, r3, r2
    6f4a:	bf48      	it	mi
    6f4c:	4240      	negmi	r0, r0
    6f4e:	4770      	bx	lr
    6f50:	b510      	push	{r4, lr}
    6f52:	f000 f8d8 	bl	0x7106
    6f56:	bf00      	nop
    6f58:	9249      	str	r2, [sp, #292]	; 0x124
    6f5a:	8024      	strh	r4, [r4, #0]
    6f5c:	2000      	movs	r0, #0
    6f5e:	4770      	bx	lr
    6f60:	f06f 4200 	mvn.w	r2, #2147483648	; 0x80000000
    6f64:	ea82 0020 	eor.w	r0, r2, r0, asr #32
    6f68:	4770      	bx	lr
    6f6a:	0000      	movs	r0, r0
    6f6c:	f010 4100 	ands.w	r1, r0, #2147483648	; 0x80000000
    6f70:	bf48      	it	mi
    6f72:	4240      	negmi	r0, r0
    6f74:	fab0 f380 	clz	r3, r0
    6f78:	fa10 f203 	lsls.w	r2, r0, r3
    6f7c:	f1c3 039d 	rsb	r3, r3, #157	; 0x9d
    6f80:	d00b      	beq.n	0x6f9a
    6f82:	ea51 51c3 	orrs.w	r1, r1, r3, lsl #23
    6f86:	eb01 2012 	add.w	r0, r1, r2, lsr #8
    6f8a:	0653      	lsls	r3, r2, #25
    6f8c:	bf38      	it	cc
    6f8e:	4770      	bxcc	lr
    6f90:	f100 0001 	add.w	r0, r0, #1
    6f94:	bf08      	it	eq
    6f96:	f020 0001 	biceq.w	r0, r0, #1
    6f9a:	4770      	bx	lr
    6f9c:	ea50 0c01 	orrs.w	ip, r0, r1
    6fa0:	f100 8013 	bmi.w	0x6fca
    6fa4:	f51c 0f00 	cmn.w	ip, #8388608	; 0x800000
    6fa8:	bf58      	it	pl
    6faa:	f5bc 0f00 	cmppl.w	ip, #8388608	; 0x800000
    6fae:	d401      	bmi.n	0x6fb4
    6fb0:	4288      	cmp	r0, r1
    6fb2:	4770      	bx	lr
    6fb4:	d707      	bvc.n	0x6fc6
    6fb6:	f510 0f00 	cmn.w	r0, #8388608	; 0x800000
    6fba:	bf58      	it	pl
    6fbc:	f511 0f00 	cmnpl.w	r1, #8388608	; 0x800000
    6fc0:	d415      	bmi.n	0x6fee
    6fc2:	4288      	cmp	r0, r1
    6fc4:	4770      	bx	lr
    6fc6:	4289      	cmp	r1, r1
    6fc8:	4770      	bx	lr
    6fca:	f51c 0f00 	cmn.w	ip, #8388608	; 0x800000
    6fce:	d504      	bpl.n	0x6fda
    6fd0:	f5bc 0f00 	cmp.w	ip, #8388608	; 0x800000
    6fd4:	d5f7      	bpl.n	0x6fc6
    6fd6:	4281      	cmp	r1, r0
    6fd8:	4770      	bx	lr
    6fda:	f04f 7c80 	mov.w	ip, #16777216	; 0x1000000
    6fde:	eb1c 0f40 	cmn.w	ip, r0, lsl #1
    6fe2:	bf38      	it	cc
    6fe4:	eb1c 0f41 	cmncc.w	ip, r1, lsl #1
    6fe8:	d201      	bcs.n	0x6fee
    6fea:	4281      	cmp	r1, r0
    6fec:	4770      	bx	lr
    6fee:	b510      	push	{r4, lr}
    6ff0:	f000 f889 	bl	0x7106
    6ff4:	2492      	movs	r4, #146	; 0x92
    6ff6:	0049      	lsls	r1, r1, #1
    6ff8:	f04f 5000 	mov.w	r0, #536870912	; 0x20000000
    6ffc:	f04f 5180 	mov.w	r1, #268435456	; 0x10000000
    7000:	f7ff be96 	b.w	0x6d30
    7004:	f44f 0c7f 	mov.w	ip, #16711680	; 0xff0000
    7008:	ea1c 12d0 	ands.w	r2, ip, r0, lsr #7
    700c:	bf1e      	ittt	ne
    700e:	ea1c 13d1 	andsne.w	r3, ip, r1, lsr #7
    7012:	ea92 0f0c 	teqne	r2, ip
    7016:	ea93 0f0c 	teqne	r3, ip
    701a:	f000 8047 	beq.w	0x70ac
    701e:	ea90 0f01 	teq	r0, r1
    7022:	bf48      	it	mi
    7024:	f442 7280 	orrmi.w	r2, r2, #256	; 0x100
    7028:	f04f 4c00 	mov.w	ip, #2147483648	; 0x80000000
    702c:	ea4c 2000 	orr.w	r0, ip, r0, lsl #8
    7030:	ea4c 2101 	orr.w	r1, ip, r1, lsl #8
    7034:	eb02 0203 	add.w	r2, r2, r3
    7038:	fba0 1301 	umull	r1, r3, r0, r1
    703c:	f5a2 0200 	sub.w	r2, r2, #8388608	; 0x800000
    7040:	2900      	cmp	r1, #0
    7042:	bf18      	it	ne
    7044:	f043 0301 	orrne.w	r3, r3, #1
    7048:	005b      	lsls	r3, r3, #1
    704a:	bf28      	it	cs
    704c:	ea4f 0333 	movcs.w	r3, r3, rrx
    7050:	eb42 4222 	adc.w	r2, r2, r2, asr #16
    7054:	ea5f 2c13 	movs.w	ip, r3, lsr #8
    7058:	eb4c 50c2 	adc.w	r0, ip, r2, lsl #23
    705c:	bf2e      	itee	cs
    705e:	ebbc 6f43 	cmpcs.w	ip, r3, lsl #25
    7062:	f5b2 0f7c 	cmpcc.w	r2, #16515072	; 0xfc0000
    7066:	4770      	bxcc	lr
    7068:	ea4f 6c03 	mov.w	ip, r3, lsl #24
    706c:	f1bc 4f00 	cmp.w	ip, #2147483648	; 0x80000000
    7070:	bf08      	it	eq
    7072:	f020 0001 	biceq.w	r0, r0, #1
    7076:	f5b2 0f7c 	cmp.w	r2, #16515072	; 0xfc0000
    707a:	bf38      	it	cc
    707c:	4770      	bxcc	lr
    707e:	d50b      	bpl.n	0x7098
    7080:	f082 02ff 	eor.w	r2, r2, #255	; 0xff
    7084:	f512 3f80 	cmn.w	r2, #65536	; 0x10000
    7088:	bfc8      	it	gt
    708a:	4770      	bxgt	lr
    708c:	f100 40c0 	add.w	r0, r0, #1610612736	; 0x60000000
    7090:	bfd8      	it	le
    7092:	f000 4000 	andle.w	r0, r0, #2147483648	; 0x80000000
    7096:	4770      	bx	lr
    7098:	f500 0c00 	add.w	ip, r0, #8388608	; 0x800000
    709c:	ea5f 0c4c 	movs.w	ip, ip, lsl #1
    70a0:	bf48      	it	mi
    70a2:	4770      	bxmi	lr
    70a4:	f1b0 40c0 	subs.w	r0, r0, #1610612736	; 0x60000000
    70a8:	f000 b87a 	b.w	0x71a0
    70ac:	ea90 0f01 	teq	r0, r1
    70b0:	ea0c 13d1 	and.w	r3, ip, r1, lsr #7
    70b4:	bf48      	it	mi
    70b6:	f442 7280 	orrmi.w	r2, r2, #256	; 0x100
    70ba:	4562      	cmp	r2, ip
    70bc:	bf38      	it	cc
    70be:	4563      	cmpcc	r3, ip
    70c0:	d204      	bcs.n	0x70cc
    70c2:	ea80 0001 	eor.w	r0, r0, r1
    70c6:	f000 4000 	and.w	r0, r0, #2147483648	; 0x80000000
    70ca:	4770      	bx	lr
    70cc:	b510      	push	{r4, lr}
    70ce:	f000 f81a 	bl	0x7106
    70d2:	bf00      	nop
    70d4:	0089      	lsls	r1, r1, #2
    70d6:	3e01      	subs	r6, #1
    70d8:	f000 b807 	b.w	0x70ea
    70dc:	f000 b809 	b.w	0x70f2
    70e0:	ea5f 0c41 	movs.w	ip, r1, lsl #1
    70e4:	ea5f 6c1c 	movs.w	ip, ip, lsr #24
    70e8:	d008      	beq.n	0x70fc
    70ea:	ea80 0001 	eor.w	r0, r0, r1
    70ee:	f000 b857 	b.w	0x71a0
    70f2:	ea5f 0c40 	movs.w	ip, r0, lsl #1
    70f6:	ea5f 6c1c 	movs.w	ip, ip, lsr #24
    70fa:	d1f6      	bne.n	0x70ea
    70fc:	f04f 4000 	mov.w	r0, #2147483648	; 0x80000000
    7100:	f5a0 0080 	sub.w	r0, r0, #4194304	; 0x400000
    7104:	4770      	bx	lr
    7106:	f10e 0e02 	add.w	lr, lr, #2
    710a:	f02e 0e03 	bic.w	lr, lr, #3
    710e:	f85e 4b04 	ldr.w	r4, [lr], #4
    7112:	4224      	tst	r4, r4
    7114:	d404      	bmi.n	0x7120
    7116:	ea4f 0241 	mov.w	r2, r1, lsl #1
    711a:	f1b2 4f7f 	cmp.w	r2, #4278190080	; 0xff000000
    711e:	d811      	bhi.n	0x7144
    7120:	ea4f 0340 	mov.w	r3, r0, lsl #1
    7124:	f1b3 4f7f 	cmp.w	r3, #4278190080	; 0xff000000
    7128:	d80c      	bhi.n	0x7144
    712a:	d10e      	bne.n	0x714a
    712c:	ea4f 7cd0 	mov.w	ip, r0, lsr #31
    7130:	f1b2 4f7f 	cmp.w	r2, #4278190080	; 0xff000000
    7134:	eb0c 0c4c 	add.w	ip, ip, ip, lsl #1
    7138:	f10c 0c02 	add.w	ip, ip, #2
    713c:	bf08      	it	eq
    713e:	eb4c 7cd1 	adceq.w	ip, ip, r1, lsr #31
    7142:	e004      	b.n	0x714e
    7144:	f04f 0c08 	mov.w	ip, #8
    7148:	e001      	b.n	0x714e
    714a:	ea4f 7cd1 	mov.w	ip, r1, lsr #31
    714e:	eb0c 034c 	add.w	r3, ip, ip, lsl #1
    7152:	fa24 f403 	lsr.w	r4, r4, r3
    7156:	f004 0407 	and.w	r4, r4, #7
    715a:	f1b4 0c04 	subs.w	ip, r4, #4
    715e:	d206      	bcs.n	0x716e
    7160:	eb0e 0c84 	add.w	ip, lr, r4, lsl #2
    7164:	e8bd 4010 	ldmia.w	sp!, {r4, lr}
    7168:	f04c 0c01 	orr.w	ip, ip, #1
    716c:	4760      	bx	ip
    716e:	e8df f00c 	tbb	[pc, ip]
    7172:	0807      	lsrs	r7, r0, #32
    7174:	0202      	lsls	r2, r0, #8
    7176:	f04f 4000 	mov.w	r0, #2147483648	; 0x80000000
    717a:	f5a0 0080 	sub.w	r0, r0, #4194304	; 0x400000
    717e:	bd10      	pop	{r4, pc}
    7180:	4608      	mov	r0, r1
    7182:	0042      	lsls	r2, r0, #1
    7184:	bf18      	it	ne
    7186:	f1d2 7280 	rsbsne	r2, r2, #16777216	; 0x1000000
    718a:	bf88      	it	hi
    718c:	f000 4000 	andhi.w	r0, r0, #2147483648	; 0x80000000
    7190:	bd10      	pop	{r4, pc}
    7192:	b510      	push	{r4, lr}
    7194:	f7fe f852 	bl	0x523c
    7198:	f04f 0100 	mov.w	r1, #0
    719c:	6001      	str	r1, [r0, #0]
    719e:	bd10      	pop	{r4, pc}
    71a0:	21ff      	movs	r1, #255	; 0xff
    71a2:	ea41 50d0 	orr.w	r0, r1, r0, lsr #23
    71a6:	05c0      	lsls	r0, r0, #23
    71a8:	4770      	bx	lr
    71aa:	ea51 0c00 	orrs.w	ip, r1, r0
    71ae:	f100 8013 	bmi.w	0x71d8
    71b2:	f51c 0f00 	cmn.w	ip, #8388608	; 0x800000
    71b6:	bf58      	it	pl
    71b8:	f5bc 0f00 	cmppl.w	ip, #8388608	; 0x800000
    71bc:	d401      	bmi.n	0x71c2
    71be:	4281      	cmp	r1, r0
    71c0:	4770      	bx	lr
    71c2:	d707      	bvc.n	0x71d4
    71c4:	f511 0f00 	cmn.w	r1, #8388608	; 0x800000
    71c8:	bf58      	it	pl
    71ca:	f510 0f00 	cmnpl.w	r0, #8388608	; 0x800000
    71ce:	d415      	bmi.n	0x71fc
    71d0:	4281      	cmp	r1, r0
    71d2:	4770      	bx	lr
    71d4:	4289      	cmp	r1, r1
    71d6:	4770      	bx	lr
    71d8:	f51c 0f00 	cmn.w	ip, #8388608	; 0x800000
    71dc:	d504      	bpl.n	0x71e8
    71de:	f5bc 0f00 	cmp.w	ip, #8388608	; 0x800000
    71e2:	d5f7      	bpl.n	0x71d4
    71e4:	4288      	cmp	r0, r1
    71e6:	4770      	bx	lr
    71e8:	f04f 7c80 	mov.w	ip, #16777216	; 0x1000000
    71ec:	eb1c 0f41 	cmn.w	ip, r1, lsl #1
    71f0:	bf38      	it	cc
    71f2:	eb1c 0f40 	cmncc.w	ip, r0, lsl #1
    71f6:	d201      	bcs.n	0x71fc
    71f8:	4288      	cmp	r0, r1
    71fa:	4770      	bx	lr
    71fc:	ea80 0001 	eor.w	r0, r0, r1
    7200:	ea81 0100 	eor.w	r1, r1, r0
    7204:	ea80 0001 	eor.w	r0, r0, r1
    7208:	f7ff bef1 	b.w	0x6fee
    720c:	f080 4000 	eor.w	r0, r0, #2147483648	; 0x80000000
    7210:	ea90 0f01 	teq	r0, r1
    7214:	f57f ad31 	bpl.w	0x6c7a
    7218:	f081 4100 	eor.w	r1, r1, #2147483648	; 0x80000000
    721c:	f000 b807 	b.w	0x722e
    7220:	ea90 0f01 	teq	r0, r1
    7224:	bf48      	it	mi
    7226:	f081 4100 	eormi.w	r1, r1, #2147483648	; 0x80000000
    722a:	f53f ad26 	bmi.w	0x6c7a
    722e:	1a42      	subs	r2, r0, r1
    7230:	d804      	bhi.n	0x723c
    7232:	f082 4200 	eor.w	r2, r2, #2147483648	; 0x80000000
    7236:	eba0 0002 	sub.w	r0, r0, r2
    723a:	4411      	add	r1, r2
    723c:	ea4f 52d0 	mov.w	r2, r0, lsr #23
    7240:	f04f 4c7f 	mov.w	ip, #4278190080	; 0xff000000
    7244:	ea1c 0f41 	tst.w	ip, r1, lsl #1
    7248:	eba2 53d1 	sub.w	r3, r2, r1, lsr #23
    724c:	bf18      	it	ne
    724e:	ea9c 6f02 	teqne	ip, r2, lsl #24
    7252:	d04a      	beq.n	0x72ea
    7254:	f04f 4c00 	mov.w	ip, #2147483648	; 0x80000000
    7258:	ea4c 2000 	orr.w	r0, ip, r0, lsl #8
    725c:	ea4c 2101 	orr.w	r1, ip, r1, lsl #8
    7260:	fa21 fc03 	lsr.w	ip, r1, r3
    7264:	ebb0 0c0c 	subs.w	ip, r0, ip
    7268:	d40f      	bmi.n	0x728a
    726a:	f012 0ffe 	tst.w	r2, #254	; 0xfe
    726e:	d036      	beq.n	0x72de
    7270:	ea5f 004c 	movs.w	r0, ip, lsl #1
    7274:	d51d      	bpl.n	0x72b2
    7276:	1200      	asrs	r0, r0, #8
    7278:	eb40 50c2 	adc.w	r0, r0, r2, lsl #23
    727c:	bf38      	it	cc
    727e:	4770      	bxcc	lr
    7280:	f01c 0f3f 	tst.w	ip, #63	; 0x3f
    7284:	bf18      	it	ne
    7286:	4770      	bxne	lr
    7288:	e00b      	b.n	0x72a2
    728a:	f1a2 0201 	sub.w	r2, r2, #1
    728e:	ea5f 201c 	movs.w	r0, ip, lsr #8
    7292:	eb40 50c2 	adc.w	r0, r0, r2, lsl #23
    7296:	bf38      	it	cc
    7298:	4770      	bxcc	lr
    729a:	f01c 0f7f 	tst.w	ip, #127	; 0x7f
    729e:	bf18      	it	ne
    72a0:	4770      	bxne	lr
    72a2:	f1c3 0320 	rsb	r3, r3, #32
    72a6:	4099      	lsls	r1, r3
    72a8:	bf14      	ite	ne
    72aa:	1e40      	subne	r0, r0, #1
    72ac:	f020 0001 	biceq.w	r0, r0, #1
    72b0:	4770      	bx	lr
    72b2:	0880      	lsrs	r0, r0, #2
    72b4:	ea4f 2312 	mov.w	r3, r2, lsr #8
    72b8:	bf08      	it	eq
    72ba:	4770      	bxeq	lr
    72bc:	fab0 fc80 	clz	ip, r0
    72c0:	eba2 020c 	sub.w	r2, r2, ip
    72c4:	f1cc 0c28 	rsb	ip, ip, #40	; 0x28
    72c8:	fa60 f00c 	ror.w	r0, r0, ip
    72cc:	ea93 2f12 	teq	r3, r2, lsr #8
    72d0:	bf04      	itt	eq
    72d2:	eb00 50c2 	addeq.w	r0, r0, r2, lsl #23
    72d6:	4770      	bxeq	lr
    72d8:	ea4f 70c3 	mov.w	r0, r3, lsl #31
    72dc:	4770      	bx	lr
    72de:	0a13      	lsrs	r3, r2, #8
    72e0:	ea5f 10dc 	movs.w	r0, ip, lsr #7
    72e4:	bf08      	it	eq
    72e6:	4770      	bxeq	lr
    72e8:	e7f6      	b.n	0x72d8
    72ea:	ea9c 6f02 	teq	ip, r2, lsl #24
    72ee:	d004      	beq.n	0x72fa
    72f0:	ea10 0f5c 	tst.w	r0, ip, lsr #1
    72f4:	bf08      	it	eq
    72f6:	2000      	moveq	r0, #0
    72f8:	4770      	bx	lr
    72fa:	b510      	push	{r4, lr}
    72fc:	f7ff ff03 	bl	0x7106
    7300:	df40      	svc	64	; 0x40
    7302:	3ef6      	subs	r6, #246	; 0xf6
    7304:	f081 4000 	eor.w	r0, r1, #2147483648	; 0x80000000
    7308:	4770      	bx	lr
    730a:	f00c 030f 	and.w	r3, ip, #15
    730e:	2b09      	cmp	r3, #9
    7310:	bf08      	it	eq
    7312:	2008      	moveq	r0, #8
    7314:	f000 805b 	beq.w	0x73ce
    7318:	2b0a      	cmp	r3, #10
    731a:	d00b      	beq.n	0x7334
    731c:	2b08      	cmp	r3, #8
    731e:	bf18      	it	ne
    7320:	4770      	bxne	lr
    7322:	bf08      	it	eq
    7324:	f01c 0f40 	tsteq.w	ip, #64	; 0x40
    7328:	d00a      	beq.n	0x7340
    732a:	f04f 0000 	mov.w	r0, #0
    732e:	f04f 0100 	mov.w	r1, #0
    7332:	4770      	bx	lr
    7334:	f01c 0f40 	tst.w	ip, #64	; 0x40
    7338:	bf18      	it	ne
    733a:	f04f 4000 	movne.w	r0, #2147483648	; 0x80000000
    733e:	4770      	bx	lr
    7340:	f01c 0f10 	tst.w	ip, #16
    7344:	d008      	beq.n	0x7358
    7346:	f020 4370 	bic.w	r3, r0, #4026531840	; 0xf0000000
    734a:	f000 427f 	and.w	r2, r0, #4278190080	; 0xff000000
    734e:	ea42 01d3 	orr.w	r1, r2, r3, lsr #3
    7352:	ea4f 7043 	mov.w	r0, r3, lsl #29
    7356:	4770      	bx	lr
    7358:	f000 4060 	and.w	r0, r0, #3758096384	; 0xe0000000
    735c:	f021 427f 	bic.w	r2, r1, #4278190080	; 0xff000000
    7360:	ea42 0200 	orr.w	r2, r2, r0
    7364:	f001 407f 	and.w	r0, r1, #4278190080	; 0xff000000
    7368:	ea40 7072 	orr.w	r0, r0, r2, ror #29
    736c:	4770      	bx	lr
    736e:	f04f 0cff 	mov.w	ip, #255	; 0xff
    7372:	f44c 6ce0 	orr.w	ip, ip, #1792	; 0x700
    7376:	ea1c 5311 	ands.w	r3, ip, r1, lsr #20
    737a:	bf1c      	itt	ne
    737c:	ea9c 0c03 	eorsne.w	ip, ip, r3
    7380:	4594      	cmpne	ip, r2
    7382:	bfc2      	ittt	gt
    7384:	42da      	cmngt	r2, r3
    7386:	eb01 5102 	addgt.w	r1, r1, r2, lsl #20
    738a:	4770      	bxgt	lr
    738c:	2b00      	cmp	r3, #0
    738e:	d00d      	beq.n	0x73ac
    7390:	f1bc 0f00 	cmp.w	ip, #0
    7394:	d00f      	beq.n	0x73b6
    7396:	2a00      	cmp	r2, #0
    7398:	f001 4100 	and.w	r1, r1, #2147483648	; 0x80000000
    739c:	bfa4      	itt	ge
    739e:	f041 41e0 	orrge.w	r1, r1, #1879048192	; 0x70000000
    73a2:	f041 617f 	orrge.w	r1, r1, #267386880	; 0xff00000
    73a6:	f04f 0000 	mov.w	r0, #0
    73aa:	4770      	bx	lr
    73ac:	f001 4100 	and.w	r1, r1, #2147483648	; 0x80000000
    73b0:	f04f 0000 	mov.w	r0, #0
    73b4:	4770      	bx	lr
    73b6:	ea50 3301 	orrs.w	r3, r0, r1, lsl #12
    73ba:	f04f 0c9b 	mov.w	ip, #155	; 0x9b
    73be:	bf18      	it	ne
    73c0:	f04c 6c80 	orrne.w	ip, ip, #67108864	; 0x4000000
    73c4:	f47e ae3e 	bne.w	0x6044
    73c8:	f3af 8000 	nop.w
    73cc:	4770      	bx	lr
    73ce:	f41c 1f80 	tst.w	ip, #1048576	; 0x100000
    73d2:	d011      	beq.n	0x73f8
    73d4:	f41c 2fe0 	tst.w	ip, #458752	; 0x70000
    73d8:	d003      	beq.n	0x73e2
    73da:	ea6f 31cc 	mvn.w	r1, ip, lsl #15
    73de:	0049      	lsls	r1, r1, #1
    73e0:	4770      	bx	lr
    73e2:	f04f 5040 	mov.w	r0, #805306368	; 0x30000000
    73e6:	f3ef 8200 	mrs	r2, CPSR
    73ea:	f022 4270 	bic.w	r2, r2, #4026531840	; 0xf0000000
    73ee:	ea42 0200 	orr.w	r2, r2, r0
    73f2:	f382 8800 	msr	CPSR_f, r2
    73f6:	4770      	bx	lr
    73f8:	f04f 0000 	mov.w	r0, #0
    73fc:	4770      	bx	lr
    73fe:	0000      	movs	r0, r0
    7400:	bb4f      	cbnz	r7, 0x7456
    7402:	0561      	lsls	r1, r4, #21
    7404:	ac67      	add	r4, sp, #412	; 0x19c
    7406:	3fdd      	subs	r7, #221	; 0xdd
    7408:	2d18      	cmp	r5, #24
    740a:	5444      	strb	r4, [r0, r1]
    740c:	21fb      	movs	r1, #251	; 0xfb
    740e:	3fe9      	subs	r7, #233	; 0xe9
    7410:	f69b d281 	bl	0xff2a2916
    7414:	730b      	strb	r3, [r1, #12]
    7416:	3fef      	subs	r7, #239	; 0xef
    7418:	2d18      	cmp	r5, #24
    741a:	5444      	strb	r4, [r0, r1]
    741c:	21fb      	movs	r1, #251	; 0xfb
    741e:	3ff9      	subs	r7, #249	; 0xf9
    7420:	65e2      	str	r2, [r4, #92]	; 0x5c
    7422:	222f      	movs	r2, #47	; 0x2f
    7424:	2b7f      	cmp	r3, #127	; 0x7f
    7426:	3c7a      	subs	r4, #122	; 0x7a
    7428:	5c07      	ldrb	r7, [r0, r0]
    742a:	3314      	adds	r3, #20
    742c:	a626      	add	r6, pc, #152	; (adr r6, 0x74c8)
    742e:	3c81      	subs	r4, #129	; 0x81
    7430:	cbbd      	ldmia	r3, {r0, r2, r3, r4, r5, r7}
    7432:	7af0      	ldrb	r0, [r6, #11]
    7434:	0788      	lsls	r0, r1, #30
    7436:	3c70      	subs	r4, #112	; 0x70
    7438:	5c07      	ldrb	r7, [r0, r0]
    743a:	3314      	adds	r3, #20
    743c:	a626      	add	r6, pc, #152	; (adr r6, 0x74d8)
    743e:	3c91      	subs	r4, #145	; 0x91
    7440:	ebc4 9998 			; <UNDEFINED> instruction: 0xebc49998
    7444:	9999      	ldr	r1, [sp, #612]	; 0x264
    7446:	bfc9      	itett	gt
    7448:	1671      	asrgt	r1, r6, #25
    744a:	fe23 71c6 	cdp2le	1, 2, cr7, cr3, cr6, {6}
    744e:	bfbc      	itt	lt	; unpredictable <IT:gt>
    7450:	9a6d      	ldrlt	r2, [sp, #436]	; 0x1b4
    7452:	af74      	addlt	r7, sp, #464	; 0x1d0
    7454:	b0f2      	sub	sp, #456	; 0x1c8
    7456:	bfb3      	iteet	lt
    7458:	fd9a 52de 	ldc2lt	2, cr5, [sl, #888]	; 0x378
    745c:	de2d      	udfge	#45	; 0x2d
    745e:	bfad      	iteet	ge	; unpredictable <IT:ge>
    7460:	6c2f      	ldrge	r7, [r5, #64]	; 0x40
    7462:	2c6a      	cmplt	r4, #106	; 0x6a
    7464:	b444      	pushlt	{r2, r6}
    7466:	bfa2      	ittt	ge	; unpredictable <IT:ge>
    7468:	550d      	strbge	r5, [r1, r4]
    746a:	5555      	strbge	r5, [r2, r5]
    746c:	5555      	strbge	r5, [r2, r5]
    746e:	3fd5      	subs	r7, #213	; 0xd5
    7470:	83ff      	strh	r7, [r7, #30]
    7472:	9200      	str	r2, [sp, #0]
    7474:	4924      	ldr	r1, [pc, #144]	; (0x7508)
    7476:	3fc2      	subs	r7, #194	; 0xc2
    7478:	206e      	movs	r0, #110	; 0x6e
    747a:	c54c      	stmia	r5!, {r2, r3, r6}
    747c:	45cd      	cmp	sp, r9
    747e:	3fb7      	subs	r7, #183	; 0xb7
    7480:	3d51      	subs	r5, #81	; 0x51
    7482:	a0d0      	add	r0, pc, #832	; (adr r0, 0x77c4)
    7484:	0d66      	lsrs	r6, r4, #21
    7486:	3fb1      	subs	r7, #177	; 0xb1
    7488:	0deb      	lsrs	r3, r5, #23
    748a:	2476      	movs	r4, #118	; 0x76
    748c:	7b4b      	ldrb	r3, [r1, #13]
    748e:	3fa9      	subs	r7, #169	; 0xa9
    7490:	da11      	bge.n	0x74b6
    7492:	e322      	b.n	0x7ada
    7494:	ad3a      	add	r5, sp, #232	; 0xe8
    7496:	3f90      	subs	r7, #144	; 0x90
    7498:	554c      	strb	r4, [r1, r5]
    749a:	5555      	strb	r5, [r2, r5]
    749c:	5555      	strb	r5, [r2, r5]
    749e:	3fa5      	subs	r7, #165	; 0xa5
    74a0:	5177      	str	r7, [r6, r5]
    74a2:	16c1      	asrs	r1, r0, #27
    74a4:	c16c      	stmia	r1!, {r2, r3, r5, r6}
    74a6:	bf56      	itet	pl
    74a8:	1590      	asrpl	r0, r2, #22
    74aa:	19cb      	addmi	r3, r1, r7
    74ac:	01a0      	lslpl	r0, r4, #6
    74ae:	3efa      	subs	r6, #250	; 0xfa
    74b0:	52ad      	strh	r5, [r5, r2]
    74b2:	809c      	strh	r4, [r3, #4]
    74b4:	7e4f      	ldrb	r7, [r1, #25]
    74b6:	be92      	bkpt	0x0092
    74b8:	b1c4      	cbz	r4, 0x74ec
    74ba:	bdb4      	pop	{r2, r4, r5, r7, pc}
    74bc:	ee9e 3e21 	cdp	14, 9, cr3, cr14, cr1, {1}
    74c0:	38d4      	subs	r0, #212	; 0xd4
    74c2:	be88      	bkpt	0x0088
    74c4:	fae9 bda8 			; <UNDEFINED> instruction: 0xfae9bda8
	...
    74d0:	0000      	movs	r0, r0
    74d2:	5440      	strb	r0, [r0, r1]
    74d4:	21fb      	movs	r1, #251	; 0xfb
    74d6:	3ff9      	subs	r7, #249	; 0xf9
    74d8:	6331      	str	r1, [r6, #48]	; 0x30
    74da:	1a62      	subs	r2, r4, r1
    74dc:	b461      	push	{r0, r5, r6}
    74de:	3dd0      	subs	r5, #208	; 0xd0
    74e0:	0000      	movs	r0, r0
    74e2:	1a60      	subs	r0, r4, r1
    74e4:	b461      	push	{r0, r5, r6}
    74e6:	3dd0      	subs	r5, #208	; 0xd0
    74e8:	7073      	strb	r3, [r6, #1]
    74ea:	2e03      	cmp	r6, #3
    74ec:	198a      	adds	r2, r1, r6
    74ee:	3ba3      	subs	r3, #163	; 0xa3
    74f0:	0000      	movs	r0, r0
    74f2:	2e00      	cmp	r6, #0
    74f4:	198a      	adds	r2, r1, r6
    74f6:	3ba3      	subs	r3, #163	; 0xa3
    74f8:	49c1      	ldr	r1, [pc, #772]	; (0x7800)
    74fa:	2520      	movs	r5, #32
    74fc:	839a      	strh	r2, [r3, #28]
    74fe:	397b      	subs	r1, #123	; 0x7b
	...
    7508:	836e      	strh	r6, [r5, #26]
    750a:	a2f9      	add	r2, pc, #996	; (adr r2, 0x78f0)
    750c:	1529      	asrs	r1, r5, #20
    750e:	4e44      	ldr	r6, [pc, #272]	; (0x7620)
    7510:	57d1      	ldrsb	r1, [r2, r7]
    7512:	fc27 ddc0 	stc2	13, cr13, [r7], #-768	; 0xfffffd00
    7516:	f534 9599 	b.w	0xff13c04c
    751a:	db62      	blt.n	0x75e2
    751c:	9041      	str	r0, [sp, #260]	; 0x104
    751e:	3c43      	subs	r4, #67	; 0x43
    7520:	63ab      	str	r3, [r5, #56]	; 0x38
    7522:	fe51 c561 	cdp2	5, 5, cr12, cr1, cr1, {3}
    7526:	debb      	udf	#187	; 0xbb
    7528:	6e3a      	ldr	r2, [r7, #96]	; 0x60
    752a:	b724      			; <UNDEFINED> instruction: 0xb724
    752c:	d2e0      	bcs.n	0x74f0
    752e:	424d      	negs	r5, r1
    7530:	2eea      	cmp	r6, #234	; 0xea
    7532:	0649      	lsls	r1, r1, #25
    7534:	921c      	str	r2, [sp, #112]	; 0x70
    7536:	09d1      	lsrs	r1, r2, #7
    7538:	eb1c fe1d 			; <UNDEFINED> instruction: 0xeb1cfe1d
    753c:	a73e      	add	r7, pc, #248	; (adr r7, 0x7638)
    753e:	b129      	cbz	r1, 0x754c
    7540:	35f5      	adds	r5, #245	; 0xf5
    7542:	e882 4484 	stmia.w	r2, {r2, r7, sl, lr}
    7546:	2ebb      	cmp	r6, #187	; 0xbb
    7548:	7026      	strb	r6, [r4, #0]
    754a:	e99c 7e41 			; <UNDEFINED> instruction: 0xe99c7e41
    754e:	b45f      	push	{r0, r1, r2, r3, r4, r6}
    7550:	d639      	bvs.n	0x75c6
    7552:	3991      	subs	r1, #145	; 0x91
    7554:	39f4      	subs	r1, #244	; 0xf4
    7556:	8353      	strh	r3, [r2, #26]
    7558:	5f8b      	ldrsh	r3, [r1, r6]
    755a:	9c84      	ldr	r4, [sp, #528]	; 0x210
    755c:	283b      	cmp	r0, #59	; 0x3b
    755e:	bdf9      	pop	{r0, r3, r4, r5, r6, r7, pc}
    7560:	97ff      	str	r7, [sp, #1020]	; 0x3fc
    7562:	1ff8      	subs	r0, r7, #7
    7564:	980f      	ldr	r0, [sp, #60]	; 0x3c
    7566:	de05      	udf	#5
    7568:	118b      	asrs	r3, r1, #6
    756a:	ef2f 6d1f 	vmls.f32	d6, d15, d15
    756e:	5a0a      	ldrh	r2, [r1, r0]
    7570:	7ecf      	ldrb	r7, [r1, #27]
    7572:	6d36      	ldr	r6, [r6, #80]	; 0x50
    7574:	09b7      	lsrs	r7, r6, #6
    7576:	27cb      	movs	r7, #203	; 0xcb
    7578:	3f66      	subs	r7, #102	; 0x66
    757a:	4f46      	ldr	r7, [pc, #280]	; (0x7694)
    757c:	ea2d 9e5f 			; <UNDEFINED> instruction: 0xea2d9e5f
    7580:	bac7      	revsh	r7, r0
    7582:	7527      	strb	r7, [r4, #20]
    7584:	f17b ebe5 			; <UNDEFINED> instruction: 0xf17bebe5
    7588:	39f7      	subs	r1, #247	; 0xf7
    758a:	3d07      	subs	r5, #7
    758c:	92ea      	str	r2, [sp, #936]	; 0x3a8
    758e:	8a52      	ldrh	r2, [r2, #18]
    7590:	5fb1      	ldrsh	r1, [r6, r6]
    7592:	6bfb      	ldr	r3, [r7, #60]	; 0x3c
    7594:	5d08      	ldrb	r0, [r1, r4]
    7596:	1f8d      	subs	r5, r1, #6
    7598:	f8a6 1110 	strh.w	r1, [r6, #272]	; 0x110
    759c:	1111      	asrs	r1, r2, #4
    759e:	3f81      	subs	r7, #129	; 0x81
    75a0:	61d5      	str	r5, [r2, #28]
    75a2:	19c1      	adds	r1, r0, r7
    75a4:	01a0      	lsls	r0, r4, #6
    75a6:	bf2a      	itet	cs
    75a8:	fe7d 57b1 	mrc2cs	7, 3, r5, cr13, cr1, {5}
    75ac:	1de3      	addcc	r3, r4, #7
    75ae:	3ec7      	subcs	r6, #199	; 0xc7
    75b0:	9ceb      	ldr	r4, [sp, #940]	; 0x3ac
    75b2:	8a2b      	ldrh	r3, [r5, #16]
    75b4:	e5e6      	b.n	0x7184
    75b6:	be5a      	bkpt	0x005a
    75b8:	d57c      	bpl.n	0x76b4
    75ba:	5acf      	ldrh	r7, [r1, r3]
    75bc:	d93a      	bls.n	0x7634
    75be:	3de5      	subs	r5, #229	; 0xe5
    75c0:	75e0      	strb	r0, [r4, #23]
    75c2:	0800      	lsrs	r0, r0, #32
    75c4:	0000      	movs	r0, r0
    75c6:	2000      	movs	r0, #0
    75c8:	00a4      	lsls	r4, r4, #2
    75ca:	0000      	movs	r0, r0
    75cc:	016c      	lsls	r4, r5, #5
    75ce:	0800      	lsrs	r0, r0, #32
    75d0:	7684      	strb	r4, [r0, #26]
    75d2:	0800      	lsrs	r0, r0, #32
    75d4:	00a4      	lsls	r4, r4, #2
    75d6:	2000      	movs	r0, #0
    75d8:	18bc      	adds	r4, r7, r2
    75da:	0000      	movs	r0, r0
    75dc:	0188      	lsls	r0, r1, #6
    75de:	0800      	lsrs	r0, r0, #32
	...
    75f8:	0000      	movs	r0, r0
    75fa:	3f80      	subs	r7, #128	; 0x80
    75fc:	0000      	movs	r0, r0
    75fe:	4040      	eors	r0, r0
    7600:	0000      	movs	r0, r0
    7602:	4110      	asrs	r0, r2
    7604:	0000      	movs	r0, r0
    7606:	41d8      	rors	r0, r3
    7608:	0000      	movs	r0, r0
    760a:	42a2      	cmp	r2, r4
    760c:	0000      	movs	r0, r0
    760e:	42c8      	cmn	r0, r1
    7610:	0000      	movs	r0, r0
    7612:	447a      	add	r2, pc
    7614:	4000      	ands	r0, r0
    7616:	461c      	mov	r4, r3
    7618:	5000      	str	r0, [r0, r0]
    761a:	47c3      			; <UNDEFINED> instruction: 0x47c3
	...
    7628:	0013      	movs	r3, r2
	...
    763a:	0000      	movs	r0, r0
    763c:	0001      	movs	r1, r0
    763e:	0000      	movs	r0, r0
    7640:	0000      	movs	r0, r0
    7642:	0000      	movs	r0, r0
    7644:	0001      	movs	r1, r0
	...
    764e:	0000      	movs	r0, r0
    7650:	0001      	movs	r1, r0
    7652:	0000      	movs	r0, r0
    7654:	0001      	movs	r1, r0
    7656:	0000      	movs	r0, r0
    7658:	0001      	movs	r1, r0
    765a:	0000      	movs	r0, r0
    765c:	ffff ffff 			; <UNDEFINED> instruction: 0xffffffff
    7660:	0000      	movs	r0, r0
    7662:	0001      	movs	r1, r0
	...
    7674:	0201      	lsls	r1, r0, #8
    7676:	0403      	lsls	r3, r0, #16
    7678:	0201      	lsls	r1, r0, #8
    767a:	0403      	lsls	r3, r0, #16
    767c:	0706      	lsls	r6, r0, #28
    767e:	0908      	lsrs	r0, r1, #4
    7680:	0402      	lsls	r2, r0, #16
    7682:	0806      	lsrs	r6, r0, #32
