ARM GAS  1.s 			page 1


   1              		@ stm32f030f4p6 asm 
   2              		 .thumb                 
   3              	         .syntax unified
   4              	.section .data	
   5              	        	.equ STACKINIT,          0x20000300
   6              			.equ shumaguanma,	0x20000000
   7 0000 FC000000 	shumaguanmabiao:	.int 0xfc,0x50,0xea,0xf2,0x56,0xb6,0xbe,0xd0,0xfe,0xfa
   7      50000000 
   7      EA000000 
   7      F2000000 
   7      56000000 
   8              	
   9              		
  10              	zhengxianbiao10000:	
  11 0028 14141515 		.byte 0x14,0x14,0x15,0x15,0x16,0x16,0x17,0x17,0x18,0x18,0x18,0x19,0x19,0x1a,0x1a,0x1b,0x1b,0x1b,0x
  11      16161717 
  11      18181819 
  11      191A1A1B 
  11      1B1B1C1C 
  12              		
  13              	zhengxianbiao1000:
  14 0141 7D7F8182 		.byte 0x7d,0x7f,0x81,0x82,0x84,0x86,0x88,0x89,0x8b,0x8d,0x8e,0x90,0x92,0x94,0x95,0x97,0x99,0x9b,0x
****  Warning: zero assumed for missing expression
  14      84868889 
  14      8B8D8E90 
  14      92949597 
  14      999B9C9E 
  15              		
  16              		
  17              		
  18              	zhengxianbiao100:
  19 0303 30023402 		.short 0x230,0x234,0x237,0x23b,0x23e,0x242,0x245,0x249,0x24c,0x250,0x253,0x257,0x25a,0x25e,0x261,0
  19      37023B02 
  19      3E024202 
  19      45024902 
  19      4C025002 
  20              	
  21              		
  22              	.section .text
  23              	vectors:        
  24 0000 00030020 	        .word STACKINIT         
  25 0004 B1000000 	        .word _start + 1        
  26 0008 41020000 	        .word _nmi_handler + 1  
  27 000c 43020000 	        .word _hard_fault  + 1  
  28 0010 00000000 	        .word 0 
  29 0014 00000000 	        .word 0    
  30 0018 00000000 	        .word 0
  31 001c 00000000 		.word 0
  32 0020 00000000 		.word 0
  33 0024 00000000 		.word 0
  34 0028 00000000 		.word 0
  35 002c 45020000 		.word _svc_handler +1
  36 0030 00000000 		.word 0 
  37 0034 00000000 		.word 0
  38 0038 47020000 		.word _pendsv_handler +1
  39 003c 49020000 		.word _systick +1               @ 15   
  40 0040 00000000 		.word 0     @ _wwdg +1          @ 0
ARM GAS  1.s 			page 2


  41 0044 00000000 		.word 0     @_pvd +1            @ 1
  42 0048 00000000 		.word 0     @_rtc +1            @ 2
  43 004c 00000000 		.word 0     @_flash +1          @ 3
  44 0050 00000000 		.word 0     @ _rcc + 1          @ 4
  45 0054 00000000 		.word 0      @_exti0_1  +1      @ 5
  46 0058 00000000 		.word 0      @ _exti2_3 +1      @ 6
  47 005c 00000000 		.word 0       @_exti4_15 +1     @ 7
  48 0060 00000000 		.word 0                         @ 8
  49 0064 00000000 		.word 0         @_dma1_1  +1    @ 9
  50 0068 00000000 		.word 0    @_dma1_2_3 +1        @ 10
  51 006c 00000000 		.word 0       @_dma1_4_5 +1     @ 11
  52 0070 00000000 		.word 0      @_adc1 +1          @ 12
  53 0074 00000000 		.word 0       @_tim1_brk_up +1  @ 13
  54 0078 00000000 		.word 0        @ _tim1_cc +1    @ 14
  55 007c 00000000 		.word 0         @_tim2 +1       @ 15
  56 0080 00000000 		.word 0          @_tim3 +1      @ 16
  57 0084 00000000 		.word 0                         @ 17
  58 0088 00000000 		.word 0		                @ 18
  59 008c 55020000 		.word _tim14 +1    @ 19
  60 0090 00000000 		.word 0                         @ 20
  61 0094 00000000 		.word 0         @_tim16 +1      @ 21
  62 0098 00000000 		.word 0         @_tim17 +1      @ 22
  63 009c 00000000 		.word 0          @_i2c   +1     @ 23
  64 00a0 00000000 		.word 0                         @ 24
  65 00a4 00000000 		.word 0           @_spi   +1    @ 25
  66 00a8 00000000 		.word 0                         @ 26
  67 00ac 00000000 		.word 0         @_usart1 +1     @ 27
  68              		
  69              	_start:
  70              	shizhong:
  71 00b0 6948     		ldr r0, = 0x40021000 @ rcc
  72 00b2 6A4A     		ldr r2, = 0x40022000   @FLASH访问控制
  73 00b4 3221     		movs r1, # 0x32
  74 00b6 1160     		str r1, [r2]           @FLASH缓冲 缓冲开启
  75 00b8 6949     		ldr r1, = 0x310002     @HSE-PLL 6
  76 00ba 4160     		str r1, [r0, # 0x04]
  77 00bc 6949     		ldr r1, = 0x1090001
  78 00be 0160     		str r1, [r0]
  79              	dengrc:
  80 00c0 0168     		ldr r1, [r0]
  81 00c2 8907     		lsls r1, # 30
  82 00c4 FCD5     		bpl dengrc
  83              	dengjingzhen:
  84 00c6 0168     		ldr r1, [r0]
  85 00c8 8903     		lsls r1, # 14
  86 00ca FCD5     		bpl dengjingzhen
  87              	dengpll:
  88 00cc 0168     		ldr r1, [r0]
  89 00ce 8901     		lsls r1, # 6
  90 00d0 FCD5     		bpl dengpll
  91              		@0x34时钟控制寄存器 2 (RCC_CR2)
  92 00d2 0121     		movs r1, # 0x01
  93 00d4 4163     		str r1, [r0, # 0x34]  @ HSI开14M时钟
  94              	dengdai14mshizhongwending:
  95 00d6 416B     		ldr r1, [r0, # 0x34]
  96 00d8 8907     		lsls r1, r1, # 30     @ 左移30位
  97 00da FCD5     		bpl dengdai14mshizhongwending  @ 等待14M时钟稳定
ARM GAS  1.s 			page 3


  98              	waisheshizhong:	 @ 外设时钟              
  99              		@+0x14 #0(DMA),2(SRAM),4(FLITF),6(CRC),17(PA)
 100              		@18(PB),19(PC),20(PD),22(PF)
 101              		@+0x18 #0(SYSCFG),5(USART6),9(ADC),#11(TIM1)
 102              		@12(SPI), @14(USART1),16(TIM15),17(TIM16),
 103              		@18(TIM17),22(DBGMCU)
 104              		@+0X1C # 1(TIM3),4(TIM6),5(TIM7),8(TIM14),11(WWDG),
 105              		@14(SPI2),17(USART2),18(USART3),19(USART4),20(USART5)
 106              		@21(I2C1),22(I2C2),23(USB),28(PWR)
 107 00dc 5E48     		ldr r0, = 0x40021000
 108 00de 6249     		ldr r1, = 0x60005
 109 00e0 4161     		str r1, [r0, # 0x14]
 110 00e2 6249     		ldr r1, = 0x100
 111 00e4 C161     		str r1, [r0, # 0x1c]
 112 00e6 6249     		ldr r1, = 0x800
 113 00e8 8161     		str r1, [r0, # 0x18]
 114              	
 115              	waishezhongduan:	@外设中断
 116              		@0xE000E100    0-31 写1开，写0没效
 117              		@0XE000E180    0-31 写1关，写0没效
 118              		@0XE000E200    0-31 挂起，写0没效
 119              		@0XE000E280    0-31 清除， 写0没效
 120              	systick:
 121              		@ 0xe000ed20 30-31 优先级
 122 00ea 6248     		ldr r0, = 0xe000e010
 123 00ec 6249     		ldr r1, = 47999 @ 重载数
 124 00ee 4160     		str r1, [r0, # 4] @ 写入重载数
 125 00f0 8160     		str r1, [r0, # 8] @ 清除当前数
 126 00f2 0021     		movs r1, # 0
 127 00f4 0160     		str r1, [r0] @ 开定时器
 128              	
 129              	dmachushihua:
 130              		@+0=LSR,+4=IFCR,
 131              		@+8=CCR1,+c=CNDTR1,+10=CPAR1+14=CMAR1,
 132              		@+1c=CCR2,+20=CNDTR2,+24=CPAR2,+28=CMAR2
 133              		@+30=CCR3,+34=CNDTR3,+38=CPAR2,+3c=CMAR3
 134              		@+44=CCR4,+48=CNDTR4,+4c=CPAR4,+50=CMAR4
 135              		@+58=CCR5,+5c=CNDTR5,+60=CPAR5,+64=CMAR5
 136              		@+6C=CCR6,+70=CNDTR6,+74=CPAR6,+78=CMAR6
 137              		@+80=CCR7,+84=CNDTR7,+88=CPAR7,+8c=CMAR7
 138 00f6 6148     		ldr r0, = 0x40020000
 139 00f8 6149     		ldr r1, = 0x40012c3c @ 外设地址
 140 00fa 0166     		str r1, [r0, # 0x60]
 141 00fc 6149     		ldr r1, = zhengxianbiao10000 @ 储存器地址
 142 00fe 4166     		str r1, [r0, # 0x64]
 143 0100 6149     		ldr r1, = 280        @ 正弦点数
 144              				     @10k=280
 145              				     @1k=448
 146              				     @100HZ= 1000
 147 0102 C165     		str r1, [r0, # 0x5c]
 148 0104 6149     		ldr r1, = 0x21b1         @ 21b1 8位到16位
 149              			                 @ 25B1 16位到16位
 150              		                         @储存到外设
 151 0106 8165     		str r1, [r0, # 0x58]
 152              	
 153              	tim1chushiha:
 154 0108 6148     		ldr r0, = 0x40012c00 @ tim1_cr1
ARM GAS  1.s 			page 4


 155 010a 0021     		movs r1, # 0
 156 010c 8162     		str r1, [r0, # 0x28] @ psc
 157 010e 2821     		ldr r1, = 40         @ 10k=40
 158              				     @ 1k=250
 159 0110 C162     		str r1, [r0, # 0x2c] @ ARR
 160 0112 6021     		ldr r1, = 0x60
 161 0114 C161     		str r1, [r0, # 0x1c] @ ccmr2  CC3
 162 0116 5F49     		ldr r1, = 0xd00    @  CC3 互补
 163 0118 0162     		str r1, [r0, # 0x20] @ ccer
 164 011a 5F49     		ldr r1, = 0x8000
 165 011c 4164     		str r1, [r0, # 0x44] @ BDTR
 166 011e 5449     		ldr r1, = 0x800 @ CC3 DMA
 167 0120 C160     		str r1, [r0, # 0x0c] @ DIER
 168 0122 8121     		ldr r1, = 0x81
 169 0124 0160     		str r1, [r0]
 170              		
 171              	
 172              		
 173              	io_she_zhi:
 174              	@@@@@@@@@@@@@@@@@@@@@@@@@@@@@@@@@@@@@@@@@@@@@@@@@@@@@@@@@@@@@@@@@@@@@@@@@@@@@@@@@@@@@@@@@@@@@@
 175              		@a(0x48000000)b(0x48000400)c(0x48000800)d(0x48000c00)f(0x48001400)
 176              		@ 输入（00），通用输出（01），复用功能（10），模拟（11）
 177              		@偏移0x4 = 端口输出类型 @ （0 推挽），（ 1 开漏）
 178              		@偏移0x8 = 输出速度  00低速， 01中速， 11高速
 179              		@偏移0xC = 上拉下拉 00无上下拉，  01 上拉， 10下拉
 180              		@偏移0x10 = 输入数据寄存器
 181              		@偏移0x14 = 输出数据寄存器
 182              		@偏移0x18 = 端口开  0-15置位 
 183              		@偏移0x28 = 端口关
 184              		@0X20 = 复用低
 185              		@GPIO口0（0-3位）每个IO口占用4位
 186              		@ AF0 = 0X0000, AF1 = 0X0001, AF2 = 0X0010 AF3 = 0X0011, AF4 = 0X0100
 187              		@ AF5 = 0X0101, AF6 = 0X0111, AF7 = 0X1000
 188              		@0x24 = 复用高
 189              		@GPIO口8 （0-3位）每个IO口占用4位
 190              		@ AF0 = 0X0000, AF1 = 0X0001, AF2 = 0X0010 AF3 = 0X0011, AF4 = 0X0100
 191              		@ AF5 = 0X0101, AF6 = 0X0111, AF7 = 0X1000
 192              	@@@@@@@@@@@@@@@@@@@@@@@@@@@@@@@@@@@@@@@@@@@@@@@@@@@@@@@@@@@@@@@@@@@@@@@@@@@@@@@@@@@@@@@@@@@@@@
 193 0126 5D48     		ldr r0, = 0x48000000 @ gpio_a
 194 0128 5D49     		ldr r1, = 0x28205600 @ pa4
 195 012a 0160     		str r1, [r0]
 196 012c 8168     		ldr r1, [r0, # 0x08]
 197 012e 5D4A     		ldr r2, = 0xfc00
 198 0130 1143     		orrs r1, r2
 199 0132 8160     		str r1, [r0, # 0x08]
 200 0134 5C49     		ldr r1, = 0x40000 @ tim14映射到PA4
 201 0136 0162     		str r1, [r0, # 0x20] @ ARRL
 202 0138 5C49     		ldr r1, = 0x200     @ tim1_ch3到PA10
 203 013a 4162     		str r1, [r0, # 0x24] @ ARRH
 204 013c 5C48     		ldr r0, = 0x48000400
 205 013e 0821     		movs r1, # 0x08 @ pb1
 206 0140 0160     		str r1, [r0]
 207 0142 2021     		movs r1, # 0x20 @ tim1_ch3n到PB1
 208 0144 0162     		str r1, [r0, # 0x20] @ ARRL
 209              	
 210              	
 211              	tingzhu:
ARM GAS  1.s 			page 5


 212 0146 5B48     		ldr r0, = 0x4002005c
 213 0148 0068     		ldr r0, [r0]
 214 014a 0821     		movs r1, # 8
 215 014c 5A4A     		ldr r2, = shumaguanma
 216 014e 00F005F8 		bl zhuanshumaguanma
 217 0152 0826     		movs r6, # 8
 218 0154 B600     		lsls r6, # 2
 219 0156 00F014F8 		bl xieshumaguan
 220 015a F4E7     		b tingzhu
 221              	
 222              		zhuanshumaguanma:@ 16进制转数码管码
 223              			@ R0要转的数据， R1长度，R2结果表首地址
 224 015c FFB5     		push {r0-r7,lr}
 225 015e 574F     		ldr r7, = shumaguanmabiao
 226 0160 0A25     		movs r5, # 10
 227 0162 AB46     		mov r11, r5
 228              	xunhuanqiuma:
 229 0164 8446     		mov r12, r0
 230 0166 00F041F8 		bl chufa
 231 016a 6446     		mov r4, r12
 232 016c 6C43     		muls r4, r5
 233 016e 2646     		mov r6, r4
 234 0170 831B     		subs r3, r0, r6
 235 0172 9B00     		lsls r3, # 2
 236 0174 FE58     		ldr r6, [r7, r3]
 237 0176 1660     		str r6, [r2]
 238 0178 0432     		adds r2, r2, # 4
 239 017a 6046     		mov r0, r12
 240 017c 0139     		subs r1, # 1
 241 017e F1D1     		bne xunhuanqiuma
 242 0180 FFBD     		pop {r0-r7,pc}
 243              		
 244              	xieshumaguan: @ r6=位数 @数码管码
 245 0182 FFB5     		push {r0-r7,lr}
 246 0184 4E49     		ldr r1, = 0x7f7f7f7f
 247 0186 0122     		movs r2, # 0x01
 248 0188 0027     		movs r7, # 0
 249 018a 4B4D     		ldr r5, = shumaguanma
 250              	shumaguanshuaxin:
 251 018c EB59     		ldr r3, [r5, r7]
 252 018e 0C0E     		lsrs r4, r1, # 24
 253 0190 2402     		lsls r4, r4, # 8
 254 0192 1C43     		orrs r4, r4, r3
 255 0194 A446     		mov r12, r4
 256 0196 00F005F8 		bl xie595
 257 019a D141     		rors r1, r2
 258 019c 0437     		adds  r7, r7, # 4
 259 019e B742     		cmp r7, r6
 260 01a0 F4D3     		bcc shumaguanshuaxin
 261 01a2 FFBD     		pop {r0-r7,pc}
 262              		
 263              	xie595: @ R12=要写的数据
 264 01a4 FFB5     		push {r0-r7,lr}
 265 01a6 4020     		movs r0, # 0x40
 266 01a8 8027     		movs r7, # 0x80 
 267 01aa 2026     		movs r6, # 0x20 
 268 01ac 6546     		mov r5, r12
ARM GAS  1.s 			page 6


 269 01ae 1023     		movs r3, # 16   @16位
 270 01b0 3A4A     		ldr r2, = 0x48000000 @ gpioa
 271 01b2 0121     		movs r1, # 0x01
 272              	xunhuan595:
 273 01b4 9661     		str r6, [r2, # 0x18]
 274 01b6 00F014F8 		bl yanshi
 275 01ba 0D42     		tst r5, r1
 276 01bc 01D1     		bne xie595_0
 277 01be 9762     		str r7, [r2, # 0x28]
 278 01c0 00E0     		b suocun595
 279              	xie595_0:
 280 01c2 9761     		str r7, [r2, # 0x18]
 281              	suocun595:
 282 01c4 00F00DF8 		bl yanshi
 283 01c8 6D08     		lsrs r5, # 1
 284 01ca 9662     		str r6, [r2, # 0x28]
 285 01cc 00F009F8 		bl yanshi
 286 01d0 013B     		subs r3, r3, # 1
 287 01d2 EFD1     		bne xunhuan595
 288 01d4 9061     		str r0, [r2, # 0x18]
 289 01d6 00F004F8 		bl yanshi
 290 01da 9062     		str r0, [r2, # 0x28]
 291 01dc 00F001F8 		bl yanshi
 292 01e0 FFBD     		pop {r0-r7,pc}
 293              	
 294              	yanshi:
 295 01e2 FFB5     		push {r0-r7,lr}
 296 01e4 0A20     		ldr r0, = 10
 297              	yanshi1:
 298 01e6 0138     		subs r0, # 1
 299 01e8 FDD1     		bne yanshi1
 300 01ea FFBD     		pop {r0-r7,pc}
 301              		
 302              	chufa:	@软件除法
 303              		@ r12 除以 R11
 304 01ec FFB5     		push {r0-r7,lr}
 305 01ee 6646     		mov r6, r12
 306 01f0 002E     		cmp r6, # 0
 307 01f2 1BD0     		beq chufafanhui
 308 01f4 5F46     		mov r7, r11
 309 01f6 002F     		cmp r7, # 0
 310 01f8 18D0     		beq chufafanhui
 311 01fa 0020     		movs r0, # 0
 312              	chufaxunhuan:
 313 01fc B446     		mov r12, r6
 314 01fe 00F016F8 		bl jianceweishu
 315 0202 6246     		mov r2, r12
 316 0204 BC46     		mov r12, r7
 317 0206 00F012F8 		bl jianceweishu
 318 020a 6346     		mov r3, r12
 319 020c 9A1A     		subs r2, r3, r2
 320 020e 3C46     		mov r4, r7
 321 0210 9440     		lsls r4, r2
 322 0212 2346     		mov r3, r4
 323 0214 9E42     		cmp r6, r3
 324 0216 00D3     		bcc dd1
 325 0218 01E0     		b dd2
ARM GAS  1.s 			page 7


 326              	dd1:
 327 021a 013A     		subs r2, r2, # 1
 328 021c 5B08     		lsrs r3, # 1
 329              	dd2:
 330 021e F61A     		subs r6, r6, r3
 331 0220 0123     		movs r3, # 1
 332 0222 9340     		lsls r3, r2
 333 0224 1843     		orrs  r0, r3
 334 0226 BE42     		cmp r6, r7
 335 0228 E8D2     		bcs chufaxunhuan
 336 022a 8446     		mov r12, r0
 337              	chufafanhui:
 338 022c FFBD     		pop {r0-r7,pc}
 339              	
 340              	jianceweishu:
 341 022e FFB5     		push {r0-r7,lr}
 342 0230 0020     		movs r0, # 0
 343 0232 6146     		mov r1, r12
 344              	jianceweishu1:
 345 0234 02D4     		bmi weishufanhui
 346 0236 0130     		adds r0, r0, # 1
 347 0238 4900     		lsls r1, # 1
 348 023a FBE7     		b jianceweishu1
 349              	weishufanhui:
 350 023c 8446     		mov r12, r0
 351 023e FFBD     		pop {r0-r7,pc}
 352              	
 353              	_nmi_handler:
 354 0240 7047     		bx lr
 355              	_hard_fault:
 356 0242 7047     		bx lr
 357              	_svc_handler:
 358 0244 7047     		bx lr
 359              	_pendsv_handler:
 360 0246 7047     		bx lr
 361              	_systick:
 362 0248 FFB5     		push {r0-r7,lr}
 363 024a 1E48     		ldr r0, = 0x20000300
 364 024c 0168     		ldr r1, [r0]
 365 024e 0131     		adds r1, r1, # 1
 366 0250 0160     		str r1, [r0]
 367 0252 FFBD     		pop {r0-r7,pc}
 368              	_tim14:
 369              	tim14ting:
 370 0254 70470000 		bx lr
 370      00100240 
 370      00200240 
 370      02003100 
 370      01000901 
ARM GAS  1.s 			page 8


DEFINED SYMBOLS
                 1.s:5      *ABS*:20000300 STACKINIT
                 1.s:6      *ABS*:20000000 shumaguanma
                 1.s:7      .data:00000000 shumaguanmabiao
                 1.s:10     .data:00000028 zhengxianbiao10000
                 1.s:13     .data:00000141 zhengxianbiao1000
                 1.s:18     .data:00000303 zhengxianbiao100
                 1.s:23     .text:00000000 vectors
                 1.s:69     .text:000000b0 _start
                 1.s:353    .text:00000240 _nmi_handler
                 1.s:355    .text:00000242 _hard_fault
                 1.s:357    .text:00000244 _svc_handler
                 1.s:359    .text:00000246 _pendsv_handler
                 1.s:361    .text:00000248 _systick
                 1.s:368    .text:00000254 _tim14
                 1.s:70     .text:000000b0 shizhong
                            .text:00000000 $d
                 1.s:71     .text:000000b0 $t
                 1.s:79     .text:000000c0 dengrc
                 1.s:83     .text:000000c6 dengjingzhen
                 1.s:87     .text:000000cc dengpll
                 1.s:94     .text:000000d6 dengdai14mshizhongwending
                 1.s:98     .text:000000dc waisheshizhong
                 1.s:115    .text:000000ea waishezhongduan
                 1.s:120    .text:000000ea systick
                 1.s:129    .text:000000f6 dmachushihua
                 1.s:153    .text:00000108 tim1chushiha
                 1.s:173    .text:00000126 io_she_zhi
                 1.s:211    .text:00000146 tingzhu
                 1.s:222    .text:0000015c zhuanshumaguanma
                 1.s:244    .text:00000182 xieshumaguan
                 1.s:228    .text:00000164 xunhuanqiuma
                 1.s:302    .text:000001ec chufa
                 1.s:250    .text:0000018c shumaguanshuaxin
                 1.s:263    .text:000001a4 xie595
                 1.s:272    .text:000001b4 xunhuan595
                 1.s:294    .text:000001e2 yanshi
                 1.s:279    .text:000001c2 xie595_0
                 1.s:281    .text:000001c4 suocun595
                 1.s:297    .text:000001e6 yanshi1
                 1.s:337    .text:0000022c chufafanhui
                 1.s:312    .text:000001fc chufaxunhuan
                 1.s:340    .text:0000022e jianceweishu
                 1.s:326    .text:0000021a dd1
                 1.s:329    .text:0000021e dd2
                 1.s:344    .text:00000234 jianceweishu1
                 1.s:349    .text:0000023c weishufanhui
                 1.s:369    .text:00000254 tim14ting
                 1.s:370    .text:00000256 $d
                 1.s:370    .text:00000258 $d

NO UNDEFINED SYMBOLS
