ARM GAS  1.s 			page 1


   1              			@ stm32f030f4p6 asm
   2              		 .thumb
   3              		         .syntax unified
   4              		.section .data
   5              	zheng_xian_biao:
   6 0000 1C001D00 		.short 28,29,31,33,34,36,38,39,41,42,44,45,46,48,49,50,51,52,52,53,54,54,55,55,55,55,55,55,55,54,5
   6      1F002100 
   6      22002400 
   6      26002700 
   6      29002A00 
   7 00ca 00000000 		.align 4
   7      0000
   8              		
   9              		.equ STACKINIT,        	        0x20001000
  10              		.equ dianyabiao,		0x20000100
  11              		.equ jiao_0,			0x200002f0
  12              		.equ lvboqizhizhen,		0x20000300
  13              		.equ lvboqihuanchong,		0x20000304
  14              		.equ lvboqizhizhen1,		0x20000900
  15              		.equ lvboqihuanchong1,		0x20000904
  16              	.section .text
  17              	vectors:
  18 0000 00100020 		.word STACKINIT
  19 0004 B1000000 		.word _start + 1
  20 0008 F7010000 		.word _nmi_handler + 1
  21 000c F9010000 		.word _hard_fault  + 1
  22 0010 00000000 		.word 0
  23 0014 00000000 		.word 0
  24 0018 00000000 		.word 0
  25 001c 00000000 		.word 0
  26 0020 00000000 		.word 0
  27 0024 00000000 		.word 0
  28 0028 00000000 		.word 0
  29 002c FB010000 		.word _svc_handler +1
  30 0030 00000000 		.word 0
  31 0034 00000000 		.word 0
  32 0038 FD010000 		.word _pendsv_handler +1
  33 003c FF010000 		.word _systickzhongduan +1               @ 15
  34 0040 FF010000 		.word aaa +1     @ _wwdg +1          @ 0
  35 0044 FF010000 		.word aaa +1     @_pvd +1            @ 1
  36 0048 FF010000 		.word aaa +1     @_rtc +1            @ 2
  37 004c FF010000 		.word aaa +1     @_flash +1          @ 3
  38 0050 FF010000 		.word aaa +1	@ _rcc + 1          @ 4
  39 0054 FF010000 		.word aaa +1	@_exti0_1  +1      @ 5
  40 0058 FF010000 		.word aaa +1      @ _exti2_3 +1      @ 6
  41 005c FF010000 		.word aaa +1       @_exti4_15 +1     @ 7
  42 0060 FF010000 		.word aaa +1                         @ 8
  43 0064 FF010000 		.word aaa +1 	@_dma1_1  +1    @ 9
  44 0068 FF010000 		.word aaa +1    @_dma1_2_3 +1        @ 10
  45 006c FF010000 		.word aaa +1       @_dma1_4_5 +1     @ 11
  46 0070 FF010000 		.word aaa +1	 @_adc1 +1          @ 12
  47 0074 FF010000 		.word aaa +1	@_tim1_brk_up +1  @ 13
  48 0078 FF010000 		.word aaa +1 @_tim1_buhuo +1    @ 14
  49 007c FF010000 		.word aaa +1         @_tim2 +1       @ 15
  50 0080 FF010000 		.word aaa +1          @_tim3 +1      @ 16
  51 0084 FF010000 		.word aaa +1                         @ 17
  52 0088 FF010000 		.word aaa +1		                @ 18
ARM GAS  1.s 			page 2


  53 008c FF010000 		.word aaa +1		@_tim14 +1    @ 19
  54 0090 FF010000 		.word aaa +1                         @ 20
  55 0094 FF010000 		.word aaa +1 	@_tim16 +1      @ 21
  56 0098 FF010000 		.word aaa +1         @_tim17 +1      @ 22
  57 009c FF010000 		.word aaa +1          @_i2c   +1     @ 23
  58 00a0 FF010000 		.word aaa +1                         @ 24
  59 00a4 FF010000 		.word aaa +1           @_spi   +1    @ 25
  60 00a8 FF010000 		.word aaa +1                         @ 26
  61 00ac FF010000 		.word aaa +1         @_usart1 +1     @ 27
  62              	_start:
  63              	shizhong:
  64 00b0 534A     	        ldr r2, = 0x40022000   @FLASH访问控制
  65 00b2 3221     	        movs r1, # 0x32
  66 00b4 1160     	        str r1, [r2]           @FLASH缓冲 缓冲开启
  67 00b6 5348     	        ldr r0, = 0x40021000 @ rcc
  68 00b8 5349     		ldr r1, = 0x10001
  69 00ba 0160     	        str r1, [r0]
  70              	denghse:
  71 00bc 0168     	        ldr r1, [r0]
  72 00be 8903     	        lsls r1, r1, # 14
  73 00c0 FCD5     	        bpl denghse
  74              	dengpllguan:
  75 00c2 0168     	        ldr r1, [r0]
  76 00c4 8901     		lsls r1, r1, # 6
  77 00c6 FCD4     		bmi dengpllguan
  78 00c8 5049     		ldr r1, = 0x150002
  79 00ca 0046     		mov r0, r0
  80 00cc 4160     		str r1, [r0, # 0x04]
  81 00ce 0046     		mov r0, r0
  82 00d0 4F49     		ldr r1, = 0x1010000
  83 00d2 0046     		mov r0, r0
  84 00d4 0160     		str r1, [r0]
  85              	
  86              	dengpll:
  87 00d6 0168     	        ldr r1, [r0]
  88 00d8 8901     		lsls r1, # 6
  89 00da FCD5     		bpl dengpll
  90              	
  91 00dc 4D49     		ldr r1, = 100
  92 00de 0163     		str r1, [r0, # 0x30]
  93              	
  94              		
  95              	neicunqingling:
  96 00e0 4D48     		ldr r0, = 0x20000000
  97 00e2 0021     		movs r1, # 0
  98 00e4 4D4B     		ldr r3, = 0x1000
  99              	neicunqinglingxunhuan:
 100 00e6 043B     		subs r3, # 4
 101 00e8 C150     		str r1, [r0, r3]
 102 00ea FCD1     		bne neicunqinglingxunhuan
 103              	
 104              	_waisheshizhong:			 @ 外设时钟
 105              		@ +0x14=RCC_AHBENR
 106              		@ 0=DMA 2=SRAM 4=FLITF 6=CRC  17=PA  18=PB 19=PC 20=PD 22=PF
 107 00ec 4548     		ldr r0, = 0x40021000
 108 00ee 4C49     		ldr r1, = 0x60005
 109 00f0 4161     		str r1, [r0, # 0x14]
ARM GAS  1.s 			page 3


 110              	
 111              		@ +0x18外设时钟使能寄存器 (RCC_APB2ENR)
 112              		@ 0=SYSCFG 5=USART6EN 9=ADC 11=TIM1 12=SPI1 14=USART1
 113              		@ 16=TIM15 17=TIM16 18=TIM17 22=DBGMCU
 114 00f2 4C49     		ldr r1, = 0xa00
 115 00f4 8161     		str r1, [r0, # 0x18]
 116              		@+0X1C=RCC_APB1ENR
 117              		@ 1=TIM3 4=TIM6 5=TIM7 8=TIM14 11=WWDG 14=SPI 17=USRT2 18=USART3
 118              		@ 20=USART5 21=I2C1 22=I2C2  23=USB 28=PWR
 119              	
 120              	
 121              	io_she_zhi:
 122              		@@@@@@@@@@@@@@@@@@@@@@@@@@@@@@@@@@@@@@@@@@@@@@@@@@@@@@@@@@@@@@@@@@@@@@@@@@@@@@@@@@@@@@@@@@@@@@
 123              		@a(0x48000000)b(0x48000400)c(0x48000800)d(0x48000c00)f(0x48001400)
 124              		@ 输入（00），通用输出（01），复用功能（10），模拟（11）
 125              		@偏移0x4 = 端口输出类型 @ （0 推挽），（ 1 开漏）
 126              		@偏移0x8 = 输出速度  00低速， 01中速， 11高速
 127              		@偏移0xC = 上拉下拉 (00无上下拉，  01 上拉， 10下拉)
 128              		@偏移0x10 = 输入数据寄存器
 129              		@偏移0x14 = 输出数据寄存器
 130              		@偏移0x18 = 端口开  0-15置位
 131              		@偏移0x28 = 端口关
 132              		@0X20 = 复用低
 133              		@GPIO口0（0-3位）每个IO口占用4位
 134              		@ AF0 = 0X0000, AF1 = 0X0001, AF2 = 0X0010 AF3 = 0X0011, AF4 = 0X0100
 135              		@ AF5 = 0X0101, AF6 = 0X0111, AF7 = 0X1000
 136              		@0x24 = 复用高
 137              		@GPIO口8 （0-3位）每个IO口占用4位
 138              		@ AF0 = 0X0000, AF1 = 0X0001, AF2 = 0X0010 AF3 = 0X0011, AF4 = 0X0100
 139              		@ AF5 = 0X0101, AF6 = 0X0111, AF7 = 0X1000
 140              		@@@@@@@@@@@@@@@@@@@@@@@@@@@@@@@@@@@@@@@@@@@@@@@@@@@@@@@@@@@@@@@@@@@@@@@@@@@@@@@@@@@@@@@@@@@@@@
 141              		
 142 00f6 4C48     		ldr r0, = 0x48000000
 143 00f8 4C49     		ldr r1, = 0x28001300
 144 00fa 0160     		str r1, [r0]
 145              	
 146 00fc 4C49     		ldr r1, = 0x400
 147 00fe C160     		str r1, [r0, # 0x0c]
 148              		
 149 0100 4C48     		ldr r0, = 0x48000400
 150 0102 0821     		movs r1, # 0x08 @ pb1
 151 0104 0160     		str r1, [r0]
 152 0106 2021     		movs r1, # 0x20
 153 0108 0162     		str r1, [r0, # 0x20]
 154              	_adcchushihua:
 155 010a 4B48     	        ldr r0, = 0x40012400  @ adc基地址
 156 010c 4B49     	        ldr r1, = 0x80000000
 157 010e 8160     	        str r1, [r0, # 0x08]  @ ADC 控制寄存器 (ADC_CR)  @adc校准
 158              	_dengadcjiaozhun:
 159 0110 8168     	        ldr r1, [r0, # 0x08]
 160 0112 0900     	        movs r1, r1
 161 0114 FCD4     	        bmi _dengadcjiaozhun   @ 等ADC校准
 162 0116 0121     		movs r1, # 1
 163 0118 0160     		str r1, [r0]
 164              	_kaiadc:
 165 011a 8168     	        ldr r1, [r0, # 0x08]
 166 011c 0122     	        movs r2, # 0x01
ARM GAS  1.s 			page 4


 167 011e 1143     	        orrs r1, r1, r2
 168 0120 8160     	        str r1, [r0, # 0x08]
 169              	_deng_adc_wen_ding:
 170 0122 0168     	        ldr r1, [r0]
 171 0124 C907     	        lsls r1, r1, # 31
 172 0126 FCD5     	        bpl _deng_adc_wen_ding @ 等ADC稳定
 173              	_tongdaoxuanze:
 174 0128 4449     	        ldr r1, = 0x80000000
 175 012a 0161     	        str r1, [r0, # 0x10]
 176 012c 1021     	        movs r1, # 0x10
 177 012e 8162     	        str r1, [r0, # 0x28]    @ 通道选择寄存器 (ADC_CHSELR)
 178 0130 4349     	        ldr r1, = 0x803 
 179 0132 C160     	        str r1, [r0, # 0x0c]    @ 配置寄存器 1 (ADC_CFGR1)
 180 0134 0021     	        movs r1, # 0
 181 0136 4161     		str r1, [r0, # 0x14]    @ ADC 采样时间寄存器 (ADC_SMPR)
 182 0138 8168     	        ldr r1, [r0, # 0x08]
 183 013a 424A     	        ldr r2, = 0x04         @ 开始转换
 184 013c 1143     		orrs r1, r1, r2
 185 013e 8160     	        str r1, [r0, # 0x08]    @ 控制寄存器 (ADC_CR)
 186              	
 187              	
 188              		
 189              	dmachushihua:
 190              	        @+0=LSR,+4=IFCR,
 191              	        @+8=CCR1,+c=CNDTR1,+10=CPAR1+14=CMAR1,
 192              	        @+1c=CCR2,+20=CNDTR2,+24=CPAR2,+28=CMAR2
 193              	        @+30=CCR3,+34=CNDTR3,+38=CPAR2,+3c=CMAR3
 194              	        @+44=CCR4,+48=CNDTR4,+4c=CPAR4,+50=CMAR4
 195              	        @+58=CCR5,+5c=CNDTR5,+60=CPAR5,+64=CMAR5
 196              	        @+6C=CCR6,+70=CNDTR6,+74=CPAR6,+78=CMAR6
 197              	        @+80=CCR7,+84=CNDTR7,+88=CPAR7,+8c=CMAR7
 198              	
 199              	        @tim1ch3DMA
 200 0140 4148     	        ldr r0, = 0x40020000
 201 0142 4249     	        ldr r1, = 0x40012c3c @ 外设地址
 202 0144 0166     	        str r1, [r0, # 0x60]
 203 0146 4249     	        ldr r1, = zheng_xian_biao @ 储存器地址
 204 0148 4166     	        str r1, [r0, # 0x64]
 205 014a 3249     	        ldr r1, = 100             @点数
 206 014c C165     	        str r1, [r0, # 0x5c]
 207 014e 4149     	        ldr r1, = 0x35b1         @ 储存到外设
 208 0150 8165     	        str r1, [r0, # 0x58]
 209              		@ adc dma 
 210 0152 3D48     		ldr r0, = 0x40020000
 211 0154 4049     		ldr r1, = 0x40012440
 212 0156 0161     		str r1, [r0, # 0x10]
 213 0158 4049     		ldr r1, = dianyabiao
 214 015a 4161     		str r1, [r0, # 0x14]
 215 015c 2D49     		ldr r1, =  100
 216 015e C160     		str r1, [r0, # 0x0c]
 217 0160 3F49     		ldr r1, = 0xaa1		@ 5a1
 218 0162 8160     		str r1, [r0, # 0x08]
 219              	
 220              	tim1chushiha:
 221 0164 3F48     	        ldr r0, = 0x40012c00 @ tim1_cr1
 222 0166 0021     	        movs r1, # 0
 223 0168 8162     	        str r1, [r0, # 0x28] @ psc
ARM GAS  1.s 			page 5


 224 016a 3F49     	        ldr r1, = 56
 225 016c C162     	        str r1, [r0, # 0x2c] @ ARR
 226              		@	movs r1, # 0x40
 227 016e 2021     		movs r1, # 0x20
 228 0170 4160     		str r1, [r0, # 0x04] @ TRGO
 229 0172 3821     		movs r1, # 0x38
 230 0174 8161     		str r1, [r0, # 0x18] @ ccmr1 cc1
 231 0176 3821     		movs r1, # 56
 232 0178 4163     		str r1, [r0, # 0x34]
 233 017a 3C49     	        ldr r1, = 0x68
 234 017c C161     	        str r1, [r0, # 0x1c] @ ccmr2  CC3
 235 017e 2C49     	        ldr r1, = 0x400    @  CC3
 236 0180 0162     	        str r1, [r0, # 0x20] @ ccer
 237 0182 3B49     	        ldr r1, = 0x8000
 238 0184 4164     	        str r1, [r0, # 0x44] @ BDTR
 239 0186 3B49     	        ldr r1, = 0x800 @ CC3 DMA
 240 0188 C160     	        str r1, [r0, # 0x0c] @ DIER
 241 018a 3B49     	        ldr r1, = 0x81
 242 018c 0160     	        str r1, [r0]
 243              		
 244              	__ting:
 245 018e 3B4B     		ldr r3, = 0x20000128
 246 0190 3B4A     		ldr r2, = lvboqizhizhen
 247 0192 1B68     		ldr r3, [r3]
 248 0194 3B48     		ldr r0, =lvboqihuanchong
 249 0196 3C49     		ldr r1, = 512
 250 0198 00F019F8 		bl _lvboqi
 251 019c 0446     		mov r4, r0
 252 019e 2248     		ldr r0, = 0x48000000
 253 01a0 3A4D     		ldr r5, = jiao_0
 254 01a2 0169     		ldr r1, [r0, # 0x10]
 255 01a4 2E68     		ldr r6, [r5]
 256 01a6 8906     		lsls r1, r1, # 26
 257 01a8 01D4     		bmi __tiao_guo_jiao_0
 258              	__jiao_0:
 259 01aa 023C     		subs r4, r4, # 2
 260 01ac 2C60     		str r4, [r5]
 261              	__tiao_guo_jiao_0:
 262 01ae A41B     		subs r4, r4, r6
 263 01b0 374B     		ldr r3, = 0x200001a8
 264 01b2 384A     		ldr r2, = lvboqizhizhen1
 265 01b4 1B68     		ldr r3, [r3]
 266 01b6 3848     		ldr r0, = lvboqihuanchong1
 267 01b8 3349     		ldr r1, = 512
 268 01ba 00F008F8 		bl _lvboqi
 269 01be 1A4E     		ldr r6, = 0x48000000
 270 01c0 4027     		movs r7, # 0x40
 271 01c2 001B     		subs r0, r0, r4
 272 01c4 01D4     		bmi __kai
 273              	__guan:
 274 01c6 B762     		str r7, [r6, # 0x28]
 275 01c8 E1E7     		b __ting
 276              	__kai:
 277 01ca B761     		str r7, [r6, # 0x18]
 278 01cc DFE7     		b __ting
 279              	
 280              	_lvboqi:				@滤波器
ARM GAS  1.s 			page 6


 281              				@R0=地址，R1=长度,r2=表指针地址,r3=ADC数值
 282              				@出R0=结果
 283 01ce FEB5     		push {r1-r7,lr}	
 284 01d0 1568     		ldr r5, [r2]		@读出表指针
 285 01d2 4E00     		lsls r6, r1, # 1	
 286 01d4 4353     		strh r3, [r0, r5]	@数值写到滤波器缓冲区
 287 01d6 0235     		adds r5, r5, # 2
 288 01d8 B542     		cmp r5, r6
 289 01da 00D1     		bne _lvboqimeidaohuanchongquding
 290 01dc 0025     		movs r5, # 0
 291              	_lvboqimeidaohuanchongquding:
 292 01de 1560     		str r5, [r2]
 293 01e0 0027     		movs r7, # 0
 294              	_lvboqixunhuan:
 295 01e2 B542     		cmp r5, r6
 296 01e4 00D1     		bne _lvbozonghe
 297 01e6 0025     		movs r5, # 0
 298              	_lvbozonghe:
 299 01e8 445B     		ldrh r4, [r0, r5]
 300 01ea 0235     		adds r5, r5, # 2
 301 01ec 3F19     		adds r7, r7, r4
 302 01ee 0139     		subs r1, r1, # 1
 303 01f0 F7D1     		bne _lvboqixunhuan
 304 01f2 7812     		asrs r0, r7, # 9	@修改
 305 01f4 FEBD     		pop {r1-r7,pc}
 306              	
 307              	_nmi_handler:
 308 01f6 7047     		bx lr
 309              	_hard_fault:
 310 01f8 7047     		bx lr
 311              	_svc_handler:
 312 01fa 7047     		bx lr
 313              	_pendsv_handler:
 314 01fc 7047     		bx lr
 315              	_systickzhongduan:
 316              	aaa:
 317 01fe 7047     		bx lr
 318              	
 319 0200 00200240 	
 319      00100240 
 319      01000100 
 319      02001500 
 319      00000101 
ARM GAS  1.s 			page 7


DEFINED SYMBOLS
                 1.s:5      .data:0000000000000000 zheng_xian_biao
                 1.s:7      .data:00000000000000ca $d
                 1.s:9      *ABS*:0000000020001000 STACKINIT
                 1.s:10     *ABS*:0000000020000100 dianyabiao
                 1.s:11     *ABS*:00000000200002f0 jiao_0
                 1.s:12     *ABS*:0000000020000300 lvboqizhizhen
                 1.s:13     *ABS*:0000000020000304 lvboqihuanchong
                 1.s:14     *ABS*:0000000020000900 lvboqizhizhen1
                 1.s:15     *ABS*:0000000020000904 lvboqihuanchong1
                 1.s:17     .text:0000000000000000 vectors
                 1.s:62     .text:00000000000000b0 _start
                 1.s:307    .text:00000000000001f6 _nmi_handler
                 1.s:309    .text:00000000000001f8 _hard_fault
                 1.s:311    .text:00000000000001fa _svc_handler
                 1.s:313    .text:00000000000001fc _pendsv_handler
                 1.s:315    .text:00000000000001fe _systickzhongduan
                 1.s:316    .text:00000000000001fe aaa
                 1.s:63     .text:00000000000000b0 shizhong
                            .text:0000000000000000 $d
                 1.s:64     .text:00000000000000b0 $t
                 1.s:70     .text:00000000000000bc denghse
                 1.s:74     .text:00000000000000c2 dengpllguan
                 1.s:86     .text:00000000000000d6 dengpll
                 1.s:95     .text:00000000000000e0 neicunqingling
                 1.s:99     .text:00000000000000e6 neicunqinglingxunhuan
                 1.s:104    .text:00000000000000ec _waisheshizhong
                 1.s:121    .text:00000000000000f6 io_she_zhi
                 1.s:154    .text:000000000000010a _adcchushihua
                 1.s:158    .text:0000000000000110 _dengadcjiaozhun
                 1.s:164    .text:000000000000011a _kaiadc
                 1.s:169    .text:0000000000000122 _deng_adc_wen_ding
                 1.s:173    .text:0000000000000128 _tongdaoxuanze
                 1.s:189    .text:0000000000000140 dmachushihua
                 1.s:220    .text:0000000000000164 tim1chushiha
                 1.s:244    .text:000000000000018e __ting
                 1.s:280    .text:00000000000001ce _lvboqi
                 1.s:261    .text:00000000000001ae __tiao_guo_jiao_0
                 1.s:258    .text:00000000000001aa __jiao_0
                 1.s:276    .text:00000000000001ca __kai
                 1.s:273    .text:00000000000001c6 __guan
                 1.s:291    .text:00000000000001de _lvboqimeidaohuanchongquding
                 1.s:294    .text:00000000000001e2 _lvboqixunhuan
                 1.s:298    .text:00000000000001e8 _lvbozonghe
                 1.s:319    .text:0000000000000200 $d

NO UNDEFINED SYMBOLS
