ARM GAS  1.s 			page 1


   1              		 .thumb                 
   2              	         .syntax unified
   3              	.section .data
   4              		.align 4
   5              		
   6 0000 88BEC494 	shumaguanmabiao: .byte 0x88,0xbe,0xc4,0x94,0xb2,0x91,0x81,0xbc,0x80,0x90
   6      B29181BC 
   6      8090
   7 000a 08E743BC 	hongwaimabiao: .int 0xbc43e708,0xb847e708,0xbd42e708,0xbe41e708,0xbf40e708,0xb946e708,0xba45e708,0x
   7      08E747B8 
   7      08E742BD 
   7      08E741BE 
   7      08E740BF 
   8              	
   9 007e 80010204 	shuaxinbiao: .byte 0x80,0x01,0x02,0x04,0x08,0x10,0x20,0x40,0x00
   9      08102040 
   9      00
  10              		
  11              	        	.equ STACKINIT,          0x20005000
  12              			.equ systickbiaozhi,     0x20000300
  13              	.section .text
  14              	xiangliangbiao:
  15 0000 00500020 		.word STACKINIT
  16 0004 0D010000 		.word _start + 1
  17 0008 DF020000 		.word _nmi_handler + 1
  18 000c E1020000 		.word _hard_fault  + 1
  19 0010 E3020000 		.word _memory_fault + 1
  20 0014 E5020000 		.word _bus_fault + 1
  21 0018 E7020000 		.word _usage_fault + 1
  22 001c 00000000 		.word 0
  23 0020 00000000 		.word 0
  24 0024 00000000 		.word 0
  25 0028 00000000 		.word 0
  26 002c 00000000 		.word 0
  27 0030 00000000 		.word 0
  28 0034 00000000 		.word 0
  29 0038 00000000 		.word 0
  30 003c E9020000 		.word systickdingshiqi +1
  31 0040 00000000 		.word	0 @WWDG  	0
  32 0044 00000000 		.word	0 @PVD  	1
  33 0048 00000000 		.word	0 @TAMPER	2
  34 004c 00000000 		.word	0 @RTC		3
  35 0050 00000000 		.word	0 @FLASH	4
  36 0054 00000000 		.word	0 @RCC		5
  37 0058 00000000 		.word	0 @EXTI0	6
  38 005c 00000000 		.word	0 @EXTI1	7
  39 0060 00000000 		.word	0 @EXTI2	8
  40 0064 00000000 		.word	0 @EXTI3	9
  41 0068 00000000 		.word	0 @EXTI4	10
  42 006c 00000000 		.word	0 @DMA11	11
  43 0070 00000000 		.word	0 @DMA12	12
  44 0074 00000000 		.word	0 @DMA13	13
  45 0078 00000000 		.word	0 @DMA14	14
  46 007c 00000000 		.word	0 @DMA15	15
  47 0080 00000000 		.word	0 @DMA16	16
  48 0084 00000000 		.word	0 @DMA17	17
  49 0088 00000000 		.word	0 @ADC1_2 	18
ARM GAS  1.s 			page 2


  50 008c 00000000 		.word	0 @USB_HP_CAN1_TX 19
  51 0090 00000000 		.word	0 @USB_LP_CAN1_RX0 20
  52 0094 00000000 		.word	0 @CAN1_RX1	21
  53 0098 00000000 		.word	0 @CAN1_SCE	22
  54 009c 00000000 		.word	0 @EXTI9_5	23
  55 00a0 00000000 		.word	0 @TIM1_BRK	24
  56 00a4 00000000 		.word	0 @TIM1_UP	25
  57 00a8 00000000 		.word	0 @TIM1_TRG_COM	26
  58 00ac 00000000 		.word	0 @TIM1_CC	27
  59 00b0 31030000 		.word	tim2dingshiqi +1  @TIM2 28
  60 00b4 00000000 		.word	0 @TIM3		29
  61 00b8 00000000 		.word	0 @TIM4		30
  62 00bc 00000000 		.word	0 @I2C1_EV	31
  63 00c0 00000000 		.word	0 @I2C1_ER	32
  64 00c4 00000000 		.word	0 @I2C2_EV	33
  65 00c8 00000000 		.word	0 @I2C2_ER	34
  66 00cc 00000000 		.word	0 @SPI1		35
  67 00d0 00000000 		.word	0 @SPI2		36
  68 00d4 00000000 		.word	0 @USART1	37
  69 00d8 00000000 		.word	0 @USART2	38
  70 00dc 00000000 		.word	0 @USART3	39
  71 00e0 00000000 		.word	0 @EXTI15_10	40
  72 00e4 00000000 		.word	0 @RTCAlarm_IRQ	41
  73 00e8 00000000 		.word	0 @USBWakeUp	42
  74 00ec 00000000 		.word	0	
  75 00f0 00000000 		.word	0	
  76 00f4 00000000 		.word	0
  77 00f8 00000000 		.word	0
  78 00fc 00000000 		.word	0
  79 0100 00000000 		.word	0
  80 0104 00000000 		.word	0
  81 0108 00000000 		.word	0 @BootRAM   
  82              	_start:
  83 010c 9848     		ldr r0, = 0x40010004
  84 010e 4FF00071 		ldr r1, = 0x02000000
  85 0112 0160     		str r1, [r0]
  86              	
  87 0114 4160     		str r1, [r0, # 0x04]
  88 0116 9748     		ldr r0, = 0x40021000
  89 0118 9749     		ldr r1, = 0x14D83
  90 011a 0160     		str r1, [r0]
  91              	gsszbz: 
  92 011c 0268     		ldr r2, [r0]
  93 011e 4FF40031 		ldr r1, = 0x20000
  94 0122 1142     		tst r1, r2           @HSE高速时钟标志位           
  95 0124 00D1     		bne rccchushihua
  96 0126 F9E7     		b gsszbz
  97              	rccchushihua: 
  98 0128 9448     		ldr r0, = 0x40022000
  99 012a 4FF03201 		mov r1, # 0x00000032
 100 012e 0160     		str r1, [r0]           @FLASH缓冲 缓冲开启 
 101 0130 9348     		ldr r0, = 0x40021004
 102 0132 9449     		ldr r1, = 0x1D8400
 103 0134 0160     		str r1, [r0]
 104 0136 8F48     		ldr r0, = 0x40021000
 105 0138 9349     		ldr r1, = 0x1033D03
 106 013a 0160     		str r1, [r0]
ARM GAS  1.s 			page 3


 107              	chaxun:
 108 013c 0268     		ldr r2, [r0]
 109 013e 4FF00071 		ldr r1, = 0x2000000
 110 0142 1142     		tst r1, r2
 111 0144 00D1     		bne rccgg               @等待PLL稳定
 112 0146 F9E7     		b chaxun
 113              	rccgg:
 114 0148 8D48     		ldr r0, = 0x40021004
 115 014a 9049     		ldr r1, = 0x1D8402
 116 014c 0160     		str r1, [r0]            @ PLL作为系统时钟
 117              	
 118 014e 8848     		ldr r0, = 0x40010004
 119 0150 4FF00071 		ldr r1, = 0x02000000
 120 0154 0160     		str r1, [r0]
 121              	
 122              	neicunqingling:                  @ 无聊把内存清0
 123 0156 4FF00050 		ldr r0, = 0x20000000
 124 015a 44F6FF72 		ldr r2, = 0x4fff         @ 区域是0X4FFF大的地方
 125 015e 4FF00001 		mov r1, # 0              @ 写0
 126              	qingling_xunhuan:                
 127 0162 40F8041B 		str r1, [r0], 4         
 128 0166 013A     		subs r2, # 1
 129 0168 FBD1     		bne qingling_xunhuan     @ 循环清0
 130              	
 131              	chushihuayixieshuju:	 @初始化一些数据
 132 016a 8948     		ldr r0, = 0x200004fc
 133 016c 0021     		ldr r1, = 0x00
 134 016e 0160     		str r1, [r0]
 135 0170 0160     		str r1, [r0]
 136 0172 4FF00000 		mov r0, # 0
 137 0176 0146     		mov r1, r0
 138 0178 0246     		mov r2, r0
 139 017a 0346     		mov r3, r0
 140 017c 0446     		mov r4, r0
 141 017e 0546     		mov r5, r0
 142 0180 0646     		mov r6, r0
 143 0182 0746     		mov r7, r0
 144 0184 8046     		mov r8, r0
 145 0186 8146     		mov r9, r0
 146 0188 8246     		mov r10, r0
 147 018a 8346     		mov r11, r0
 148 018c 8446     		mov r12, r0
 149              		
 150              		
 151              	systick:
 152              		@0xe000e010 SYSTICK控制状态寄存器
 153              		@0=定时器使能
 154              		@1=（1倒数到0发出异常请，0无动作）
 155              		@2=（0外部始终1内核时钟）
 156              		@16= 如果赏赐读取本寄存器后SYSTICK已经数到0则该位为1如果读取该位则清0
 157              		@0xe000e014 重载值寄存器 数到0将要被重载的值
 158              		@0xe000e018 当前值，写清0
 159              		@0e000e01c
 160              		@0-23 10MS的时间内倒计数的格数
 161              		@ 30=(1教准不是准确的10MS)（0教准是准确的10MS）
 162 018e 8148     		ldr r0, = 0xe000e010
 163 0190 4FF00001 		mov r1, # 0               
ARM GAS  1.s 			page 4


 164 0194 0160     		str r1, [r0]            @ 关掉SYSTICK
 165 0196 42F22831 		ldr r1, = 9000      @ 重载数
 166 019a 4160     		str r1, [r0, # 4]       @ 写进重载数
 167 019c 8160     		str r1, [r0, # 8]       @ 清0当前数          
 168 019e 7E4B     		ldr r3, = 0xe000ed23  @systick优先级
 169 01a0 4FF0F001 		mov r1, # 240
 170 01a4 1960     		str r1, [r3]
 171 01a6 4FF00301 		mov r1, # 3
 172 01aa 0160     		str r1, [r0] @ 开定时器
 173              		
 174              	waisheshizhong:
 175              	
 176              	
 177              		@APB2_ENR=0X40021018 0(AFIO)1(保留)2(PA)3(PB)4(PC)5(PD)6(PE)78(保留)
 178              		@9(ADC1)10(ADC2)11(TIM1)12(SPI1)13(保留)14（USART1）15(保留)
 179 01ac 7B48     		        ldr r0, = 0x40021018 @ APB2_ENR
 180 01ae 3C21     		        ldr r1, = 0x3c
 181 01b0 0160     		        str r1, [r0]
 182              		@APB1_ENR=0X4002101C
 183              		@0=TIM2,1=TIM3,2=TIM4,3=TIM5,4=TIM6,5=TIM7,11=WWDG
 184              		@14=SP12,15=SP13,17=UART3,19=UART4,20=UART5
 185              		@21=I2C,22=I2C2,23=USB,25=CAN,27=BKPT,28=PWR,29=DACEN
 186 01b2 7B48     			ldr r0, = 0X4002101C @ APB1_ENR
 187 01b4 0121     			ldr r1, = 0x01
 188 01b6 0160     			str r1, [r0]
 189              		
 190              	zhongduankongzhi:
 191              		@SETENA0=0XE000E100,SETENA1=0XE000E104 @中断使能
 192              		@CLRENA0=0XE000E180,CLRENA1=0XE000E184 @中断除能
 193              		@SETPEND0=0XE000E200,SETPPEND1=0XE000E204 @中断悬起
 194              		@CLRPEND0=0XE000E280,CLRPEND1=0XE000E284  @中断解悬
 195              		@ACTIVE0=0XE000E300,ACTIVE1=0XE000E304   @ 中断活动状态
 196              		@0XE000E400-0XE000E43C 中断优先级阵列每个占8位
 197              		@0XE000ED00=CPUID，0XE000ED04=中断控制及状态寄存器
 198              		@0xe000ed08=向量表偏移，0xe000ed0c=应用程序中断及复位
 199              		@0xe000ed10=系统控制，0XE000ED14=配置与控制
 200              		@0xe000ed18-0xe000ed23=系统异常优先级阵列
 201 01b8 7A48     		ldr r0, = 0xe000ed0c
 202 01ba 7B49     		ldr r1, = 0x5fa0500
 203 01bc 0160     		str r1, [r0]
 204 01be 7B48     		ldr r0, = 0xe000e400
 205 01c0 4FF0C001 		mov r1, # 0xc0
 206 01c4 C161     		str r1, [r0, # 28]
 207 01c6 7A48     		ldr r0, = 0xe000e100 @ 中断使能
 208 01c8 4FF08051 		ldr r1, = 0x10000000
 209 01cc 0160     		str r1, [r0]
 210              		
 211              		
 212              		
 213              	timdingshiqi:
 214              		@tim1=0x40012c00
 215              		@+0=CR1 控制寄存器
 216              		@+4=CR2 控制寄存器2
 217              		@+8=SMCR 从模式控制寄存器
 218              		@+c=DIER 中断使能寄存器
 219              		@+10=SR 状态寄存器
 220              		@+14=EGR 事件产生寄存器
ARM GAS  1.s 			page 5


 221              		@+18=CCMR1 捕获/比较模式寄存器1
 222              		@+1C=CCMR2 捕获/比较模式寄存器2
 223              		@+20=CCER 捕获/比较使能寄存器
 224              		@+24=CNT 计数器
 225              		@+28=PSC 预分频器
 226              		@+2C=ARR 重载寄存器
 227              		@+30=RCR 重复计数寄存器
 228              		@+34=CCR1 捕获/比较寄存器1
 229              		@+38=CCR2 捕获/比较寄存器2
 230              		@+3C=CCR3 捕获/比较寄存器3
 231              		@+40=CCR4 捕获/比较寄存器4
 232              		@+44=BDTR 刹车/死区寄存器
 233              		@+48=DCR DMA控制器
 234              		@+4C=DMAR 连续模式的DMA地址
 235              		@TIM2=0x40000000
 236              	@18=CCMR1,18=OCMR1,1C=CCMR2,1C=OCMR2
 237              	@CNT与CCR比较占空，ARR与PSC决定频率。主频除以PSC=计数频率
 238 01ce 4FF08040 		ldr r0, = 0x40000000 @ tim2
 239 01d2 4FF43471 		ldr r1, = 720
 240 01d6 8162     		str r1, [r0, # 0x28] @ 分频
 241 01d8 6FF07F41 		ldr r1, = 0xffffff
 242 01dc C162     		str r1, [r0, # 0x2c] @ 重载
 243 01de 4FF00201 		mov r1, # 2
 244 01e2 C160     		str r1, [r0, # 0x0c] @开中断
 245 01e4 4FF0F101 		mov r1, # 0xf1
 246 01e8 8161     		str r1, [r0, # 0x18] @ 捕获/比较模式
 247 01ea 4FF00301 		mov r1, # 3
 248 01ee 0162     		str r1, [r0, # 0x20] @ 下降沿捕获
 249 01f0 8121     		ldr r1, = 0x81
 250 01f2 0160     		str r1, [r0]
 251              		
 252              	IOshezhi:
 253              		
 254 01f4 6F48     		ldr r0, = 0x40010c00
 255              		@PA=0x40010800 PB=0x40010c00 PC=0x40011000 
 256              		@PD=0x40011400 PE=0x40011800 PF=0x40011c00 
 257              		@ IO 1(通用推挽10M)2(通用推挽2M)3(通用推挽50M)
 258              		@4(浮空输入)5(通用开漏输出10M)6(通用开漏输出2M)
 259              		@7(通用开漏输出50M)8(上拉下拉输入)9(复用功能推挽输出10M)
 260              		@A(复用功能推挽输出2M)B(复用功能推挽输出50M)C(保留)
 261              		@D(复用功能开溜输出10M)E(复用功能开漏输出2M)F(复用功能开漏输出50M)
 262              		@ 偏移0X8=IDR 输入数据寄存器
 263              		@偏移0XC=ODR 输出数据寄存器
 264              		@偏移0X10=BSRR IO开
 265              		@偏移0X14=BRR  IO关
 266 01f6 7049     		ldr r1, = 0x45554444
 267 01f8 4160     		str r1, [r0, # 0x04]
 268              	zhuchengxu:
 269 01fa 00F046F8 		bl anjian
 270 01fe 6F4A     		ldr r2, = 0x200004f8
 271 0200 1278     		ldrb r2, [r2]
 272              		
 273 0202 6F49     		ldr r1, = 0x20000014
 274 0204 0A78     		ldrb r2, [r1]
 275 0206 4B78     		ldrb r3, [r1, # 1]
 276 0208 8C78     		ldrb r4, [r1, # 2]
 277 020a 4FF06405 		mov r5, # 100
ARM GAS  1.s 			page 6


 278 020e 03FB05F7 		mul r7, r3, r5
 279 0212 42F21075 		movw r5, # 10000
 280 0216 04FB05F6 		mul r6, r4, r5
 281 021a 3744     		add r7, r7, r6
 282 021c 02EB0700 		add r0, r2, r7
 283 0220 4FF00801 		mov r1, # 8
 284 0224 674A     		ldr r2, = 0x20000100
 285 0226 00F00BF8 		bl zhuan_ascii
 286              		
 287 022a 6748     		ldr r0, = 20160101
 288 022c 4FF00801 		mov r1, # 8
 289 0230 664A     		ldr r2, = 0x20000110
 290 0232 00F005F8 		bl zhuan_ascii
 291 0236 4FF00800 		mov r0, # 8
 292 023a 00F038F8 		bl xieshumaguan
 293 023e DCE7     		b zhuchengxu
 294              		
 295              		
 296              	zhuan_ascii: @ 入口R0=数据 R1= 长度 R2=出口
 297 0240 FFB5     		push {r0-r7,lr}
 298 0242 634F     		ldr r7, = shumaguanmabiao
 299 0244 4FF00A05 		mov r5, # 10
 300              	xunhuanqiuma:
 301 0248 B0FBF5F4 		udiv r4, r0, r5
 302 024c 04FB05F6 		mul r6, r4, r5
 303 0250 A0EB0603 		sub r3, r0, r6
 304 0254 FE5C     		ldrb r6, [r7, r3]
 305 0256 02F8016B 		strb r6, [r2], # 1
 306 025a 2046     		mov r0, r4
 307 025c 0139     		subs r1, # 1
 308 025e F3D1     		bne xunhuanqiuma
 309 0260 FFBD     		pop {r0-r7,pc}
 310              	xie595:    @ 入口0X20000000
 311              		
 312              		@74HC595 11=输入锁存 12=输出锁存 14=数据
 313 0262 3FB5     		push {r0-r5,lr}
 314 0264 5B48     		ldr r0, = 0x422181b0 @ 位带地址  
 315 0266 4FF00101 		mov r1, # 1          @ 1
 316 026a 4FF00002 		mov r2, # 0          @ 0
 317 026e 4FF00853 		ldr r3, = 0x22000000 @ 0x20000000的位带
 318 0272 4FF01804 		mov r4, # 24         @ 写两个8位
 319              	xunhuan595:
 320 0276 8260     		str r2, [r0, # 0x08] @ 595_11 输入锁存
 321 0278 53F8045B 		ldr r5, [r3], # 4    @ 取出一位的数据
 322 027c 0560     		str r5, [r0]         @14脚输出数据
 323 027e 8160     		str r1, [r0, # 0x08] @ 锁存
 324 0280 013C     		subs r4, # 1         
 325 0282 F8D1     		bne xunhuan595       @循环16次
 326 0284 4260     		str r2, [r0, # 0x04] @ 12输出锁存
 327 0286 4160     		str r1, [r0, # 0x04] 
 328 0288 3FBD     		pop {r0-r5,pc}      @ 弹出各寄存器返回
 329              	anjian:
 330 028a 2DE9FF5F 		push {r0-r12,lr}
 331 028e 524B     		ldr r3, = 0x20000500
 332 0290 524D     		ldr r5, = hongwaimabiao
 333 0292 4FF01D06 		mov r6, # 29
 334              	panduananjian:
ARM GAS  1.s 			page 7


 335 0296 55F8044B 		ldr r4, [r5], # 4
 336 029a 1A68     		ldr r2, [r3]
 337 029c A242     		cmp r2, r4
 338 029e 02D0     		beq anjianzhengque
 339 02a0 013E     		subs r6, # 1
 340 02a2 F8D1     		bne panduananjian
 341 02a4 01E0     		b anjianfanhui
 342              	anjianzhengque:
 343 02a6 454A     		ldr r2, = 0x200004f8
 344 02a8 1660     		str r6, [r2]
 345              		
 346              	anjianfanhui:
 347 02aa BDE8FF9F 		pop {r0-r12,pc}
 348              	xieshumaguan: @ r0位数
 349 02ae 2DE9FF5F 		push {r0-r12,lr}
 350 02b2 DFF81891 		ldr r9, = 0x20000110
 351 02b6 434F     		ldr r7, = 0x20000100
 352 02b8 DFF82481 		ldr r8, = shuaxinbiao
 353 02bc 4FF00056 		ldr r6, = 0x20000000
 354              	
 355              	xianshi:
 356 02c0 18F8015B 		ldrb r5, [r8], # 1
 357 02c4 17F8012B 		ldrb r2, [r7], # 1
 358 02c8 19F8014B 		ldrb r4, [r9], # 1
 359 02cc 7270     		strb r2, [r6, # 1]
 360 02ce B470     		strb r4, [r6, # 2]
 361 02d0 3570     		strb r5, [r6]
 362 02d2 FFF7C6FF 		bl xie595
 363 02d6 0138     		subs r0, # 1
 364 02d8 F2D1     		bne xianshi
 365 02da BDE8FF9F 		pop {r0-r12,pc}
 366              		
 367              	_nmi_handler:
 368 02de 7047     		bx lr
 369              	_hard_fault:
 370 02e0 7047     		bx lr
 371              	_memory_fault:
 372 02e2 7047     		bx lr
 373              	_bus_fault:
 374 02e4 7047     		bx lr
 375              	_usage_fault:
 376 02e6 7047     	 	bx lr
 377              	systickdingshiqi:              @ SYSTICK定时期中断服务函数
 378 02e8 2DE9FF5F 		push {r0-r12,lr}
 379 02ec 3D48     		ldr r0, = 0xe00ed04
 380 02ee 4FF00071 		ldr r1, = 0x2000000 
 381 02f2 0160     		str r1, [r0]         @ 挂起SYSTICK
 382 02f4 3C4A     		ldr r2, = 0x20000010
 383 02f6 324C     		ldr r4, = 0x20000014
 384 02f8 2378     		ldrb r3, [r4]
 385 02fa 6578     		ldrb r5, [r4, # 1]
 386 02fc A678     		ldrb r6, [r4, # 2]
 387 02fe 1168     		ldr r1, [r2]
 388 0300 01F10101 		add r1, # 1
 389 0304 B1F57A7F 		cmp.w r1, # 1000
 390 0308 04BF     		itt eq
 391 030a 0021     		moveq r1, # 0
ARM GAS  1.s 			page 8


 392 030c 0133     		addeq r3, # 1
 393 030e 3C2B     		cmp r3 ,# 60
 394 0310 04BF     		itt eq
 395 0312 0023     		moveq r3, # 0
 396 0314 0135     		addeq r5, # 1
 397 0316 3C2D     		cmp r5, # 60
 398 0318 04BF     		itt eq
 399 031a 0025     		moveq r5, # 0
 400 031c 0136     		addeq r6, # 1
 401 031e 182E     		cmp r6, # 24
 402 0320 08BF     		it eq
 403 0322 0026     		moveq r6, # 0
 404 0324 2370     		strb r3, [r4]
 405 0326 6570     		strb r5, [r4, # 1]
 406 0328 A670     		strb r6, [r4, # 2]
 407 032a 1160     		str r1, [r2]
 408 032c BDE8FF9F 		pop {r0-r12,pc}
 409              	
 410              	
 411              	tim2dingshiqi:
 412 0330 FFB5     		push {r0-r7,lr}
 413 0332 2E48     		ldr r0, = 0x40000034 @ ccr1
 414 0334 0268     		ldr r2, [r0] @duqushijian
 415 0336 FF2A     		cmp r2, # 0xff
 416 0338 15D8     		bhi  tim2fanhui
 417 033a A02A     		cmp r2, # 0xa0
 418 033c 02D8     		bhi hongwai1
 419 033e 602A     		cmp r2, # 0x60
 420 0340 03D8     		bhi hongwai0
 421 0342 10E0     		b tim2fanhui
 422              	hongwai1:
 423 0344 4FF00104 		mov r4, # 1
 424 0348 02E0     		b ddd1
 425              	hongwai0:
 426 034a 4FF00004 		mov r4, # 0
 427 034e FFE7     		b ddd1
 428              	hongwaijia:
 429              	ddd1:
 430 0350 0F49     		ldr r1, = 0x200004fc
 431 0352 0B68     		ldr r3, [r1]
 432 0354 2648     		ldr r0, = 0x2200a000
 433 0356 C450     		str r4, [r0, r3]
 434 0358 03F10403 		add r3, r3, # 4
 435 035c 7C2B     		cmp r3, # 124
 436 035e 01D9     		bls cccc1
 437 0360 4FF00003 		mov r3, # 0
 438              	cccc1:	
 439 0364 0B60     		str r3, [r1]
 440              		
 441              	tim2fanhui:
 442 0366 2348     		ldr r0, = 0x40000024
 443 0368 4FF00003 		mov r3, # 0
 444 036c 0360     		str r3, [r0]
 445 036e FFBD0400 		pop {r0-r7,pc}
 445      01400010 
 445      0240834D 
 445      01000020 
ARM GAS  1.s 			page 9


 445      02400410 
ARM GAS  1.s 			page 10


DEFINED SYMBOLS
                 1.s:4      .data:00000000 $d
                 1.s:6      .data:00000000 shumaguanmabiao
                 1.s:7      .data:0000000a hongwaimabiao
                 1.s:9      .data:0000007e shuaxinbiao
                 1.s:11     *ABS*:20005000 STACKINIT
                 1.s:12     *ABS*:20000300 systickbiaozhi
                 1.s:14     .text:00000000 xiangliangbiao
                 1.s:82     .text:0000010c _start
                 1.s:367    .text:000002de _nmi_handler
                 1.s:369    .text:000002e0 _hard_fault
                 1.s:371    .text:000002e2 _memory_fault
                 1.s:373    .text:000002e4 _bus_fault
                 1.s:375    .text:000002e6 _usage_fault
                 1.s:377    .text:000002e8 systickdingshiqi
                 1.s:411    .text:00000330 tim2dingshiqi
                            .text:00000000 $d
                 1.s:83     .text:0000010c $t
                 1.s:91     .text:0000011c gsszbz
                 1.s:97     .text:00000128 rccchushihua
                 1.s:107    .text:0000013c chaxun
                 1.s:113    .text:00000148 rccgg
                 1.s:122    .text:00000156 neicunqingling
                 1.s:126    .text:00000162 qingling_xunhuan
                 1.s:131    .text:0000016a chushihuayixieshuju
                 1.s:151    .text:0000018e systick
                 1.s:174    .text:000001ac waisheshizhong
                 1.s:190    .text:000001b8 zhongduankongzhi
                 1.s:213    .text:000001ce timdingshiqi
                 1.s:252    .text:000001f4 IOshezhi
                 1.s:268    .text:000001fa zhuchengxu
                 1.s:329    .text:0000028a anjian
                 1.s:296    .text:00000240 zhuan_ascii
                 1.s:348    .text:000002ae xieshumaguan
                 1.s:300    .text:00000248 xunhuanqiuma
                 1.s:310    .text:00000262 xie595
                 1.s:319    .text:00000276 xunhuan595
                 1.s:334    .text:00000296 panduananjian
                 1.s:342    .text:000002a6 anjianzhengque
                 1.s:346    .text:000002aa anjianfanhui
                 1.s:355    .text:000002c0 xianshi
                 1.s:441    .text:00000366 tim2fanhui
                 1.s:422    .text:00000344 hongwai1
                 1.s:425    .text:0000034a hongwai0
                 1.s:429    .text:00000350 ddd1
                 1.s:428    .text:00000350 hongwaijia
                 1.s:438    .text:00000364 cccc1
                 1.s:445    .text:00000370 $d

NO UNDEFINED SYMBOLS
