ARM GAS  1.s 			page 1


   1              		@@ 单片机stm32f030f4p6
   2              		@电池内阻仪正负电源版
   3              		@作者：yjmwxwx
   4              		@时间：2023-03-22
   5              		@编译器：ARM-NONE-EABI
   6              		.thumb
   7              		.syntax unified
   8              	        .section .text
   9              	
  10              	vectors:
  11 0000 00100020 		.word STACKINIT
  12 0004 B1000000 		.word _start + 1
  13 0008 D9110000 		.word _nmi_handler + 1
  14 000c DB110000 		.word _hard_fault  + 1
  15 0010 00000000 		.word 0
  16 0014 00000000 		.word 0
  17 0018 00000000 		.word 0
  18 001c 00000000 		.word 0
  19 0020 00000000 		.word 0
  20 0024 00000000 		.word 0
  21 0028 00000000 		.word 0
  22 002c DD110000 		.word _svc_handler +1
  23 0030 00000000 		.word 0
  24 0034 00000000 		.word 0
  25 0038 DF110000 		.word _pendsv_handler +1
  26 003c E1110000 		.word _systickzhongduan +1           @ 15
  27 0040 5F120000 		.word aaa +1     @ _wwdg +1          @ 0
  28 0044 5F120000 		.word aaa +1     @_pvd +1            @ 1
  29 0048 5F120000 		.word aaa +1     @_rtc +1            @ 2
  30 004c 5F120000 		.word aaa +1     @_flash +1          @ 3
  31 0050 5F120000 		.word aaa +1    @ _rcc + 1           @ 4
  32 0054 5F120000 		.word aaa +1      @_exti0_1  +1      @ 5
  33 0058 5F120000 		.word aaa +1      @ _exti2_3 +1      @ 6
  34 005c 5F120000 		.word aaa +1       @_exti4_15 +1     @ 7
  35 0060 5F120000 		.word aaa +1                         @ 8
  36 0064 5F120000 		.word aaa +1    @__dma_wan  +1       @ 9
  37 0068 5F120000 		.word aaa +1    @_dma1_2_3 +1        @ 10
  38 006c 5F120000 		.word aaa +1       @_dma1_4_5 +1     @ 11
  39 0070 5F120000 		.word aaa +1     @_adc1 +1           @ 12
  40 0074 5F120000 		.word aaa +1       @_tim1_brk_up +1  @ 13
  41 0078 5F120000 		.word aaa +1        @ _tim1_cc +1    @ 14
  42 007c 5F120000 		.word aaa +1         @_tim2 +1       @ 15
  43 0080 5F120000 		.word aaa +1          @_tim3 +1      @ 16
  44 0084 5F120000 		.word aaa +1                         @ 17
  45 0088 5F120000 		.word aaa +1                         @ 18
  46 008c 5F120000 		.word aaa +1    @_tim14 +1           @ 19
  47 0090 5F120000 		.word aaa +1                         @ 20
  48 0094 5F120000 		.word aaa +1         @_tim16 +1      @ 21
  49 0098 5F120000 		.word aaa +1         @_tim17 +1      @ 22
  50 009c 5F120000 		.word aaa +1          @_i2c   +1     @ 23
  51 00a0 5F120000 		.word aaa +1                         @ 24
  52 00a4 5F120000 		.word aaa +1           @_spi   +1    @ 25
  53 00a8 5F120000 		.word aaa +1                         @ 26
  54 00ac 5F120000 		.word aaa +1         @_usart1 +1     @ 27
  55              		
  56              	_start:
  57              	shizhong:
ARM GAS  1.s 			page 2


  58 00b0 6E4A     		ldr r2, = 0x40022000   @FLASH访问控制
  59 00b2 3221     		movs r1, # 0x32
  60 00b4 1160     		str r1, [r2]           @FLASH缓冲 缓冲开启
  61 00b6 6E48     		ldr r0, = 0x40021000 @ rcc
  62 00b8 6E49     		ldr r1, = 0x10001
  63 00ba 0160     		str r1, [r0]
  64              	denghse:
  65 00bc 0168     		ldr r1, [r0]
  66 00be 8903     		lsls r1, r1, # 14
  67 00c0 FCD5     		bpl denghse
  68              	dengpllguan:
  69 00c2 0168     		ldr r1, [r0]
  70 00c4 8901     		lsls r1, r1, # 6
  71 00c6 FCD4     		bmi dengpllguan
  72 00c8 6B49     		ldr r1, = 0x154002	@0x150002	@0x150002
  73 00ca 0046     		mov r0, r0
  74 00cc 4160     		str r1, [r0, # 0x04]
  75 00ce 0046     		mov r0, r0
  76 00d0 6A49     		ldr r1, = 0x1010000
  77 00d2 0046     		mov r0, r0
  78 00d4 0160     		str r1, [r0]
  79              	
  80              	dengpll:
  81 00d6 0168     		ldr r1, [r0]
  82 00d8 8901     		lsls r1, # 6
  83 00da FCD5     		bpl dengpll
  84              	
  85              	
  86 00dc 6849     		ldr r1, = 100
  87 00de 0163     		str r1, [r0, # 0x30]
  88              		
  89              	_waisheshizhong:		                         @ 外设时钟
  90              		@+0x14=RCC_AHBENR
  91              		@ 0=DMA @ 2=SRAM @ 4=FLITF@ 6=CRC @ 17=PA @ 18=PB @ 19=PC @ 20=PD @ 22=PF
  92 00e0 6348     		ldr r0, = 0x40021000
  93 00e2 6849     		ldr r1, = 0x60001
  94 00e4 4161     		str r1, [r0, # 0x14]
  95              	
  96              		@+0x18外设时钟使能寄存器 (RCC_APB2ENR)
  97              		@0=SYSCFG @5=USART6EN @9=ADC @11=TIM1 @12=SPI1 @14=USART1 @16=TIM15 @17=TIM16 @18=TIM17 @22=DBGMCU
  98 00e6 6849     		ldr r1, = 0x1a00
  99 00e8 8161     		str r1, [r0, # 0x18]
 100              		@+0X1C=RCC_APB1ENR
 101              		@ 1=TIM3 @ 4=TIM6 @ 5=TIM7 @ 8=TIM14 @ 11=WWDG @ 14=SPI @ 17=USRT2 @ 18=USART3 @ 20=USART5 @ 21=I2
 102              		@ 22=I2C2 @ 23=USB @ 28=PWR
 103 00ea 684A     		ldr r2, = 0x902
 104 00ec C261     		str r2, [r0, # 0x1c]
 105              		
 106              	_neicunqingling:
 107 00ee 6848     		ldr r0, = 0x20001000
 108 00f0 684A     		ldr r2, = 0x20000000
 109 00f2 0021     		movs r1, # 0
 110              	_neicunqinglingxunhuan:
 111 00f4 0438     	        subs r0, r0, # 4
 112 00f6 0160     		str r1, [r0]
 113 00f8 9042     		cmp r0, r2
 114 00fa FBD1     		bne _neicunqinglingxunhuan
ARM GAS  1.s 			page 3


 115              	
 116              	
 117              	_waishezhongduan:		@外设中断
 118              		@0xE000E100    0-31  写1开，写0没效
 119              		@0XE000E180    0-31 写1关，写0没效
 120              		@0XE000E200    0-31 挂起，写0没效
 121              		@0XE000E280    0-31 清除， 写0没效
 122              	@	ldr r0, =  0xe000e100
 123              	@	ldr r1, = 0x200 @0x10200  @ 0x10000
 124              	@	str r1, [r0]
 125              		
 126              	@_kanmengou:
 127              	@	ldr r0, = 0x40003000
 128              	@	ldr r1, = 0x5555
 129              	@	str r1, [r0]
 130              	@	movs r1, # 7
 131              	@	str r1, [r0, # 4]
 132              	@	ldr r1, = 0xfff
 133              	@	str r1, [r0, # 8]
 134              	@	ldr r1, = 0xaaaa
 135              	@	str r1, [r0]
 136              	@	ldr r1, = 0xcccc
 137              	@	str r1, [r0]
 138              		
 139              	io_she_zhi:
 140              		@@@@@@@@@@@@@@@@@@@@@@@@@@@@@@@@@@@@@@@@@@@@@@@@@@@@@@@@@@@@@@@@@@@@@@@@@@@@@@@@@@@@@@@@@@@@@@
 141              		@a(0x48000000)b(0x48000400)c(0x48000800)d(0x48000c00)f(0x48001400)
 142              		@ 输入（00），通用输出（01），复用功能（10），模拟（11）
 143              		@偏移0x4 = 端口输出类型 @ （0 推挽），（ 1 开漏）
 144              		@偏移0x8 = 输出速度  00低速， 01中速， 11高速
 145              		@偏移0xC = 上拉下拉 (00无上下拉，  01 上拉， 10下拉)
 146              		@偏移0x10 = 输入数据寄存器
 147              		@偏移0x14 = 输出数据寄存器
 148              		@偏移0x18 = 端口开  0-15置位
 149              		@偏移0x28 = 端口关
 150              		@0X20 = 复用低
 151              		@GPIO口0（0-3位）每个IO口占用4位
 152              		@ AF0 = 0X0000, AF1 = 0X0001, AF2 = 0X0010 AF3 = 0X0011, AF4 = 0X0100
 153              		@ AF5 = 0X0101, AF6 = 0X0111, AF7 = 0X1000
 154              		@0x24 = 复用高
 155              		@GPIO口8 （0-3位）每个IO口占用4位
 156              		@ AF0 = 0X0000, AF1 = 0X0001, AF2 = 0X0010 AF3 = 0X0011, AF4 = 0X0100
 157              		@ AF5 = 0X0101, AF6 = 0X0111, AF7 = 0X1000
 158              		@@@@@@@@@@@@@@@@@@@@@@@@@@@@@@@@@@@@@@@@@@@@@@@@@@@@@@@@@@@@@@@@@@@@@@@@@@@@@@@@@@@@@@@@@@@@@@
 159              	
 160 00fc 6648     		ldr r0, = 0x48000000
 161 00fe 6749     		ldr r1, = 0x28208a57
 162 0100 0160     		str r1, [r0]
 163 0102 B021     		movs r1, # 0xb0
 164 0104 4160     		str r1, [r0, # 0x04]
 165 0106 6649     		ldr r1, = 0x30cffc
 166 0108 8160     		str r1, [r0, # 0x08]
 167 010a 6649     		ldr r1, = 0x200
 168 010c 4162     		str r1, [r0, # 0x24]
 169 010e 6649     		ldr r1, = 0x41000
 170 0110 C160     		str r1, [r0, # 0x0c]
 171              	
ARM GAS  1.s 			page 4


 172 0112 6648     		ldr r0, = 0x48000400
 173 0114 0421     		movs r1, # 0x04
 174 0116 0160     		str r1, [r0]
 175 0118 0C21     		movs r1, # 0x0c
 176 011a 8160     		str r1, [r0, # 0x08]
 177              	
 178              	spi_chushihua:
 179 011c 6448     		ldr r0, = 0x40013000
 180 011e 6549     		ldr  r1, = 0x708
 181 0120 4160     		str r1, [r0, # 0x04]
 182 0122 6549     		ldr r1, = 0x7c
 183 0124 0160     		str r1, [r0]
 184              	
 185              	
 186              	
 187              	_lcdchushihua:
 188 0126 3320     		movs r0, # 0x33
 189 0128 0021     		movs r1, # 0
 190 012a 00F0DDFF 		bl _xielcd
 191 012e 00F0D6FF 		bl _lcdyanshi
 192              	
 193 0132 3220     		movs r0, # 0x32
 194 0134 0021     		movs r1, # 0
 195 0136 00F0D7FF 		bl _xielcd
 196 013a 00F0D0FF 		bl _lcdyanshi
 197 013e 2820     		movs r0, # 0x28
 198 0140 0021     		movs r1, # 0
 199 0142 00F0D1FF 		bl _xielcd
 200 0146 00F0CAFF 		bl _lcdyanshi
 201 014a 0C20     		movs r0, # 0x0c
 202 014c 0021     		movs r1, # 0
 203 014e 00F0CBFF 		bl _xielcd
 204 0152 00F0C4FF 		bl _lcdyanshi
 205 0156 0120     		movs r0, # 0x01
 206 0158 0021     		movs r1, # 0
 207 015a 00F0C5FF 		bl _xielcd
 208 015e 00F0BEFF 		bl _lcdyanshi
 209              	
 210 0162 8020     		movs r0, # 0x80
 211 0164 5549     		ldr r1, = yjmwxwx
 212 0166 1022     		movs r2, # 16
 213 0168 00F0ABFF 		bl _lcdxianshi
 214 016c 5448     		ldr r0, = 0xffffff
 215              	yjmwxwx_yanshi:
 216 016e 0138     		subs r0, r0, # 1
 217 0170 FDD1     		bne yjmwxwx_yanshi
 218              	
 219 0172 5448     		ldr r0, = 0x8003c00
 220 0174 5449     		ldr r1, = 0xffffffff
 221 0176 0068     		ldr r0, [r0]
 222 0178 8842     		cmp r0, r1
 223 017a 03D1     		bne __tiaoguo_chuchang_shezhi
 224 017c 00F033F9 		bl __du_chuchang	@恢复出厂设置
 225 0180 00F058F9 		bl __xie_flash
 226              		
 227              	__tiaoguo_chuchang_shezhi:	
 228 0184 5148     		ldr r0, = liangcheng
ARM GAS  1.s 			page 5


 229 0186 0421     		movs r1, # 4
 230 0188 0160     		str r1, [r0]
 231 018a 00F0EFFE 		bl __pinlv_shezhi
 232              	
 233              	
 234              	
 235              	__anjian0:
 236 018e 0CE1     		b ting
 237              	__anjian1:
 238 0190 8020     	        movs r0, # 0x80
 239 0192 4F49     		ldr r1, = duanlu
 240 0194 1022     		movs r2, # 16
 241 0196 00F094FF 		bl _lcdxianshi
 242              	_MEGANMEOW_:
 243 019a 00F03EF9 		bl __du_duanlu_biao
 244 019e 00F02FF9 		bl __du_jiaozhun_biao
 245              		
 246 01a2 4A48     		ldr r0, = liangcheng
 247 01a4 0021     		movs r1, # 0
 248 01a6 0160     		str r1, [r0]
 249              	__duanlu_qingling:
 250 01a8 00F03CF8 		bl __duanlu_qingling_xianshi
 251 01ac 00F06DF9 		bl __an_jian
 252 01b0 0128     		cmp r0, # 1
 253 01b2 02D0     		beq __qingling_jia
 254 01b4 0228     		cmp r0, # 2
 255 01b6 11D0     		beq __qingling_jian
 256 01b8 F6E7     		b __duanlu_qingling
 257              	__qingling_jia:
 258 01ba 00F066F9 		bl __an_jian
 259 01be 0328     		cmp r0, # 3
 260 01c0 1DD0     		beq __qingling_baocun
 261 01c2 0028     		cmp r0, # 0
 262 01c4 02D0     		beq __qingling_jiale
 263 01c6 00F02DF8 		bl __duanlu_qingling_xianshi
 264 01ca F6E7     		b __qingling_jia
 265              	__qingling_jiale:
 266 01cc 3F48     		ldr r0, = liangcheng
 267 01ce 0068     		ldr r0, [r0]
 268 01d0 8000     		lsls r0, r0, # 2
 269 01d2 4049     		ldr r1, = mr10_0
 270 01d4 0A58     		ldr r2, [r1, r0]
 271 01d6 0132     		adds r2, r2, # 1
 272 01d8 0A50     		str r2, [r1, r0]
 273 01da E5E7     		b __duanlu_qingling
 274              	__qingling_jian:
 275 01dc 00F055F9 		bl __an_jian
 276 01e0 0328     		cmp r0, # 3
 277 01e2 0CD0     		beq __qingling_baocun
 278 01e4 0028     		cmp r0, # 0
 279 01e6 02D0     		beq __qingling_jianle
 280 01e8 00F01CF8 		bl __duanlu_qingling_xianshi
 281 01ec F6E7     		b __qingling_jian
 282              	__qingling_jianle:
 283 01ee 3748     		ldr r0, = liangcheng
 284 01f0 0068     		ldr r0, [r0]
 285 01f2 8000     		lsls r0, r0, # 2
ARM GAS  1.s 			page 6


 286 01f4 3749     		ldr r1, = mr10_0
 287 01f6 0A58     		ldr r2, [r1, r0]
 288 01f8 013A     		subs r2, r2, # 1
 289 01fa 0A50     		str r2, [r1, r0]
 290 01fc D4E7     		b __duanlu_qingling
 291              		
 292              	__qingling_baocun:	
 293 01fe 3348     		ldr r0, = liangcheng
 294 0200 0168     		ldr r1, [r0]
 295 0202 0131     		adds r1, r1, # 1
 296 0204 0160     		str r1, [r0]
 297 0206 0529     		cmp r1, # 5
 298 0208 CED1     		bne __duanlu_qingling
 299              	__duanlu_qingling_wan:
 300 020a 0421     		movs r1, # 4
 301 020c 0160     		str r1, [r0]
 302 020e 8020     	        movs r0, # 0x80
 303 0210 3149     		ldr r1, = duanlu_wancheng
 304 0212 1022     		movs r2, # 16
 305 0214 00F055FF 		bl _lcdxianshi
 306 0218 2948     		ldr r0, = 0xffffff
 307              	__yy:
 308 021a 0138     		subs r0, r0, # 1
 309 021c FDD1     		bne __yy
 310 021e 00F009F9 		bl __xie_flash
 311 0222 01BE     		bkpt # 1
 312              		
 313              	__duanlu_qingling_xianshi:
 314 0224 03B5     		push {r0-r1,lr}
 315 0226 00F04AF9 		bl __xianshi_dangwei
 316 022a 00F03BF9 		bl __xianshi_zukang_danwei
 317 022e 2748     		ldr r0, = liangcheng
 318 0230 2849     		ldr r1, = mr10_0
 319 0232 0068     		ldr r0, [r0]
 320 0234 8000     		lsls r0, r0, # 2
 321 0236 0958     		ldr r1, [r1, r0]
 322 0238 2848     		ldr r0, = z
 323 023a 0068     		ldr r0, [r0]
 324 023c 401A     		subs r0, r0, r1
 325 023e 00F049F9 		bl __xianshi_zukang
 326 0242 03BD     		pop {r0-r1,pc}
 327              	__anjian2:	
 328              	__dangwei_jia_deng_songshou:
 329 0244 00F021F9 		bl __an_jian
 330 0248 0328     		cmp r0, # 3
 331 024a 49D0     		beq __anjian3
 332 024c 0028     		cmp r0, # 0
 333 024e 02D0     		beq __dangwei_jia_le
 334 0250 00F0AEF8 		bl __xianshi_dianzu
 335 0254 F6E7     		b __dangwei_jia_deng_songshou
 336              	@	bl __an_jian
 337              	@	b __ren_wu_diao_du
 338              	__dangwei_jia_le:
 339 0256 1D48     		ldr r0, = liangcheng
 340 0258 0168     		ldr r1, [r0]
 341 025a 0131     		adds r1, r1, # 1
 342 025c 0160     		str r1, [r0]
ARM GAS  1.s 			page 7


 343 025e 0529     		cmp r1, # 5
 344 0260 01D1     		bne __anjian8_fanhui
 345 0262 0021     		movs r1, # 0
 346 0264 0160     		str r1, [r0]
 347              	
 348              	__anjian8_fanhui:
 349 0266 00F02AF9 		bl __xianshi_dangwei
 350 026a 96E0     		b __ren_wu_diao_du
 351 026c 00200240 		.ltorg
 351      00100240 
 351      01000100 
 351      02401500 
 351      00000101 
 352              		
 353              	__anjian3:	
 354 02e0 8020     		movs r0, # 0x80
 355 02e2 BA49     		ldr r1, = jiaozhun
 356 02e4 1022     		movs r2, # 16
 357 02e6 00F0ECFE 		bl _lcdxianshi
 358              		
 359 02ea 00F096F8 		bl __du_duanlu_biao
 360 02ee 00F087F8 		bl __du_jiaozhun_biao
 361 02f2 B748     		ldr r0, = jiaozhun_kaiguan
 362 02f4 0121     		movs r1, # 1
 363 02f6 0160     		str r1, [r0]
 364 02f8 B648     		ldr r0, = liangcheng
 365 02fa 0021     		movs r1, # 0
 366 02fc 0160     		str r1, [r0]
 367              	__jiaozhun_dianzu:
 368 02fe 00F03CF8 		bl __jiaozhun_moshi_xianshi
 369 0302 00F0C2F8 		bl __an_jian
 370 0306 0128     		cmp r0, # 1
 371 0308 02D0     		beq __jiaozhun_jia
 372 030a 0228     		cmp r0, # 2
 373 030c 11D0     		beq __jiaozhun_jian
 374 030e F6E7     		b __jiaozhun_dianzu
 375              	__jiaozhun_jia:
 376 0310 00F0BBF8 		bl __an_jian
 377 0314 0328     		cmp r0, # 3
 378 0316 1DD0     		beq __jiaozhun_baocun
 379 0318 0028     		cmp r0, # 0
 380 031a 02D0     		beq __jiaozhun_jiale
 381 031c 00F02DF8 		bl __jiaozhun_moshi_xianshi
 382 0320 F6E7     		b __jiaozhun_jia
 383              	__jiaozhun_jiale:
 384 0322 AC48     		ldr r0, = liangcheng
 385 0324 0068     		ldr r0, [r0]
 386 0326 8000     		lsls r0, r0, # 2
 387 0328 AB49     		ldr r1, = mr10_jz
 388 032a 0A58     		ldr r2, [r1, r0]
 389 032c 0132     		adds r2, r2, # 1
 390 032e 0A50     		str r2, [r1, r0]
 391 0330 E5E7     		b __jiaozhun_dianzu
 392              	__jiaozhun_jian:
 393 0332 00F0AAF8 		bl __an_jian
 394 0336 0328     		cmp r0, # 3
 395 0338 0CD0     		beq __jiaozhun_baocun
ARM GAS  1.s 			page 8


 396 033a 0028     		cmp r0, # 0
 397 033c 02D0     		beq __jiaozhun_jianle
 398 033e 00F01CF8 		bl __jiaozhun_moshi_xianshi
 399 0342 F6E7     		b __jiaozhun_jian
 400              	__jiaozhun_jianle:
 401 0344 A348     		ldr r0, = liangcheng
 402 0346 0068     		ldr r0, [r0]
 403 0348 8000     		lsls r0, r0, # 2
 404 034a A349     		ldr r1, = mr10_jz
 405 034c 0A58     		ldr r2, [r1, r0]
 406 034e 013A     		subs r2, r2, # 1
 407 0350 0A50     		str r2, [r1, r0]
 408 0352 D4E7     		b __jiaozhun_dianzu
 409              		
 410              	__jiaozhun_baocun:	
 411 0354 9F48     		ldr r0, = liangcheng
 412 0356 0168     		ldr r1, [r0]
 413 0358 0131     		adds r1, r1, # 1
 414 035a 0160     		str r1, [r0]
 415 035c 0529     		cmp r1, # 5
 416 035e CED1     		bne __jiaozhun_dianzu
 417              	__jiaozhun_wan:
 418 0360 0421     		movs r1, # 4
 419 0362 0160     		str r1, [r0]
 420 0364 8020     	        movs r0, # 0x80
 421 0366 9D49     		ldr r1, = jiaozhun_wan
 422 0368 1022     		movs r2, # 16
 423 036a 00F0AAFE 		bl _lcdxianshi
 424 036e 9C48     		ldr r0, = 0xffffff
 425              	__yy1:
 426 0370 0138     		subs r0, r0, # 1
 427 0372 FDD1     		bne __yy1
 428 0374 00F05EF8 		bl __xie_flash
 429 0378 01BE     		bkpt # 1
 430              		
 431              	__jiaozhun_moshi_xianshi:
 432 037a 03B5     		push {r0-r1,lr}
 433 037c 00F09FF8 		bl __xianshi_dangwei
 434 0380 00F090F8 		bl __xianshi_zukang_danwei
 435 0384 9348     		ldr r0, = liangcheng
 436 0386 9749     		ldr r1, = mr10_0
 437 0388 0068     		ldr r0, [r0]
 438 038a 8000     		lsls r0, r0, # 2
 439 038c 0958     		ldr r1, [r1, r0]
 440 038e 9648     		ldr r0, = z
 441 0390 0068     		ldr r0, [r0]
 442 0392 401A     		subs r0, r0, r1
 443 0394 00F09EF8 		bl __xianshi_zukang
 444 0398 03BD     		pop {r0-r1,pc}	
 445              	
 446              	
 447              	
 448              	
 449              	
 450              	
 451              	__ren_wu_diao_du:
 452 039a 00F076F8 		bl __an_jian
ARM GAS  1.s 			page 9


 453              	
 454 039e 9349     		ldr r1, = anjian_hao
 455 03a0 0860     		str r0, [r1]
 456 03a2 8000     		lsls r0, r0, # 2
 457 03a4 9249     		ldr r1, = an_jian_biao
 458 03a6 0A58     		ldr r2, [r1, r0]
 459 03a8 9746     		mov pc, r2
 460              	
 461              	
 462              	
 463              		
 464              	ting:
 465 03aa 00F001F8 		bl __xianshi_dianzu
 466 03ae F4E7     		b __ren_wu_diao_du
 467              		
 468              	__xianshi_dianzu:
 469 03b0 03B5     		push {r0-r1,lr}
 470              	@	bl __xianshi_shangxia_bi
 471              	@	b ting
 472 03b2 00F084F8 		bl __xianshi_dangwei
 473 03b6 00F075F8 		bl __xianshi_zukang_danwei
 474 03ba 8648     		ldr r0, = liangcheng
 475 03bc 8D49     		ldr r1, = f_mr10_0
 476 03be 0068     		ldr r0, [r0]
 477 03c0 8000     		lsls r0, r0, # 2
 478 03c2 0958     		ldr r1, [r1, r0]
 479 03c4 8848     		ldr r0, = z
 480 03c6 0068     		ldr r0, [r0]
 481 03c8 401A     		subs r0, r0, r1
 482 03ca 00F083F8 		bl __xianshi_zukang
 483 03ce 03BD     		pop {r0-r1,pc}
 484              		
 485              	__xianshi_ceshi:	
 486 03d0 0121     		movs r1, # 1	
 487 03d2 894A     		ldr r2, = asciimabiao
 488 03d4 FF23     		movs r3, # 0xff		@小数点位置
 489 03d6 00F0D3FE 		bl _zhuanascii
 490 03da C420     		movs r0, # 0xc4
 491 03dc 8649     		ldr r1, = asciimabiao
 492 03de 0122     		movs r2, # 1
 493 03e0 00F06FFE 		bl _lcdxianshi
 494              	
 495              		
 496 03e4 E1E7     		b ting
 497              	
 498              	
 499              	__du_chuchang:	
 500 03e6 7FB4     		push {r0-r6}
 501 03e8 8448     		ldr r0, = chuchang_dianzu_biao 
 502 03ea 7B4A     		ldr r2, = mr10_jz
 503 03ec 0025     		movs r5, # 0
 504              	__du_chuchang_xunhuan:
 505 03ee 2E46     		mov r6, r5
 506 03f0 B600     		lsls r6, r6, # 2
 507 03f2 8359     		ldr r3, [r0, r6]
 508 03f4 9351     		str r3, [r2, r6]
 509 03f6 0135     		adds r5, r5, # 1
ARM GAS  1.s 			page 10


 510 03f8 052D     		cmp r5, # 5
 511 03fa F8D1     		bne __du_chuchang_xunhuan
 512 03fc 7FBC     		pop {r0-r6}
 513 03fe 7047     		bx lr
 514              		
 515              	
 516              	
 517              		
 518              	__du_jiaozhun_biao:
 519 0400 7FB4     		push {r0-r6}
 520 0402 7F48     		ldr r0, = f_mr10_jz
 521 0404 744A     		ldr r2, = mr10_jz
 522 0406 0025     		movs r5, # 0
 523              	__du_jiaozhun_xunhuan:
 524 0408 2E46     		mov r6, r5
 525 040a B600     		lsls r6, r6, # 2
 526 040c 8359     		ldr r3, [r0, r6]
 527 040e 9351     		str r3, [r2, r6]
 528 0410 0135     		adds r5, r5, # 1
 529 0412 052D     		cmp r5, # 5
 530 0414 F8D1     		bne __du_jiaozhun_xunhuan
 531 0416 7FBC     		pop {r0-r6}
 532 0418 7047     		bx lr
 533              	
 534              		
 535              	__du_duanlu_biao:
 536 041a 7FB4     		push {r0-r6}
 537 041c 7548     		ldr r0, = f_mr10_0
 538 041e 714A     		ldr r2, = mr10_0
 539 0420 0025     		movs r5, # 0
 540              	__du_duanlu_xunhuan:
 541 0422 2E46     		mov r6, r5
 542 0424 B600     		lsls r6, r6, # 2
 543 0426 8359     		ldr r3, [r0, r6]
 544 0428 9351     		str r3, [r2, r6]
 545 042a 0135     		adds r5, r5, # 1
 546 042c 052D     		cmp r5, # 5
 547 042e F8D1     		bne __du_duanlu_xunhuan
 548 0430 7FBC     		pop {r0-r6}
 549 0432 7047     		bx lr
 550              		
 551              	__xie_flash:
 552 0434 7348     		ldr r0, = 0x40022000
 553 0436 7449     		ldr r1, = 0x45670123
 554 0438 4160     		str r1, [r0, # 0x04]
 555 043a 7449     		ldr r1, = 0xcdef89ab
 556 043c 4160     		str r1, [r0, # 0x04]
 557              		@擦除2页
 558 043e 0125     		movs r5, # 1
 559 0440 734C     		ldr r4, = 0x8003c00
 560              	_flashmang:
 561 0442 C268     		ldr r2, [r0, # 0x0c]
 562 0444 D207     		lsls r2, r2, # 31
 563 0446 FCD4     		bmi _flashmang
 564 0448 0221     		movs r1, # 2
 565 044a 0161     		str r1, [r0, # 0x10]
 566 044c 4461     		str r4, [r0, # 0x14]
ARM GAS  1.s 			page 11


 567 044e 4221     		movs r1, # 0x42
 568 0450 0161     		str r1, [r0, # 0x10]
 569 0452 013D     		subs r5, # 1
 570 0454 F5D1     		bne _flashmang
 571              		@写FLASH
 572 0456 6E4F     		ldr r7, = 0x8003c00
 573 0458 624C     		ldr r4, = mr10_0
 574 045a 0025     		movs r5, # 0
 575 045c 0A26     		movs r6, # 10
 576              	_flashmang1:
 577 045e C268     		ldr r2, [r0, # 0x0c]
 578 0460 D207     		lsls r2, r2, # 31
 579 0462 FCD4     		bmi _flashmang1
 580 0464 0121     		movs r1, # 1
 581 0466 0161     		str r1, [r0, # 0x10]
 582 0468 635B     		ldrh r3, [r4, r5]
 583 046a 7B53     		strh r3, [r7, r5]
 584 046c 0235     		adds r5, r5, # 2
 585              	_flashmang2:
 586 046e C268     		ldr r2, [r0, # 0x0c]
 587 0470 D207     		lsls r2, r2, # 31
 588 0472 FCD4     		bmi _flashmang2
 589 0474 635B     		ldrh r3, [r4, r5]
 590 0476 7B53     		strh r3, [r7, r5]
 591 0478 0235     		adds r5, r5, # 2
 592 047a 013E     		subs r6, r6, # 1
 593 047c EFD1     		bne _flashmang1
 594              	_flashmang4:
 595 047e C268     		ldr r2, [r0, # 0x0c]
 596 0480 D207     		lsls r2, r2, # 31
 597 0482 FCD4     		bmi _flashmang4
 598              	@	movs r1, # 0x80
 599              	@	str r1, [r0]          		@flsh上锁
 600 0484 6348     		ldr r0, = 0xe000ed0c
 601 0486 6449     		ldr r1, = 0x05fa0004
 602 0488 0160     		str r1, [r0]          		@复位
 603              		
 604              	__an_jian:
 605              		@入口PA6=按键1，PA9=按键2
 606              		@出口R0
 607 048a 02B4     		push {r1}
 608 048c 6349     		ldr r1, = 0x48000010
 609 048e 0868     		ldr r0, [r1]	@pa6 pa9
 610 0490 C043     		mvns r0, r0
 611 0492 0146     		mov r1, r0
 612 0494 400A     		lsrs r0, r0, # 9
 613 0496 C007     		lsls r0, r0, # 31
 614 0498 800F     		lsrs r0, r0, # 30
 615 049a 4906     		lsls r1, r1, # 25
 616 049c C90F     		lsrs r1, r1, # 31
 617 049e 0843     		orrs r0, r0, r1
 618 04a0 02BC     		pop {r1}
 619 04a2 7047     		bx lr
 620              		
 621              	__xianshi_zukang_danwei:
 622 04a4 0FB5     		push {r0-r3,lr}
 623 04a6 4B4B     		ldr r3, = liangcheng
ARM GAS  1.s 			page 12


 624 04a8 1B68     		ldr r3, [r3]
 625 04aa 9B00     		lsls r3, r3, # 2
 626 04ac CE20     		movs r0, # 0xce
 627 04ae 5C49     		ldr r1, = zukang_danwei
 628 04b0 C918     		adds r1, r1, r3
 629 04b2 0222     		movs r2, # 2
 630 04b4 00F005FE 		bl _lcdxianshi
 631 04b8 00F011FE 		bl _lcdyanshi
 632 04bc 0FBD     		pop {r0-r3,pc}
 633              		
 634              	__xianshi_dangwei:
 635 04be 07B5     		push {r0-r2,lr}
 636 04c0 4448     		ldr r0, = liangcheng
 637 04c2 0068     		ldr r0, [r0]
 638 04c4 8000     		lsls r0, r0, # 2
 639 04c6 5749     		ldr r1, = dangwei_biao
 640 04c8 0958     		ldr r1, [r1, r0]
 641 04ca C020     	        movs r0, # 0xc0
 642 04cc 0522     		movs r2, # 5
 643 04ce 00F0F8FD 		bl _lcdxianshi
 644 04d2 07BD     		pop {r0-r2,pc}
 645              		
 646              	__xianshi_zukang:
 647 04d4 3EB5     		push {r1-r5,lr}
 648 04d6 0400     		movs r4, r0
 649 04d8 07D5     		bpl aaa1
 650 04da C720     		movs r0, # 0xc7
 651 04dc 5249     		ldr r1, = _fu
 652 04de 0122     		movs r2, # 1
 653 04e0 00F0EFFD 		bl _lcdxianshi
 654 04e4 E443     		mvns r4, r4
 655 04e6 0134     		adds r4, r4, # 1
 656 04e8 04E0     		b aaa2
 657              	aaa1:
 658 04ea C720     		movs r0, # 0xc7
 659 04ec 4F49     		ldr r1, = kong
 660 04ee 0122     		movs r2, # 1
 661 04f0 00F0E7FD 		bl _lcdxianshi
 662              	aaa2:
 663 04f4 2046     		mov r0, r4
 664 04f6 0621     		movs r1, # 6
 665 04f8 3F4A     		ldr r2, = asciimabiao
 666 04fa 4D4C     		ldr r4, = zukang_xiaoshu_dian
 667 04fc 354B     		ldr r3, = liangcheng
 668 04fe 1B68     		ldr r3, [r3]
 669 0500 E35C     		ldrb r3, [r4, r3]
 670 0502 00F03DFE 		bl _zhuanascii
 671 0506 C820     		movs r0, # 0xc8
 672 0508 3B49     		ldr r1, = asciimabiao
 673 050a 0622     		movs r2, # 6
 674 050c 00F0D9FD 		bl _lcdxianshi
 675 0510 3EBD     		pop {r1-r5,pc}
 676              	
 677              	
 678              	
 679              	
 680              		
ARM GAS  1.s 			page 13


 681              	
 682              	__ji_suan_fu_du:	    @ 计算幅度
 683              		@ 入r0= 实部，r1= 虚部
 684              		@ 出r0 = 幅度
 685              		@ Mag ~=Alpha * max(|I|, |Q|) + Beta * min(|I|, |Q|)
 686              		@ Alpha * Max + Beta * Min
 687 0512 0EB5     		push {r1-r3,lr}
 688 0514 0000     		movs r0, r0
 689 0516 01D5     		bpl _shibubushifushu
 690 0518 C043     		mvns r0, r0                             @ 是负数转成正数
 691 051a 0130     		adds r0, r0, # 1
 692              	_shibubushifushu:	                               @ 实部不是负数
 693 051c 0900     		movs r1, r1
 694 051e 01D5     		bpl _xububushifushu
 695 0520 C943     		mvns r1, r1                             @ 是负数转成正数
 696 0522 0131     		adds r1, r1, # 1
 697              	_xububushifushu:	                                @ 虚部不是负数
 698 0524 0028     		cmp r0, # 0
 699 0526 01D1     		bne _panduanxubushibushi0
 700 0528 0846     		mov r0, r1
 701 052a 0EBD     		pop {r1-r3,pc}
 702              	_panduanxubushibushi0:
 703 052c 0029     		cmp r1, # 0
 704 052e 00D1     		bne _jisuanfudu1
 705 0530 0EBD     		pop {r1-r3,pc}
 706              	_jisuanfudu1:
 707 0532 404A     		ldr r2, = 31066		@ Alpha q15 0.948059448969
 708 0534 404B     		ldr r3, = 12867		@ Beta q15 0.392699081699
 709 0536 8142     		cmp r1, r0
 710 0538 06D8     		bhi _alpha_min_beta_max
 711              	_alpha_max_beta_min:
 712 053a 5043     		muls r0, r0, r2
 713 053c 5943     		muls r1, r1, r3
 714 053e C013     		asrs r0, r0, # 15
 715 0540 C913     		asrs r1, r1, # 15
 716 0542 4018     		adds r0, r0, r1
 717 0544 0121     		movs r1, # 1
 718 0546 0EBD     		pop {r1-r3,pc}
 719              	_alpha_min_beta_max:
 720 0548 5843     		muls r0, r0, r3
 721 054a 5143     		muls r1, r1, r2
 722 054c C013     		asrs r0, r0, # 15
 723 054e C913     		asrs r1, r1, # 15
 724 0550 4018     		adds r0, r0, r1
 725 0552 0021     		movs r1, # 0
 726 0554 0EBD     		pop {r1-r3,pc}
 727              	
 728              	__xianshi_shangxia_bi:
 729 0556 FFB5     		push {r0-r7,lr}
 730 0558 3848     		ldr r0, = shangbi_r
 731 055a 394A     		ldr r2, = shangbi_i
 732 055c 0168     		ldr r1, [r0]
 733 055e 1768     		ldr r7, [r2]
 734 0560 0C00     		movs r4, r1
 735 0562 07D5     		bpl aa1
 736 0564 C020     		movs r0, # 0xc0
 737 0566 3049     		ldr r1, = _fu
ARM GAS  1.s 			page 14


 738 0568 0122     		movs r2, # 1
 739 056a 00F0AAFD 		bl _lcdxianshi
 740 056e E443     		mvns r4, r4
 741 0570 0134     		adds r4, r4, # 1
 742 0572 04E0     		b aa2
 743              	aa1:
 744 0574 C020     		movs r0, # 0xc0
 745 0576 2D49     		ldr r1, = kong
 746 0578 0122     		movs r2, # 1
 747 057a 00F0A2FD 		bl _lcdxianshi
 748              	aa2:
 749 057e 2046     		mov r0, r4
 750 0580 0621     		movs r1, # 6
 751 0582 1D4A     		ldr r2, = asciimabiao
 752 0584 FF23     		movs r3, # 0xff
 753 0586 00F0FBFD 		bl _zhuanascii
 754 058a C120     		movs r0, # 0xc1
 755 058c 1A49     		ldr r1, = asciimabiao
 756 058e 0622     		movs r2, # 6
 757 0590 00F097FD 		bl _lcdxianshi
 758              	
 759              	
 760 0594 3C00     		movs r4, r7
 761 0596 07D5     		bpl bb1
 762 0598 C920     		movs r0, # 0xc9
 763 059a 2349     		ldr r1, = _fu
 764 059c 0122     		movs r2, # 1
 765 059e 00F090FD 		bl _lcdxianshi
 766 05a2 E443     		mvns r4, r4
 767 05a4 0134     		adds r4, r4, # 1
 768 05a6 04E0     		b bb2
 769              	bb1:
 770 05a8 C920     		movs r0, # 0xc9
 771 05aa 2049     		ldr r1, = kong
 772 05ac 0122     		movs r2, # 1
 773 05ae 00F088FD 		bl _lcdxianshi
 774              	bb2:
 775 05b2 2046     		mov r0, r4
 776 05b4 0621     		movs r1, # 6
 777 05b6 104A     		ldr r2, = asciimabiao
 778 05b8 FF23     		movs r3, # 0xff
 779 05ba 00F0E1FD 		bl _zhuanascii
 780 05be CA20     		movs r0, # 0xca
 781 05c0 0D49     		ldr r1, = asciimabiao
 782 05c2 0622     		movs r2, # 6
 783 05c4 00F07DFD 		bl _lcdxianshi
 784 05c8 FFBD     		pop {r0-r7,pc}
 785 05ca 00007C00 		.ltorg
 785      0000AC00 
 785      00203800 
 785      0020C400 
 785      00208C00 
 786              	
 787              		
 788              	__dft:		
 789 0644 FCB5     		push {r2-r7,lr}
 790 0646 5546     		mov r5, r10
ARM GAS  1.s 			page 15


 791 0648 5E46     		mov r6, r11
 792 064a 6746     		mov r7, r12
 793 064c 38B4     		push {r3-r5}
 794 064e 0448     		ldr r0, = cossin
 795 0650 0449     		ldr r1, = dianyabiao
 796 0652 0068     		ldr r0, [r0]
 797 0654 0026     		movs r6, # 0
 798 0656 3746     		mov r7, r6
 799 0658 EC46     		mov r12, sp
 800 065a 8346     		mov r11, r0
 801 065c 8A46     		mov r10, r1
 802 065e 03E0     		b __dft_xunhuan
 803 0660 F0000020 		.ltorg
 803      00010020 
 804              	__dft_xunhuan:
 805              		@0
 806 0668 DD46     		mov sp, r11
 807 066a 0FBC     		pop {r0-r3}
 808 066c EB46     		mov r11, sp
 809 066e D546     		mov sp, r10
 810 0670 10BC     		pop {r4}
 811 0672 EA46     		mov r10, sp
 812 0674 2546     		mov r5, r4
 813 0676 2404     		lsls r4, r4, # 16
 814 0678 240C     		lsrs r4, r4, # 16
 815 067a 2D0C     		lsrs r5, r5, # 16
 816 067c 6043     		muls r0, r0, r4		@R
 817 067e 6143     		muls r1, r1, r4		@I
 818 0680 6A43     		muls r2, r2, r5		@R
 819 0682 6B43     		muls r3, r3, r5		@I
 820 0684 8011     		asrs r0, r0, # 6
 821 0686 8911     		asrs r1, r1, # 6
 822 0688 9211     		asrs r2, r2, # 6
 823 068a 9B11     		asrs r3, r3, # 6
 824 068c 8018     		adds r0, r0, r2	 @r
 825 068e C918     		adds r1, r1, r3	 @i
 826 0690 3618     		adds r6, r6, r0
 827 0692 7F18     		adds r7, r7, r1
 828              	
 829 0694 DD46     		mov sp, r11
 830 0696 0FBC     		pop {r0-r3}
 831 0698 EB46     		mov r11, sp
 832 069a D546     		mov sp, r10
 833 069c 10BC     		pop {r4}
 834 069e EA46     		mov r10, sp
 835 06a0 2546     		mov r5, r4
 836 06a2 2404     		lsls r4, r4, # 16
 837 06a4 240C     		lsrs r4, r4, # 16
 838 06a6 2D0C     		lsrs r5, r5, # 16
 839 06a8 6043     		muls r0, r0, r4
 840 06aa 6143     		muls r1, r1, r4
 841 06ac 6A43     		muls r2, r2, r5
 842 06ae 6B43     		muls r3, r3, r5
 843 06b0 8011     		asrs r0, r0, # 6
 844 06b2 8911     		asrs r1, r1, # 6
 845 06b4 9211     		asrs r2, r2, # 6
 846 06b6 9B11     		asrs r3, r3, # 6
ARM GAS  1.s 			page 16


 847 06b8 8018     		adds r0, r0, r2         @r
 848 06ba C918     		adds r1, r1, r3         @i
 849 06bc 3618     		adds r6, r6, r0
 850 06be 7F18     		adds r7, r7, r1
 851              	
 852 06c0 DD46     		mov sp, r11
 853 06c2 0FBC     		pop {r0-r3}
 854 06c4 EB46     		mov r11, sp
 855 06c6 D546     		mov sp, r10
 856 06c8 10BC     		pop {r4}
 857 06ca EA46     		mov r10, sp
 858 06cc 2546     		mov r5, r4
 859 06ce 2404     		lsls r4, r4, # 16
 860 06d0 240C     		lsrs r4, r4, # 16
 861 06d2 2D0C     		lsrs r5, r5, # 16
 862 06d4 6043     		muls r0, r0, r4
 863 06d6 6143     		muls r1, r1, r4
 864 06d8 6A43     		muls r2, r2, r5
 865 06da 6B43     		muls r3, r3, r5
 866 06dc 8011     		asrs r0, r0, # 6
 867 06de 8911     		asrs r1, r1, # 6
 868 06e0 9211     		asrs r2, r2, # 6
 869 06e2 9B11     		asrs r3, r3, # 6
 870 06e4 8018     		adds r0, r0, r2  @r
 871 06e6 C918     		adds r1, r1, r3  @i
 872 06e8 3618     		adds r6, r6, r0
 873 06ea 7F18     		adds r7, r7, r1
 874              	
 875 06ec DD46     		mov sp, r11
 876 06ee 0FBC     		pop {r0-r3}
 877 06f0 EB46     		mov r11, sp
 878 06f2 D546     		mov sp, r10
 879 06f4 10BC     		pop {r4}
 880 06f6 EA46     		mov r10, sp
 881 06f8 2546     		mov r5, r4
 882 06fa 2404     		lsls r4, r4, # 16
 883 06fc 240C     		lsrs r4, r4, # 16
 884 06fe 2D0C     		lsrs r5, r5, # 16
 885 0700 6043     		muls r0, r0, r4
 886 0702 6143     		muls r1, r1, r4
 887 0704 6A43     		muls r2, r2, r5
 888 0706 6B43     		muls r3, r3, r5
 889 0708 8011     		asrs r0, r0, # 6
 890 070a 8911     		asrs r1, r1, # 6
 891 070c 9211     		asrs r2, r2, # 6
 892 070e 9B11     		asrs r3, r3, # 6
 893 0710 8018     		adds r0, r0, r2         @r
 894 0712 C918     		adds r1, r1, r3         @i
 895 0714 3618     		adds r6, r6, r0
 896 0716 7F18     		adds r7, r7, r1
 897              	
 898              		@1
 899 0718 DD46     		mov sp, r11
 900 071a 0FBC     		pop {r0-r3}
 901 071c EB46     		mov r11, sp
 902 071e D546     		mov sp, r10
 903 0720 10BC     		pop {r4}
ARM GAS  1.s 			page 17


 904 0722 EA46     		mov r10, sp
 905 0724 2546     		mov r5, r4
 906 0726 2404     		lsls r4, r4, # 16
 907 0728 240C     		lsrs r4, r4, # 16
 908 072a 2D0C     		lsrs r5, r5, # 16
 909 072c 6043     		muls r0, r0, r4		@R
 910 072e 6143     		muls r1, r1, r4		@I
 911 0730 6A43     		muls r2, r2, r5		@R
 912 0732 6B43     		muls r3, r3, r5		@I
 913 0734 8011     		asrs r0, r0, # 6
 914 0736 8911     		asrs r1, r1, # 6
 915 0738 9211     		asrs r2, r2, # 6
 916 073a 9B11     		asrs r3, r3, # 6
 917 073c 8018     		adds r0, r0, r2	 @r
 918 073e C918     		adds r1, r1, r3	 @i
 919 0740 3618     		adds r6, r6, r0
 920 0742 7F18     		adds r7, r7, r1
 921              	
 922 0744 DD46     		mov sp, r11
 923 0746 0FBC     		pop {r0-r3}
 924 0748 EB46     		mov r11, sp
 925 074a D546     		mov sp, r10
 926 074c 10BC     		pop {r4}
 927 074e EA46     		mov r10, sp
 928 0750 2546     		mov r5, r4
 929 0752 2404     		lsls r4, r4, # 16
 930 0754 240C     		lsrs r4, r4, # 16
 931 0756 2D0C     		lsrs r5, r5, # 16
 932 0758 6043     		muls r0, r0, r4
 933 075a 6143     		muls r1, r1, r4
 934 075c 6A43     		muls r2, r2, r5
 935 075e 6B43     		muls r3, r3, r5
 936 0760 8011     		asrs r0, r0, # 6
 937 0762 8911     		asrs r1, r1, # 6
 938 0764 9211     		asrs r2, r2, # 6
 939 0766 9B11     		asrs r3, r3, # 6
 940 0768 8018     		adds r0, r0, r2         @r
 941 076a C918     		adds r1, r1, r3         @i
 942 076c 3618     		adds r6, r6, r0
 943 076e 7F18     		adds r7, r7, r1
 944              	
 945 0770 DD46     		mov sp, r11
 946 0772 0FBC     		pop {r0-r3}
 947 0774 EB46     		mov r11, sp
 948 0776 D546     		mov sp, r10
 949 0778 10BC     		pop {r4}
 950 077a EA46     		mov r10, sp
 951 077c 2546     		mov r5, r4
 952 077e 2404     		lsls r4, r4, # 16
 953 0780 240C     		lsrs r4, r4, # 16
 954 0782 2D0C     		lsrs r5, r5, # 16
 955 0784 6043     		muls r0, r0, r4
 956 0786 6143     		muls r1, r1, r4
 957 0788 6A43     		muls r2, r2, r5
 958 078a 6B43     		muls r3, r3, r5
 959 078c 8011     		asrs r0, r0, # 6
 960 078e 8911     		asrs r1, r1, # 6
ARM GAS  1.s 			page 18


 961 0790 9211     		asrs r2, r2, # 6
 962 0792 9B11     		asrs r3, r3, # 6
 963 0794 8018     		adds r0, r0, r2  @r
 964 0796 C918     		adds r1, r1, r3  @i
 965 0798 3618     		adds r6, r6, r0
 966 079a 7F18     		adds r7, r7, r1
 967              	
 968 079c DD46     		mov sp, r11
 969 079e 0FBC     		pop {r0-r3}
 970 07a0 EB46     		mov r11, sp
 971 07a2 D546     		mov sp, r10
 972 07a4 10BC     		pop {r4}
 973 07a6 EA46     		mov r10, sp
 974 07a8 2546     		mov r5, r4
 975 07aa 2404     		lsls r4, r4, # 16
 976 07ac 240C     		lsrs r4, r4, # 16
 977 07ae 2D0C     		lsrs r5, r5, # 16
 978 07b0 6043     		muls r0, r0, r4
 979 07b2 6143     		muls r1, r1, r4
 980 07b4 6A43     		muls r2, r2, r5
 981 07b6 6B43     		muls r3, r3, r5
 982 07b8 8011     		asrs r0, r0, # 6
 983 07ba 8911     		asrs r1, r1, # 6
 984 07bc 9211     		asrs r2, r2, # 6
 985 07be 9B11     		asrs r3, r3, # 6
 986 07c0 8018     		adds r0, r0, r2         @r
 987 07c2 C918     		adds r1, r1, r3         @i
 988 07c4 3618     		adds r6, r6, r0
 989 07c6 7F18     		adds r7, r7, r1
 990              	
 991              		@2
 992 07c8 DD46     		mov sp, r11
 993 07ca 0FBC     		pop {r0-r3}
 994 07cc EB46     		mov r11, sp
 995 07ce D546     		mov sp, r10
 996 07d0 10BC     		pop {r4}
 997 07d2 EA46     		mov r10, sp
 998 07d4 2546     		mov r5, r4
 999 07d6 2404     		lsls r4, r4, # 16
 1000 07d8 240C     		lsrs r4, r4, # 16
 1001 07da 2D0C     		lsrs r5, r5, # 16
 1002 07dc 6043     		muls r0, r0, r4		@R
 1003 07de 6143     		muls r1, r1, r4		@I
 1004 07e0 6A43     		muls r2, r2, r5		@R
 1005 07e2 6B43     		muls r3, r3, r5		@I
 1006 07e4 8011     		asrs r0, r0, # 6
 1007 07e6 8911     		asrs r1, r1, # 6
 1008 07e8 9211     		asrs r2, r2, # 6
 1009 07ea 9B11     		asrs r3, r3, # 6
 1010 07ec 8018     		adds r0, r0, r2	 @r
 1011 07ee C918     		adds r1, r1, r3	 @i
 1012 07f0 3618     		adds r6, r6, r0
 1013 07f2 7F18     		adds r7, r7, r1
 1014              	
 1015 07f4 DD46     		mov sp, r11
 1016 07f6 0FBC     		pop {r0-r3}
 1017 07f8 EB46     		mov r11, sp
ARM GAS  1.s 			page 19


 1018 07fa D546     		mov sp, r10
 1019 07fc 10BC     		pop {r4}
 1020 07fe EA46     		mov r10, sp
 1021 0800 2546     		mov r5, r4
 1022 0802 2404     		lsls r4, r4, # 16
 1023 0804 240C     		lsrs r4, r4, # 16
 1024 0806 2D0C     		lsrs r5, r5, # 16
 1025 0808 6043     		muls r0, r0, r4
 1026 080a 6143     		muls r1, r1, r4
 1027 080c 6A43     		muls r2, r2, r5
 1028 080e 6B43     		muls r3, r3, r5
 1029 0810 8011     		asrs r0, r0, # 6
 1030 0812 8911     		asrs r1, r1, # 6
 1031 0814 9211     		asrs r2, r2, # 6
 1032 0816 9B11     		asrs r3, r3, # 6
 1033 0818 8018     		adds r0, r0, r2         @r
 1034 081a C918     		adds r1, r1, r3         @i
 1035 081c 3618     		adds r6, r6, r0
 1036 081e 7F18     		adds r7, r7, r1
 1037              	
 1038 0820 DD46     		mov sp, r11
 1039 0822 0FBC     		pop {r0-r3}
 1040 0824 EB46     		mov r11, sp
 1041 0826 D546     		mov sp, r10
 1042 0828 10BC     		pop {r4}
 1043 082a EA46     		mov r10, sp
 1044 082c 2546     		mov r5, r4
 1045 082e 2404     		lsls r4, r4, # 16
 1046 0830 240C     		lsrs r4, r4, # 16
 1047 0832 2D0C     		lsrs r5, r5, # 16
 1048 0834 6043     		muls r0, r0, r4
 1049 0836 6143     		muls r1, r1, r4
 1050 0838 6A43     		muls r2, r2, r5
 1051 083a 6B43     		muls r3, r3, r5
 1052 083c 8011     		asrs r0, r0, # 6
 1053 083e 8911     		asrs r1, r1, # 6
 1054 0840 9211     		asrs r2, r2, # 6
 1055 0842 9B11     		asrs r3, r3, # 6
 1056 0844 8018     		adds r0, r0, r2  @r
 1057 0846 C918     		adds r1, r1, r3  @i
 1058 0848 3618     		adds r6, r6, r0
 1059 084a 7F18     		adds r7, r7, r1
 1060              	
 1061 084c DD46     		mov sp, r11
 1062 084e 0FBC     		pop {r0-r3}
 1063 0850 EB46     		mov r11, sp
 1064 0852 D546     		mov sp, r10
 1065 0854 10BC     		pop {r4}
 1066 0856 EA46     		mov r10, sp
 1067 0858 2546     		mov r5, r4
 1068 085a 2404     		lsls r4, r4, # 16
 1069 085c 240C     		lsrs r4, r4, # 16
 1070 085e 2D0C     		lsrs r5, r5, # 16
 1071 0860 6043     		muls r0, r0, r4
 1072 0862 6143     		muls r1, r1, r4
 1073 0864 6A43     		muls r2, r2, r5
 1074 0866 6B43     		muls r3, r3, r5
ARM GAS  1.s 			page 20


 1075 0868 8011     		asrs r0, r0, # 6
 1076 086a 8911     		asrs r1, r1, # 6
 1077 086c 9211     		asrs r2, r2, # 6
 1078 086e 9B11     		asrs r3, r3, # 6
 1079 0870 8018     		adds r0, r0, r2         @r
 1080 0872 C918     		adds r1, r1, r3         @i
 1081 0874 3618     		adds r6, r6, r0
 1082 0876 7F18     		adds r7, r7, r1
 1083              	
 1084              		@3
 1085 0878 DD46     		mov sp, r11
 1086 087a 0FBC     		pop {r0-r3}
 1087 087c EB46     		mov r11, sp
 1088 087e D546     		mov sp, r10
 1089 0880 10BC     		pop {r4}
 1090 0882 EA46     		mov r10, sp
 1091 0884 2546     		mov r5, r4
 1092 0886 2404     		lsls r4, r4, # 16
 1093 0888 240C     		lsrs r4, r4, # 16
 1094 088a 2D0C     		lsrs r5, r5, # 16
 1095 088c 6043     		muls r0, r0, r4		@R
 1096 088e 6143     		muls r1, r1, r4		@I
 1097 0890 6A43     		muls r2, r2, r5		@R
 1098 0892 6B43     		muls r3, r3, r5		@I
 1099 0894 8011     		asrs r0, r0, # 6
 1100 0896 8911     		asrs r1, r1, # 6
 1101 0898 9211     		asrs r2, r2, # 6
 1102 089a 9B11     		asrs r3, r3, # 6
 1103 089c 8018     		adds r0, r0, r2	 @r
 1104 089e C918     		adds r1, r1, r3	 @i
 1105 08a0 3618     		adds r6, r6, r0
 1106 08a2 7F18     		adds r7, r7, r1
 1107              	
 1108 08a4 DD46     		mov sp, r11
 1109 08a6 0FBC     		pop {r0-r3}
 1110 08a8 EB46     		mov r11, sp
 1111 08aa D546     		mov sp, r10
 1112 08ac 10BC     		pop {r4}
 1113 08ae EA46     		mov r10, sp
 1114 08b0 2546     		mov r5, r4
 1115 08b2 2404     		lsls r4, r4, # 16
 1116 08b4 240C     		lsrs r4, r4, # 16
 1117 08b6 2D0C     		lsrs r5, r5, # 16
 1118 08b8 6043     		muls r0, r0, r4
 1119 08ba 6143     		muls r1, r1, r4
 1120 08bc 6A43     		muls r2, r2, r5
 1121 08be 6B43     		muls r3, r3, r5
 1122 08c0 8011     		asrs r0, r0, # 6
 1123 08c2 8911     		asrs r1, r1, # 6
 1124 08c4 9211     		asrs r2, r2, # 6
 1125 08c6 9B11     		asrs r3, r3, # 6
 1126 08c8 8018     		adds r0, r0, r2         @r
 1127 08ca C918     		adds r1, r1, r3         @i
 1128 08cc 3618     		adds r6, r6, r0
 1129 08ce 7F18     		adds r7, r7, r1
 1130              	
 1131 08d0 DD46     		mov sp, r11
ARM GAS  1.s 			page 21


 1132 08d2 0FBC     		pop {r0-r3}
 1133 08d4 EB46     		mov r11, sp
 1134 08d6 D546     		mov sp, r10
 1135 08d8 10BC     		pop {r4}
 1136 08da EA46     		mov r10, sp
 1137 08dc 2546     		mov r5, r4
 1138 08de 2404     		lsls r4, r4, # 16
 1139 08e0 240C     		lsrs r4, r4, # 16
 1140 08e2 2D0C     		lsrs r5, r5, # 16
 1141 08e4 6043     		muls r0, r0, r4
 1142 08e6 6143     		muls r1, r1, r4
 1143 08e8 6A43     		muls r2, r2, r5
 1144 08ea 6B43     		muls r3, r3, r5
 1145 08ec 8011     		asrs r0, r0, # 6
 1146 08ee 8911     		asrs r1, r1, # 6
 1147 08f0 9211     		asrs r2, r2, # 6
 1148 08f2 9B11     		asrs r3, r3, # 6
 1149 08f4 8018     		adds r0, r0, r2  @r
 1150 08f6 C918     		adds r1, r1, r3  @i
 1151 08f8 3618     		adds r6, r6, r0
 1152 08fa 7F18     		adds r7, r7, r1
 1153              	
 1154 08fc DD46     		mov sp, r11
 1155 08fe 0FBC     		pop {r0-r3}
 1156 0900 EB46     		mov r11, sp
 1157 0902 D546     		mov sp, r10
 1158 0904 10BC     		pop {r4}
 1159 0906 EA46     		mov r10, sp
 1160 0908 2546     		mov r5, r4
 1161 090a 2404     		lsls r4, r4, # 16
 1162 090c 240C     		lsrs r4, r4, # 16
 1163 090e 2D0C     		lsrs r5, r5, # 16
 1164 0910 6043     		muls r0, r0, r4
 1165 0912 6143     		muls r1, r1, r4
 1166 0914 6A43     		muls r2, r2, r5
 1167 0916 6B43     		muls r3, r3, r5
 1168 0918 8011     		asrs r0, r0, # 6
 1169 091a 8911     		asrs r1, r1, # 6
 1170 091c 9211     		asrs r2, r2, # 6
 1171 091e 9B11     		asrs r3, r3, # 6
 1172 0920 8018     		adds r0, r0, r2         @r
 1173 0922 C918     		adds r1, r1, r3         @i
 1174 0924 3618     		adds r6, r6, r0
 1175 0926 7F18     		adds r7, r7, r1
 1176              	
 1177              		@4
 1178 0928 DD46     		mov sp, r11
 1179 092a 0FBC     		pop {r0-r3}
 1180 092c EB46     		mov r11, sp
 1181 092e D546     		mov sp, r10
 1182 0930 10BC     		pop {r4}
 1183 0932 EA46     		mov r10, sp
 1184 0934 2546     		mov r5, r4
 1185 0936 2404     		lsls r4, r4, # 16
 1186 0938 240C     		lsrs r4, r4, # 16
 1187 093a 2D0C     		lsrs r5, r5, # 16
 1188 093c 6043     		muls r0, r0, r4		@R
ARM GAS  1.s 			page 22


 1189 093e 6143     		muls r1, r1, r4		@I
 1190 0940 6A43     		muls r2, r2, r5		@R
 1191 0942 6B43     		muls r3, r3, r5		@I
 1192 0944 8011     		asrs r0, r0, # 6
 1193 0946 8911     		asrs r1, r1, # 6
 1194 0948 9211     		asrs r2, r2, # 6
 1195 094a 9B11     		asrs r3, r3, # 6
 1196 094c 8018     		adds r0, r0, r2	 @r
 1197 094e C918     		adds r1, r1, r3	 @i
 1198 0950 3618     		adds r6, r6, r0
 1199 0952 7F18     		adds r7, r7, r1
 1200              	
 1201 0954 DD46     		mov sp, r11
 1202 0956 0FBC     		pop {r0-r3}
 1203 0958 EB46     		mov r11, sp
 1204 095a D546     		mov sp, r10
 1205 095c 10BC     		pop {r4}
 1206 095e EA46     		mov r10, sp
 1207 0960 2546     		mov r5, r4
 1208 0962 2404     		lsls r4, r4, # 16
 1209 0964 240C     		lsrs r4, r4, # 16
 1210 0966 2D0C     		lsrs r5, r5, # 16
 1211 0968 6043     		muls r0, r0, r4
 1212 096a 6143     		muls r1, r1, r4
 1213 096c 6A43     		muls r2, r2, r5
 1214 096e 6B43     		muls r3, r3, r5
 1215 0970 8011     		asrs r0, r0, # 6
 1216 0972 8911     		asrs r1, r1, # 6
 1217 0974 9211     		asrs r2, r2, # 6
 1218 0976 9B11     		asrs r3, r3, # 6
 1219 0978 8018     		adds r0, r0, r2         @r
 1220 097a C918     		adds r1, r1, r3         @i
 1221 097c 3618     		adds r6, r6, r0
 1222 097e 7F18     		adds r7, r7, r1
 1223              	
 1224 0980 DD46     		mov sp, r11
 1225 0982 0FBC     		pop {r0-r3}
 1226 0984 EB46     		mov r11, sp
 1227 0986 D546     		mov sp, r10
 1228 0988 10BC     		pop {r4}
 1229 098a EA46     		mov r10, sp
 1230 098c 2546     		mov r5, r4
 1231 098e 2404     		lsls r4, r4, # 16
 1232 0990 240C     		lsrs r4, r4, # 16
 1233 0992 2D0C     		lsrs r5, r5, # 16
 1234 0994 6043     		muls r0, r0, r4
 1235 0996 6143     		muls r1, r1, r4
 1236 0998 6A43     		muls r2, r2, r5
 1237 099a 6B43     		muls r3, r3, r5
 1238 099c 8011     		asrs r0, r0, # 6
 1239 099e 8911     		asrs r1, r1, # 6
 1240 09a0 9211     		asrs r2, r2, # 6
 1241 09a2 9B11     		asrs r3, r3, # 6
 1242 09a4 8018     		adds r0, r0, r2  @r
 1243 09a6 C918     		adds r1, r1, r3  @i
 1244 09a8 3618     		adds r6, r6, r0
 1245 09aa 7F18     		adds r7, r7, r1
ARM GAS  1.s 			page 23


 1246              	
 1247 09ac DD46     		mov sp, r11
 1248 09ae 0FBC     		pop {r0-r3}
 1249 09b0 EB46     		mov r11, sp
 1250 09b2 D546     		mov sp, r10
 1251 09b4 10BC     		pop {r4}
 1252 09b6 EA46     		mov r10, sp
 1253 09b8 2546     		mov r5, r4
 1254 09ba 2404     		lsls r4, r4, # 16
 1255 09bc 240C     		lsrs r4, r4, # 16
 1256 09be 2D0C     		lsrs r5, r5, # 16
 1257 09c0 6043     		muls r0, r0, r4
 1258 09c2 6143     		muls r1, r1, r4
 1259 09c4 6A43     		muls r2, r2, r5
 1260 09c6 6B43     		muls r3, r3, r5
 1261 09c8 8011     		asrs r0, r0, # 6
 1262 09ca 8911     		asrs r1, r1, # 6
 1263 09cc 9211     		asrs r2, r2, # 6
 1264 09ce 9B11     		asrs r3, r3, # 6
 1265 09d0 8018     		adds r0, r0, r2         @r
 1266 09d2 C918     		adds r1, r1, r3         @i
 1267 09d4 3618     		adds r6, r6, r0
 1268 09d6 7F18     		adds r7, r7, r1
 1269              	
 1270              		@5
 1271 09d8 DD46     		mov sp, r11
 1272 09da 0FBC     		pop {r0-r3}
 1273 09dc EB46     		mov r11, sp
 1274 09de D546     		mov sp, r10
 1275 09e0 10BC     		pop {r4}
 1276 09e2 EA46     		mov r10, sp
 1277 09e4 2546     		mov r5, r4
 1278 09e6 2404     		lsls r4, r4, # 16
 1279 09e8 240C     		lsrs r4, r4, # 16
 1280 09ea 2D0C     		lsrs r5, r5, # 16
 1281 09ec 6043     		muls r0, r0, r4		@R
 1282 09ee 6143     		muls r1, r1, r4		@I
 1283 09f0 6A43     		muls r2, r2, r5		@R
 1284 09f2 6B43     		muls r3, r3, r5		@I
 1285 09f4 8011     		asrs r0, r0, # 6
 1286 09f6 8911     		asrs r1, r1, # 6
 1287 09f8 9211     		asrs r2, r2, # 6
 1288 09fa 9B11     		asrs r3, r3, # 6
 1289 09fc 8018     		adds r0, r0, r2	 @r
 1290 09fe C918     		adds r1, r1, r3	 @i
 1291 0a00 3618     		adds r6, r6, r0
 1292 0a02 7F18     		adds r7, r7, r1
 1293              	
 1294 0a04 DD46     		mov sp, r11
 1295 0a06 0FBC     		pop {r0-r3}
 1296 0a08 EB46     		mov r11, sp
 1297 0a0a D546     		mov sp, r10
 1298 0a0c 10BC     		pop {r4}
 1299 0a0e EA46     		mov r10, sp
 1300 0a10 2546     		mov r5, r4
 1301 0a12 2404     		lsls r4, r4, # 16
 1302 0a14 240C     		lsrs r4, r4, # 16
ARM GAS  1.s 			page 24


 1303 0a16 2D0C     		lsrs r5, r5, # 16
 1304 0a18 6043     		muls r0, r0, r4
 1305 0a1a 6143     		muls r1, r1, r4
 1306 0a1c 6A43     		muls r2, r2, r5
 1307 0a1e 6B43     		muls r3, r3, r5
 1308 0a20 8011     		asrs r0, r0, # 6
 1309 0a22 8911     		asrs r1, r1, # 6
 1310 0a24 9211     		asrs r2, r2, # 6
 1311 0a26 9B11     		asrs r3, r3, # 6
 1312 0a28 8018     		adds r0, r0, r2         @r
 1313 0a2a C918     		adds r1, r1, r3         @i
 1314 0a2c 3618     		adds r6, r6, r0
 1315 0a2e 7F18     		adds r7, r7, r1
 1316              	
 1317 0a30 DD46     		mov sp, r11
 1318 0a32 0FBC     		pop {r0-r3}
 1319 0a34 EB46     		mov r11, sp
 1320 0a36 D546     		mov sp, r10
 1321 0a38 10BC     		pop {r4}
 1322 0a3a EA46     		mov r10, sp
 1323 0a3c 2546     		mov r5, r4
 1324 0a3e 2404     		lsls r4, r4, # 16
 1325 0a40 240C     		lsrs r4, r4, # 16
 1326 0a42 2D0C     		lsrs r5, r5, # 16
 1327 0a44 6043     		muls r0, r0, r4
 1328 0a46 6143     		muls r1, r1, r4
 1329 0a48 6A43     		muls r2, r2, r5
 1330 0a4a 6B43     		muls r3, r3, r5
 1331 0a4c 8011     		asrs r0, r0, # 6
 1332 0a4e 8911     		asrs r1, r1, # 6
 1333 0a50 9211     		asrs r2, r2, # 6
 1334 0a52 9B11     		asrs r3, r3, # 6
 1335 0a54 8018     		adds r0, r0, r2  @r
 1336 0a56 C918     		adds r1, r1, r3  @i
 1337 0a58 3618     		adds r6, r6, r0
 1338 0a5a 7F18     		adds r7, r7, r1
 1339              	
 1340 0a5c DD46     		mov sp, r11
 1341 0a5e 0FBC     		pop {r0-r3}
 1342 0a60 EB46     		mov r11, sp
 1343 0a62 D546     		mov sp, r10
 1344 0a64 10BC     		pop {r4}
 1345 0a66 EA46     		mov r10, sp
 1346 0a68 2546     		mov r5, r4
 1347 0a6a 2404     		lsls r4, r4, # 16
 1348 0a6c 240C     		lsrs r4, r4, # 16
 1349 0a6e 2D0C     		lsrs r5, r5, # 16
 1350 0a70 6043     		muls r0, r0, r4
 1351 0a72 6143     		muls r1, r1, r4
 1352 0a74 6A43     		muls r2, r2, r5
 1353 0a76 6B43     		muls r3, r3, r5
 1354 0a78 8011     		asrs r0, r0, # 6
 1355 0a7a 8911     		asrs r1, r1, # 6
 1356 0a7c 9211     		asrs r2, r2, # 6
 1357 0a7e 9B11     		asrs r3, r3, # 6
 1358 0a80 8018     		adds r0, r0, r2         @r
 1359 0a82 C918     		adds r1, r1, r3         @i
ARM GAS  1.s 			page 25


 1360 0a84 3618     		adds r6, r6, r0
 1361 0a86 7F18     		adds r7, r7, r1
 1362              	
 1363              		@6
 1364 0a88 DD46     		mov sp, r11
 1365 0a8a 0FBC     		pop {r0-r3}
 1366 0a8c EB46     		mov r11, sp
 1367 0a8e D546     		mov sp, r10
 1368 0a90 10BC     		pop {r4}
 1369 0a92 EA46     		mov r10, sp
 1370 0a94 2546     		mov r5, r4
 1371 0a96 2404     		lsls r4, r4, # 16
 1372 0a98 240C     		lsrs r4, r4, # 16
 1373 0a9a 2D0C     		lsrs r5, r5, # 16
 1374 0a9c 6043     		muls r0, r0, r4		@R
 1375 0a9e 6143     		muls r1, r1, r4		@I
 1376 0aa0 6A43     		muls r2, r2, r5		@R
 1377 0aa2 6B43     		muls r3, r3, r5		@I
 1378 0aa4 8011     		asrs r0, r0, # 6
 1379 0aa6 8911     		asrs r1, r1, # 6
 1380 0aa8 9211     		asrs r2, r2, # 6
 1381 0aaa 9B11     		asrs r3, r3, # 6
 1382 0aac 8018     		adds r0, r0, r2	 @r
 1383 0aae C918     		adds r1, r1, r3	 @i
 1384 0ab0 3618     		adds r6, r6, r0
 1385 0ab2 7F18     		adds r7, r7, r1
 1386              	
 1387 0ab4 DD46     		mov sp, r11
 1388 0ab6 0FBC     		pop {r0-r3}
 1389 0ab8 EB46     		mov r11, sp
 1390 0aba D546     		mov sp, r10
 1391 0abc 10BC     		pop {r4}
 1392 0abe EA46     		mov r10, sp
 1393 0ac0 2546     		mov r5, r4
 1394 0ac2 2404     		lsls r4, r4, # 16
 1395 0ac4 240C     		lsrs r4, r4, # 16
 1396 0ac6 2D0C     		lsrs r5, r5, # 16
 1397 0ac8 6043     		muls r0, r0, r4
 1398 0aca 6143     		muls r1, r1, r4
 1399 0acc 6A43     		muls r2, r2, r5
 1400 0ace 6B43     		muls r3, r3, r5
 1401 0ad0 8011     		asrs r0, r0, # 6
 1402 0ad2 8911     		asrs r1, r1, # 6
 1403 0ad4 9211     		asrs r2, r2, # 6
 1404 0ad6 9B11     		asrs r3, r3, # 6
 1405 0ad8 8018     		adds r0, r0, r2         @r
 1406 0ada C918     		adds r1, r1, r3         @i
 1407 0adc 3618     		adds r6, r6, r0
 1408 0ade 7F18     		adds r7, r7, r1
 1409              	
 1410 0ae0 DD46     		mov sp, r11
 1411 0ae2 0FBC     		pop {r0-r3}
 1412 0ae4 EB46     		mov r11, sp
 1413 0ae6 D546     		mov sp, r10
 1414 0ae8 10BC     		pop {r4}
 1415 0aea EA46     		mov r10, sp
 1416 0aec 2546     		mov r5, r4
ARM GAS  1.s 			page 26


 1417 0aee 2404     		lsls r4, r4, # 16
 1418 0af0 240C     		lsrs r4, r4, # 16
 1419 0af2 2D0C     		lsrs r5, r5, # 16
 1420 0af4 6043     		muls r0, r0, r4
 1421 0af6 6143     		muls r1, r1, r4
 1422 0af8 6A43     		muls r2, r2, r5
 1423 0afa 6B43     		muls r3, r3, r5
 1424 0afc 8011     		asrs r0, r0, # 6
 1425 0afe 8911     		asrs r1, r1, # 6
 1426 0b00 9211     		asrs r2, r2, # 6
 1427 0b02 9B11     		asrs r3, r3, # 6
 1428 0b04 8018     		adds r0, r0, r2  @r
 1429 0b06 C918     		adds r1, r1, r3  @i
 1430 0b08 3618     		adds r6, r6, r0
 1431 0b0a 7F18     		adds r7, r7, r1
 1432              	
 1433 0b0c DD46     		mov sp, r11
 1434 0b0e 0FBC     		pop {r0-r3}
 1435 0b10 EB46     		mov r11, sp
 1436 0b12 D546     		mov sp, r10
 1437 0b14 10BC     		pop {r4}
 1438 0b16 EA46     		mov r10, sp
 1439 0b18 2546     		mov r5, r4
 1440 0b1a 2404     		lsls r4, r4, # 16
 1441 0b1c 240C     		lsrs r4, r4, # 16
 1442 0b1e 2D0C     		lsrs r5, r5, # 16
 1443 0b20 6043     		muls r0, r0, r4
 1444 0b22 6143     		muls r1, r1, r4
 1445 0b24 6A43     		muls r2, r2, r5
 1446 0b26 6B43     		muls r3, r3, r5
 1447 0b28 8011     		asrs r0, r0, # 6
 1448 0b2a 8911     		asrs r1, r1, # 6
 1449 0b2c 9211     		asrs r2, r2, # 6
 1450 0b2e 9B11     		asrs r3, r3, # 6
 1451 0b30 8018     		adds r0, r0, r2         @r
 1452 0b32 C918     		adds r1, r1, r3         @i
 1453 0b34 3618     		adds r6, r6, r0
 1454 0b36 7F18     		adds r7, r7, r1
 1455              	
 1456              		@7
 1457 0b38 DD46     		mov sp, r11
 1458 0b3a 0FBC     		pop {r0-r3}
 1459 0b3c EB46     		mov r11, sp
 1460 0b3e D546     		mov sp, r10
 1461 0b40 10BC     		pop {r4}
 1462 0b42 EA46     		mov r10, sp
 1463 0b44 2546     		mov r5, r4
 1464 0b46 2404     		lsls r4, r4, # 16
 1465 0b48 240C     		lsrs r4, r4, # 16
 1466 0b4a 2D0C     		lsrs r5, r5, # 16
 1467 0b4c 6043     		muls r0, r0, r4		@R
 1468 0b4e 6143     		muls r1, r1, r4		@I
 1469 0b50 6A43     		muls r2, r2, r5		@R
 1470 0b52 6B43     		muls r3, r3, r5		@I
 1471 0b54 8011     		asrs r0, r0, # 6
 1472 0b56 8911     		asrs r1, r1, # 6
 1473 0b58 9211     		asrs r2, r2, # 6
ARM GAS  1.s 			page 27


 1474 0b5a 9B11     		asrs r3, r3, # 6
 1475 0b5c 8018     		adds r0, r0, r2	 @r
 1476 0b5e C918     		adds r1, r1, r3	 @i
 1477 0b60 3618     		adds r6, r6, r0
 1478 0b62 7F18     		adds r7, r7, r1
 1479              	
 1480 0b64 DD46     		mov sp, r11
 1481 0b66 0FBC     		pop {r0-r3}
 1482 0b68 EB46     		mov r11, sp
 1483 0b6a D546     		mov sp, r10
 1484 0b6c 10BC     		pop {r4}
 1485 0b6e EA46     		mov r10, sp
 1486 0b70 2546     		mov r5, r4
 1487 0b72 2404     		lsls r4, r4, # 16
 1488 0b74 240C     		lsrs r4, r4, # 16
 1489 0b76 2D0C     		lsrs r5, r5, # 16
 1490 0b78 6043     		muls r0, r0, r4
 1491 0b7a 6143     		muls r1, r1, r4
 1492 0b7c 6A43     		muls r2, r2, r5
 1493 0b7e 6B43     		muls r3, r3, r5
 1494 0b80 8011     		asrs r0, r0, # 6
 1495 0b82 8911     		asrs r1, r1, # 6
 1496 0b84 9211     		asrs r2, r2, # 6
 1497 0b86 9B11     		asrs r3, r3, # 6
 1498 0b88 8018     		adds r0, r0, r2         @r
 1499 0b8a C918     		adds r1, r1, r3         @i
 1500 0b8c 3618     		adds r6, r6, r0
 1501 0b8e 7F18     		adds r7, r7, r1
 1502              	
 1503 0b90 DD46     		mov sp, r11
 1504 0b92 0FBC     		pop {r0-r3}
 1505 0b94 EB46     		mov r11, sp
 1506 0b96 D546     		mov sp, r10
 1507 0b98 10BC     		pop {r4}
 1508 0b9a EA46     		mov r10, sp
 1509 0b9c 2546     		mov r5, r4
 1510 0b9e 2404     		lsls r4, r4, # 16
 1511 0ba0 240C     		lsrs r4, r4, # 16
 1512 0ba2 2D0C     		lsrs r5, r5, # 16
 1513 0ba4 6043     		muls r0, r0, r4
 1514 0ba6 6143     		muls r1, r1, r4
 1515 0ba8 6A43     		muls r2, r2, r5
 1516 0baa 6B43     		muls r3, r3, r5
 1517 0bac 8011     		asrs r0, r0, # 6
 1518 0bae 8911     		asrs r1, r1, # 6
 1519 0bb0 9211     		asrs r2, r2, # 6
 1520 0bb2 9B11     		asrs r3, r3, # 6
 1521 0bb4 8018     		adds r0, r0, r2  @r
 1522 0bb6 C918     		adds r1, r1, r3  @i
 1523 0bb8 3618     		adds r6, r6, r0
 1524 0bba 7F18     		adds r7, r7, r1
 1525              	
 1526 0bbc DD46     		mov sp, r11
 1527 0bbe 0FBC     		pop {r0-r3}
 1528 0bc0 EB46     		mov r11, sp
 1529 0bc2 D546     		mov sp, r10
 1530 0bc4 10BC     		pop {r4}
ARM GAS  1.s 			page 28


 1531 0bc6 EA46     		mov r10, sp
 1532 0bc8 2546     		mov r5, r4
 1533 0bca 2404     		lsls r4, r4, # 16
 1534 0bcc 240C     		lsrs r4, r4, # 16
 1535 0bce 2D0C     		lsrs r5, r5, # 16
 1536 0bd0 6043     		muls r0, r0, r4
 1537 0bd2 6143     		muls r1, r1, r4
 1538 0bd4 6A43     		muls r2, r2, r5
 1539 0bd6 6B43     		muls r3, r3, r5
 1540 0bd8 8011     		asrs r0, r0, # 6
 1541 0bda 8911     		asrs r1, r1, # 6
 1542 0bdc 9211     		asrs r2, r2, # 6
 1543 0bde 9B11     		asrs r3, r3, # 6
 1544 0be0 8018     		adds r0, r0, r2         @r
 1545 0be2 C918     		adds r1, r1, r3         @i
 1546 0be4 3618     		adds r6, r6, r0
 1547 0be6 7F18     		adds r7, r7, r1
 1548              	
 1549              		@8
 1550 0be8 DD46     		mov sp, r11
 1551 0bea 0FBC     		pop {r0-r3}
 1552 0bec EB46     		mov r11, sp
 1553 0bee D546     		mov sp, r10
 1554 0bf0 10BC     		pop {r4}
 1555 0bf2 EA46     		mov r10, sp
 1556 0bf4 2546     		mov r5, r4
 1557 0bf6 2404     		lsls r4, r4, # 16
 1558 0bf8 240C     		lsrs r4, r4, # 16
 1559 0bfa 2D0C     		lsrs r5, r5, # 16
 1560 0bfc 6043     		muls r0, r0, r4		@R
 1561 0bfe 6143     		muls r1, r1, r4		@I
 1562 0c00 6A43     		muls r2, r2, r5		@R
 1563 0c02 6B43     		muls r3, r3, r5		@I
 1564 0c04 8011     		asrs r0, r0, # 6
 1565 0c06 8911     		asrs r1, r1, # 6
 1566 0c08 9211     		asrs r2, r2, # 6
 1567 0c0a 9B11     		asrs r3, r3, # 6
 1568 0c0c 8018     		adds r0, r0, r2	 @r
 1569 0c0e C918     		adds r1, r1, r3	 @i
 1570 0c10 3618     		adds r6, r6, r0
 1571 0c12 7F18     		adds r7, r7, r1
 1572              	
 1573 0c14 DD46     		mov sp, r11
 1574 0c16 0FBC     		pop {r0-r3}
 1575 0c18 EB46     		mov r11, sp
 1576 0c1a D546     		mov sp, r10
 1577 0c1c 10BC     		pop {r4}
 1578 0c1e EA46     		mov r10, sp
 1579 0c20 2546     		mov r5, r4
 1580 0c22 2404     		lsls r4, r4, # 16
 1581 0c24 240C     		lsrs r4, r4, # 16
 1582 0c26 2D0C     		lsrs r5, r5, # 16
 1583 0c28 6043     		muls r0, r0, r4
 1584 0c2a 6143     		muls r1, r1, r4
 1585 0c2c 6A43     		muls r2, r2, r5
 1586 0c2e 6B43     		muls r3, r3, r5
 1587 0c30 8011     		asrs r0, r0, # 6
ARM GAS  1.s 			page 29


 1588 0c32 8911     		asrs r1, r1, # 6
 1589 0c34 9211     		asrs r2, r2, # 6
 1590 0c36 9B11     		asrs r3, r3, # 6
 1591 0c38 8018     		adds r0, r0, r2         @r
 1592 0c3a C918     		adds r1, r1, r3         @i
 1593 0c3c 3618     		adds r6, r6, r0
 1594 0c3e 7F18     		adds r7, r7, r1
 1595              	
 1596 0c40 DD46     		mov sp, r11
 1597 0c42 0FBC     		pop {r0-r3}
 1598 0c44 EB46     		mov r11, sp
 1599 0c46 D546     		mov sp, r10
 1600 0c48 10BC     		pop {r4}
 1601 0c4a EA46     		mov r10, sp
 1602 0c4c 2546     		mov r5, r4
 1603 0c4e 2404     		lsls r4, r4, # 16
 1604 0c50 240C     		lsrs r4, r4, # 16
 1605 0c52 2D0C     		lsrs r5, r5, # 16
 1606 0c54 6043     		muls r0, r0, r4
 1607 0c56 6143     		muls r1, r1, r4
 1608 0c58 6A43     		muls r2, r2, r5
 1609 0c5a 6B43     		muls r3, r3, r5
 1610 0c5c 8011     		asrs r0, r0, # 6
 1611 0c5e 8911     		asrs r1, r1, # 6
 1612 0c60 9211     		asrs r2, r2, # 6
 1613 0c62 9B11     		asrs r3, r3, # 6
 1614 0c64 8018     		adds r0, r0, r2  @r
 1615 0c66 C918     		adds r1, r1, r3  @i
 1616 0c68 3618     		adds r6, r6, r0
 1617 0c6a 7F18     		adds r7, r7, r1
 1618              	
 1619 0c6c DD46     		mov sp, r11
 1620 0c6e 0FBC     		pop {r0-r3}
 1621 0c70 EB46     		mov r11, sp
 1622 0c72 D546     		mov sp, r10
 1623 0c74 10BC     		pop {r4}
 1624 0c76 EA46     		mov r10, sp
 1625 0c78 2546     		mov r5, r4
 1626 0c7a 2404     		lsls r4, r4, # 16
 1627 0c7c 240C     		lsrs r4, r4, # 16
 1628 0c7e 2D0C     		lsrs r5, r5, # 16
 1629 0c80 6043     		muls r0, r0, r4
 1630 0c82 6143     		muls r1, r1, r4
 1631 0c84 6A43     		muls r2, r2, r5
 1632 0c86 6B43     		muls r3, r3, r5
 1633 0c88 8011     		asrs r0, r0, # 6
 1634 0c8a 8911     		asrs r1, r1, # 6
 1635 0c8c 9211     		asrs r2, r2, # 6
 1636 0c8e 9B11     		asrs r3, r3, # 6
 1637 0c90 8018     		adds r0, r0, r2         @r
 1638 0c92 C918     		adds r1, r1, r3         @i
 1639 0c94 3618     		adds r6, r6, r0
 1640 0c96 7F18     		adds r7, r7, r1
 1641              	
 1642              		@9
 1643 0c98 DD46     		mov sp, r11
 1644 0c9a 0FBC     		pop {r0-r3}
ARM GAS  1.s 			page 30


 1645 0c9c EB46     		mov r11, sp
 1646 0c9e D546     		mov sp, r10
 1647 0ca0 10BC     		pop {r4}
 1648 0ca2 EA46     		mov r10, sp
 1649 0ca4 2546     		mov r5, r4
 1650 0ca6 2404     		lsls r4, r4, # 16
 1651 0ca8 240C     		lsrs r4, r4, # 16
 1652 0caa 2D0C     		lsrs r5, r5, # 16
 1653 0cac 6043     		muls r0, r0, r4		@R
 1654 0cae 6143     		muls r1, r1, r4		@I
 1655 0cb0 6A43     		muls r2, r2, r5		@R
 1656 0cb2 6B43     		muls r3, r3, r5		@I
 1657 0cb4 8011     		asrs r0, r0, # 6
 1658 0cb6 8911     		asrs r1, r1, # 6
 1659 0cb8 9211     		asrs r2, r2, # 6
 1660 0cba 9B11     		asrs r3, r3, # 6
 1661 0cbc 8018     		adds r0, r0, r2	 @r
 1662 0cbe C918     		adds r1, r1, r3	 @i
 1663 0cc0 3618     		adds r6, r6, r0
 1664 0cc2 7F18     		adds r7, r7, r1
 1665              	
 1666 0cc4 DD46     		mov sp, r11
 1667 0cc6 0FBC     		pop {r0-r3}
 1668 0cc8 EB46     		mov r11, sp
 1669 0cca D546     		mov sp, r10
 1670 0ccc 10BC     		pop {r4}
 1671 0cce EA46     		mov r10, sp
 1672 0cd0 2546     		mov r5, r4
 1673 0cd2 2404     		lsls r4, r4, # 16
 1674 0cd4 240C     		lsrs r4, r4, # 16
 1675 0cd6 2D0C     		lsrs r5, r5, # 16
 1676 0cd8 6043     		muls r0, r0, r4
 1677 0cda 6143     		muls r1, r1, r4
 1678 0cdc 6A43     		muls r2, r2, r5
 1679 0cde 6B43     		muls r3, r3, r5
 1680 0ce0 8011     		asrs r0, r0, # 6
 1681 0ce2 8911     		asrs r1, r1, # 6
 1682 0ce4 9211     		asrs r2, r2, # 6
 1683 0ce6 9B11     		asrs r3, r3, # 6
 1684 0ce8 8018     		adds r0, r0, r2         @r
 1685 0cea C918     		adds r1, r1, r3         @i
 1686 0cec 3618     		adds r6, r6, r0
 1687 0cee 7F18     		adds r7, r7, r1
 1688              	
 1689 0cf0 DD46     		mov sp, r11
 1690 0cf2 0FBC     		pop {r0-r3}
 1691 0cf4 EB46     		mov r11, sp
 1692 0cf6 D546     		mov sp, r10
 1693 0cf8 10BC     		pop {r4}
 1694 0cfa EA46     		mov r10, sp
 1695 0cfc 2546     		mov r5, r4
 1696 0cfe 2404     		lsls r4, r4, # 16
 1697 0d00 240C     		lsrs r4, r4, # 16
 1698 0d02 2D0C     		lsrs r5, r5, # 16
 1699 0d04 6043     		muls r0, r0, r4
 1700 0d06 6143     		muls r1, r1, r4
 1701 0d08 6A43     		muls r2, r2, r5
ARM GAS  1.s 			page 31


 1702 0d0a 6B43     		muls r3, r3, r5
 1703 0d0c 8011     		asrs r0, r0, # 6
 1704 0d0e 8911     		asrs r1, r1, # 6
 1705 0d10 9211     		asrs r2, r2, # 6
 1706 0d12 9B11     		asrs r3, r3, # 6
 1707 0d14 8018     		adds r0, r0, r2  @r
 1708 0d16 C918     		adds r1, r1, r3  @i
 1709 0d18 3618     		adds r6, r6, r0
 1710 0d1a 7F18     		adds r7, r7, r1
 1711              	
 1712 0d1c DD46     		mov sp, r11
 1713 0d1e 0FBC     		pop {r0-r3}
 1714 0d20 EB46     		mov r11, sp
 1715 0d22 D546     		mov sp, r10
 1716 0d24 10BC     		pop {r4}
 1717 0d26 EA46     		mov r10, sp
 1718 0d28 2546     		mov r5, r4
 1719 0d2a 2404     		lsls r4, r4, # 16
 1720 0d2c 240C     		lsrs r4, r4, # 16
 1721 0d2e 2D0C     		lsrs r5, r5, # 16
 1722 0d30 6043     		muls r0, r0, r4
 1723 0d32 6143     		muls r1, r1, r4
 1724 0d34 6A43     		muls r2, r2, r5
 1725 0d36 6B43     		muls r3, r3, r5
 1726 0d38 8011     		asrs r0, r0, # 6
 1727 0d3a 8911     		asrs r1, r1, # 6
 1728 0d3c 9211     		asrs r2, r2, # 6
 1729 0d3e 9B11     		asrs r3, r3, # 6
 1730 0d40 8018     		adds r0, r0, r2         @r
 1731 0d42 C918     		adds r1, r1, r3         @i
 1732 0d44 3618     		adds r6, r6, r0
 1733 0d46 7F18     		adds r7, r7, r1
 1734              	
 1735              		@10
 1736 0d48 DD46     		mov sp, r11
 1737 0d4a 0FBC     		pop {r0-r3}
 1738 0d4c EB46     		mov r11, sp
 1739 0d4e D546     		mov sp, r10
 1740 0d50 10BC     		pop {r4}
 1741 0d52 EA46     		mov r10, sp
 1742 0d54 2546     		mov r5, r4
 1743 0d56 2404     		lsls r4, r4, # 16
 1744 0d58 240C     		lsrs r4, r4, # 16
 1745 0d5a 2D0C     		lsrs r5, r5, # 16
 1746 0d5c 6043     		muls r0, r0, r4		@R
 1747 0d5e 6143     		muls r1, r1, r4		@I
 1748 0d60 6A43     		muls r2, r2, r5		@R
 1749 0d62 6B43     		muls r3, r3, r5		@I
 1750 0d64 8011     		asrs r0, r0, # 6
 1751 0d66 8911     		asrs r1, r1, # 6
 1752 0d68 9211     		asrs r2, r2, # 6
 1753 0d6a 9B11     		asrs r3, r3, # 6
 1754 0d6c 8018     		adds r0, r0, r2	 @r
 1755 0d6e C918     		adds r1, r1, r3	 @i
 1756 0d70 3618     		adds r6, r6, r0
 1757 0d72 7F18     		adds r7, r7, r1
 1758              	
ARM GAS  1.s 			page 32


 1759 0d74 DD46     		mov sp, r11
 1760 0d76 0FBC     		pop {r0-r3}
 1761 0d78 EB46     		mov r11, sp
 1762 0d7a D546     		mov sp, r10
 1763 0d7c 10BC     		pop {r4}
 1764 0d7e EA46     		mov r10, sp
 1765 0d80 2546     		mov r5, r4
 1766 0d82 2404     		lsls r4, r4, # 16
 1767 0d84 240C     		lsrs r4, r4, # 16
 1768 0d86 2D0C     		lsrs r5, r5, # 16
 1769 0d88 6043     		muls r0, r0, r4
 1770 0d8a 6143     		muls r1, r1, r4
 1771 0d8c 6A43     		muls r2, r2, r5
 1772 0d8e 6B43     		muls r3, r3, r5
 1773 0d90 8011     		asrs r0, r0, # 6
 1774 0d92 8911     		asrs r1, r1, # 6
 1775 0d94 9211     		asrs r2, r2, # 6
 1776 0d96 9B11     		asrs r3, r3, # 6
 1777 0d98 8018     		adds r0, r0, r2         @r
 1778 0d9a C918     		adds r1, r1, r3         @i
 1779 0d9c 3618     		adds r6, r6, r0
 1780 0d9e 7F18     		adds r7, r7, r1
 1781              	
 1782 0da0 DD46     		mov sp, r11
 1783 0da2 0FBC     		pop {r0-r3}
 1784 0da4 EB46     		mov r11, sp
 1785 0da6 D546     		mov sp, r10
 1786 0da8 10BC     		pop {r4}
 1787 0daa EA46     		mov r10, sp
 1788 0dac 2546     		mov r5, r4
 1789 0dae 2404     		lsls r4, r4, # 16
 1790 0db0 240C     		lsrs r4, r4, # 16
 1791 0db2 2D0C     		lsrs r5, r5, # 16
 1792 0db4 6043     		muls r0, r0, r4
 1793 0db6 6143     		muls r1, r1, r4
 1794 0db8 6A43     		muls r2, r2, r5
 1795 0dba 6B43     		muls r3, r3, r5
 1796 0dbc 8011     		asrs r0, r0, # 6
 1797 0dbe 8911     		asrs r1, r1, # 6
 1798 0dc0 9211     		asrs r2, r2, # 6
 1799 0dc2 9B11     		asrs r3, r3, # 6
 1800 0dc4 8018     		adds r0, r0, r2  @r
 1801 0dc6 C918     		adds r1, r1, r3  @i
 1802 0dc8 3618     		adds r6, r6, r0
 1803 0dca 7F18     		adds r7, r7, r1
 1804              	
 1805 0dcc DD46     		mov sp, r11
 1806 0dce 0FBC     		pop {r0-r3}
 1807 0dd0 EB46     		mov r11, sp
 1808 0dd2 D546     		mov sp, r10
 1809 0dd4 10BC     		pop {r4}
 1810 0dd6 EA46     		mov r10, sp
 1811 0dd8 2546     		mov r5, r4
 1812 0dda 2404     		lsls r4, r4, # 16
 1813 0ddc 240C     		lsrs r4, r4, # 16
 1814 0dde 2D0C     		lsrs r5, r5, # 16
 1815 0de0 6043     		muls r0, r0, r4
ARM GAS  1.s 			page 33


 1816 0de2 6143     		muls r1, r1, r4
 1817 0de4 6A43     		muls r2, r2, r5
 1818 0de6 6B43     		muls r3, r3, r5
 1819 0de8 8011     		asrs r0, r0, # 6
 1820 0dea 8911     		asrs r1, r1, # 6
 1821 0dec 9211     		asrs r2, r2, # 6
 1822 0dee 9B11     		asrs r3, r3, # 6
 1823 0df0 8018     		adds r0, r0, r2         @r
 1824 0df2 C918     		adds r1, r1, r3         @i
 1825 0df4 3618     		adds r6, r6, r0
 1826 0df6 7F18     		adds r7, r7, r1
 1827              	
 1828              		@11
 1829 0df8 DD46     		mov sp, r11
 1830 0dfa 0FBC     		pop {r0-r3}
 1831 0dfc EB46     		mov r11, sp
 1832 0dfe D546     		mov sp, r10
 1833 0e00 10BC     		pop {r4}
 1834 0e02 EA46     		mov r10, sp
 1835 0e04 2546     		mov r5, r4
 1836 0e06 2404     		lsls r4, r4, # 16
 1837 0e08 240C     		lsrs r4, r4, # 16
 1838 0e0a 2D0C     		lsrs r5, r5, # 16
 1839 0e0c 6043     		muls r0, r0, r4		@R
 1840 0e0e 6143     		muls r1, r1, r4		@I
 1841 0e10 6A43     		muls r2, r2, r5		@R
 1842 0e12 6B43     		muls r3, r3, r5		@I
 1843 0e14 8011     		asrs r0, r0, # 6
 1844 0e16 8911     		asrs r1, r1, # 6
 1845 0e18 9211     		asrs r2, r2, # 6
 1846 0e1a 9B11     		asrs r3, r3, # 6
 1847 0e1c 8018     		adds r0, r0, r2	 @r
 1848 0e1e C918     		adds r1, r1, r3	 @i
 1849 0e20 3618     		adds r6, r6, r0
 1850 0e22 7F18     		adds r7, r7, r1
 1851              	
 1852 0e24 DD46     		mov sp, r11
 1853 0e26 0FBC     		pop {r0-r3}
 1854 0e28 EB46     		mov r11, sp
 1855 0e2a D546     		mov sp, r10
 1856 0e2c 10BC     		pop {r4}
 1857 0e2e EA46     		mov r10, sp
 1858 0e30 2546     		mov r5, r4
 1859 0e32 2404     		lsls r4, r4, # 16
 1860 0e34 240C     		lsrs r4, r4, # 16
 1861 0e36 2D0C     		lsrs r5, r5, # 16
 1862 0e38 6043     		muls r0, r0, r4
 1863 0e3a 6143     		muls r1, r1, r4
 1864 0e3c 6A43     		muls r2, r2, r5
 1865 0e3e 6B43     		muls r3, r3, r5
 1866 0e40 8011     		asrs r0, r0, # 6
 1867 0e42 8911     		asrs r1, r1, # 6
 1868 0e44 9211     		asrs r2, r2, # 6
 1869 0e46 9B11     		asrs r3, r3, # 6
 1870 0e48 8018     		adds r0, r0, r2         @r
 1871 0e4a C918     		adds r1, r1, r3         @i
 1872 0e4c 3618     		adds r6, r6, r0
ARM GAS  1.s 			page 34


 1873 0e4e 7F18     		adds r7, r7, r1
 1874              	
 1875 0e50 DD46     		mov sp, r11
 1876 0e52 0FBC     		pop {r0-r3}
 1877 0e54 EB46     		mov r11, sp
 1878 0e56 D546     		mov sp, r10
 1879 0e58 10BC     		pop {r4}
 1880 0e5a EA46     		mov r10, sp
 1881 0e5c 2546     		mov r5, r4
 1882 0e5e 2404     		lsls r4, r4, # 16
 1883 0e60 240C     		lsrs r4, r4, # 16
 1884 0e62 2D0C     		lsrs r5, r5, # 16
 1885 0e64 6043     		muls r0, r0, r4
 1886 0e66 6143     		muls r1, r1, r4
 1887 0e68 6A43     		muls r2, r2, r5
 1888 0e6a 6B43     		muls r3, r3, r5
 1889 0e6c 8011     		asrs r0, r0, # 6
 1890 0e6e 8911     		asrs r1, r1, # 6
 1891 0e70 9211     		asrs r2, r2, # 6
 1892 0e72 9B11     		asrs r3, r3, # 6
 1893 0e74 8018     		adds r0, r0, r2  @r
 1894 0e76 C918     		adds r1, r1, r3  @i
 1895 0e78 3618     		adds r6, r6, r0
 1896 0e7a 7F18     		adds r7, r7, r1
 1897              	
 1898 0e7c DD46     		mov sp, r11
 1899 0e7e 0FBC     		pop {r0-r3}
 1900 0e80 EB46     		mov r11, sp
 1901 0e82 D546     		mov sp, r10
 1902 0e84 10BC     		pop {r4}
 1903 0e86 EA46     		mov r10, sp
 1904 0e88 2546     		mov r5, r4
 1905 0e8a 2404     		lsls r4, r4, # 16
 1906 0e8c 240C     		lsrs r4, r4, # 16
 1907 0e8e 2D0C     		lsrs r5, r5, # 16
 1908 0e90 6043     		muls r0, r0, r4
 1909 0e92 6143     		muls r1, r1, r4
 1910 0e94 6A43     		muls r2, r2, r5
 1911 0e96 6B43     		muls r3, r3, r5
 1912 0e98 8011     		asrs r0, r0, # 6
 1913 0e9a 8911     		asrs r1, r1, # 6
 1914 0e9c 9211     		asrs r2, r2, # 6
 1915 0e9e 9B11     		asrs r3, r3, # 6
 1916 0ea0 8018     		adds r0, r0, r2         @r
 1917 0ea2 C918     		adds r1, r1, r3         @i
 1918 0ea4 3618     		adds r6, r6, r0
 1919 0ea6 7F18     		adds r7, r7, r1
 1920              	
 1921              		@12
 1922 0ea8 DD46     		mov sp, r11
 1923 0eaa 0FBC     		pop {r0-r3}
 1924 0eac EB46     		mov r11, sp
 1925 0eae D546     		mov sp, r10
 1926 0eb0 10BC     		pop {r4}
 1927 0eb2 EA46     		mov r10, sp
 1928 0eb4 2546     		mov r5, r4
 1929 0eb6 2404     		lsls r4, r4, # 16
ARM GAS  1.s 			page 35


 1930 0eb8 240C     		lsrs r4, r4, # 16
 1931 0eba 2D0C     		lsrs r5, r5, # 16
 1932 0ebc 6043     		muls r0, r0, r4         @R
 1933 0ebe 6143     		muls r1, r1, r4         @I
 1934 0ec0 6A43     		muls r2, r2, r5         @R
 1935 0ec2 6B43     		muls r3, r3, r5         @I
 1936 0ec4 8011     		asrs r0, r0, # 6
 1937 0ec6 8911     		asrs r1, r1, # 6
 1938 0ec8 9211     		asrs r2, r2, # 6
 1939 0eca 9B11     		asrs r3, r3, # 6
 1940 0ecc 8018     		adds r0, r0, r2  @r
 1941 0ece C918     		adds r1, r1, r3  @i
 1942 0ed0 3618     		adds r6, r6, r0
 1943 0ed2 7F18     		adds r7, r7, r1
 1944              	
 1945 0ed4 DD46     		mov sp, r11
 1946 0ed6 0FBC     		pop {r0-r3}
 1947 0ed8 EB46     		mov r11, sp
 1948 0eda D546     		mov sp, r10
 1949 0edc 10BC     		pop {r4}
 1950 0ede EA46     		mov r10, sp
 1951 0ee0 2546     		mov r5, r4
 1952 0ee2 2404     		lsls r4, r4, # 16
 1953 0ee4 240C     		lsrs r4, r4, # 16
 1954 0ee6 2D0C     		lsrs r5, r5, # 16
 1955 0ee8 6043     		muls r0, r0, r4
 1956 0eea 6143     		muls r1, r1, r4
 1957 0eec 6A43     		muls r2, r2, r5
 1958 0eee 6B43     		muls r3, r3, r5
 1959 0ef0 8011     		asrs r0, r0, # 6
 1960 0ef2 8911     		asrs r1, r1, # 6
 1961 0ef4 9211     		asrs r2, r2, # 6
 1962 0ef6 9B11     		asrs r3, r3, # 6
 1963 0ef8 8018     		adds r0, r0, r2         @r
 1964 0efa C918     		adds r1, r1, r3         @i
 1965 0efc 3618     		adds r6, r6, r0
 1966 0efe 7F18     		adds r7, r7, r1
 1967              	
 1968              		
 1969              	@	bkpt # 1
 1970 0f00 0948     		ldr r0, = 0x200008d0
 1971 0f02 8245     		cmp r10, r0
 1972 0f04 05D0     		beq __dft_fanhuile
 1973 0f06 0948     		ldr r0, = cossin
 1974 0f08 0068     		ldr r0, [r0]
 1975 0f0a 8346     		mov r11, r0
 1976 0f0c 0848     		ldr r0, = __dft_xunhuan
 1977 0f0e 0130     		adds r0, r0, # 1
 1978 0f10 8746     		mov pc, r0
 1979              	@	b __dft_xunhuan
 1980              	__dft_fanhuile:
 1981 0f12 3046     		mov r0, r6
 1982 0f14 3946     		mov r1, r7
 1983 0f16 4012     		asrs r0, r0, # 9	@dfdf
 1984 0f18 4912     		asrs r1, r1, # 9
 1985 0f1a E546     		mov sp, r12
 1986 0f1c 1CBC     		pop {r2-r4}
ARM GAS  1.s 			page 36


 1987 0f1e 9246     		mov r10, r2
 1988 0f20 9B46     		mov r11, r3
 1989 0f22 A446     		mov r12, r4
 1990 0f24 FCBD     		pop {r2-r7,pc}
 1991 0f26 0000D008 		.ltorg	
 1991      0020F000 
 1991      00206806 
 1991      0000
 1992              	
 1993              	__lv_bo_qi:
 1994              		@地址顺序：指针，累加值，缓冲区
 1995              		@入口R0=缓冲区，R1=数据, r2,=指针
 1996              		@出口R0
 1997 0f34 F8B5     		push {r3-r7,lr}
 1998 0f36 0B4C     		ldr r4, = lvbo_changdu
 1999 0f38 0B4F     		ldr r7, = lvbo_youyi
 2000 0f3a 2468     		ldr r4, [r4]
 2001 0f3c 3F68     		ldr r7, [r7]
 2002 0f3e 1568     		ldr r5, [r2]
 2003 0f40 2B46     		mov r3, r5
 2004 0f42 AB00     		lsls r3, r5, # 2
 2005 0f44 C658     		ldr r6, [r0, r3]
 2006 0f46 C150     		str r1, [r0, r3]
 2007 0f48 0135     		adds r5, r5, # 1
 2008 0f4a 1560     		str r5, [r2]
 2009 0f4c A542     		cmp r5, r4
 2010 0f4e 01D1     		bne __huanchong_leijia
 2011 0f50 0025     		movs r5, # 0
 2012 0f52 1560     		str r5, [r2]
 2013              	__huanchong_leijia:
 2014 0f54 0438     		subs r0, r0, # 4
 2015 0f56 0568     		ldr r5, [r0]
 2016 0f58 4919     		adds r1, r1, r5
 2017 0f5a 891B     		subs r1, r1, r6
 2018 0f5c 0160     		str r1, [r0]
 2019 0f5e 3941     		asrs r1, r1, r7	 @# 12 @12 @  7	@128
 2020 0f60 0846     		mov r0, r1
 2021 0f62 F8BD     		pop {r3-r7,pc}
 2022 0f64 F4000020 		.ltorg
 2022      F8000020 
 2023              		
 2024              		
 2025              	__pinlv_shezhi:
 2026              		@入口R0
 2027              		@0=1KHZ
 2028 0f6c 0FB5     		push {r0-r3,lr}
 2029 0f6e 2849     		ldr r1, = shezhi_pinlv
 2030 0f70 0122     		movs r2, # 1
 2031 0f72 0A60     		str r2, [r1]
 2032 0f74 274A     		ldr r2, = pinlv
 2033 0f76 2849     		ldr r1, = pinlv_biao
 2034 0f78 1268     		ldr r2, [r2]
 2035 0f7a 9200     		lsls r2, r2, # 2
 2036 0f7c 8A58     		ldr r2, [r1, r2]
 2037 0f7e 9746     		mov pc, r2
 2038              	
 2039              	__pinlv_1K:
ARM GAS  1.s 			page 37


 2040 0f80 00F083F8 		bl _adcchushihua
 2041              		@tim1ch3DMA
 2042 0f84 2548     		ldr r0, = 0x40020000
 2043 0f86 0021     		movs r1, # 0
 2044 0f88 8165     		str r1, [r0, # 0x58]
 2045 0f8a 8160     		str r1, [r0, # 0x08]
 2046 0f8c 2449     		ldr r1, = 0x40012c3c @ 外设地址
 2047 0f8e 0166     		str r1, [r0, # 0x60]
 2048 0f90 2449     		ldr r1, = zheng_xian_1khz @ 储存器地址
 2049 0f92 4166     		str r1, [r0, # 0x64]
 2050 0f94 2449     		ldr r1, = 250             @点数
 2051 0f96 C165     		str r1, [r0, # 0x5c]
 2052 0f98 2449     		ldr r1, = 0x31b1         @ 储存到外设
 2053 0f9a 8165     		str r1, [r0, # 0x58]
 2054              		@ adc dma
 2055 0f9c 2449     		ldr r1, = 0x40012440
 2056 0f9e 0161     		str r1, [r0, # 0x10]
 2057 0fa0 2449     		ldr r1, = dianyabiao
 2058 0fa2 4161     		str r1, [r0, # 0x14]
 2059 0fa4 2449     		ldr r1, = 1000
 2060 0fa6 C160     		str r1, [r0, # 0x0c]
 2061 0fa8 2449     		ldr r1, = 0x35a1 @  0x583        @ 5a1
 2062 0faa 8160     		str r1, [r0, # 0x08]
 2063              	
 2064 0fac 244C     	        ldr r4, = 0xe000e010
 2065 0fae 254B     		ldr r3, = 559999
 2066 0fb0 6360     		str r3, [r4, # 4]
 2067 0fb2 A360     		str r3, [r4, # 8]
 2068 0fb4 0723     		movs r3, # 0x07
 2069              		@str r3, [r4]    @systick 开
 2070              		
 2071              	
 2072              		@tim3chushihua:
 2073 0fb6 244B     		ldr r3, = 0x40000400 @ tim3_cr1
 2074 0fb8 244A     		ldr r2, = 0
 2075 0fba 9A62     		str r2, [r3, # 0x28] @ psc
 2076 0fbc 244A     		ldr r2, = 559
 2077 0fbe DA62     		str r2, [r3, # 0x2c] @ ARR
 2078 0fc0 2022     		movs r2, # 0x20
 2079 0fc2 5A60     		str r2, [r3, # 0x04] @ TRGO
 2080 0fc4 0622     		movs r2, # 0x06
 2081 0fc6 9A60     		str r2, [r3, # 0x08]
 2082 0fc8 8022     		movs r2, # 0x80
 2083              		@tim1chushiha:
 2084 0fca 2248     		ldr r0, = 0x40012c00 @ tim1_cr1
 2085 0fcc 0021     		movs r1, # 0
 2086 0fce 8162     		str r1, [r0, # 0x28] @ psc
 2087 0fd0 2149     		ldr r1, = 223
 2088 0fd2 C162     		str r1, [r0, # 0x2c] @ ARR
 2089 0fd4 2021     		movs r1, # 0x20
 2090 0fd6 4160     		str r1, [r0, # 0x04] @ TRGO
 2091 0fd8 2049     		ldr r1, = 0x68
 2092 0fda C161     		str r1, [r0, # 0x1c] @ ccmr2  CC3
 2093 0fdc 2049     		ldr r1, = 0x100    @  CC3
 2094 0fde 0162     		str r1, [r0, # 0x20] @ ccer
 2095 0fe0 2049     		ldr r1, = 0x8000
 2096 0fe2 4164     		str r1, [r0, # 0x44] @ BDTR
ARM GAS  1.s 			page 38


 2097 0fe4 2049     		ldr r1, = 0x800 @ CC3 DMA
 2098 0fe6 C160     		str r1, [r0, # 0x0c] @ DIER
 2099 0fe8 2049     		ldr r1, = 0x81
 2100 0fea 0160     		str r1, [r0]
 2101 0fec 1A60     		str r2, [r3]
 2102 0fee 1448     		ldr r0, = 0xe000e010
 2103 0ff0 1449     		ldr r1, = 559999
 2104 0ff2 4160     		str r1, [r0, # 4]
 2105 0ff4 8160     		str r1, [r0, # 8]
 2106 0ff6 0721     		movs r1, # 0x07
 2107 0ff8 0160     		str r1, [r0]    @systick 开
 2108              		
 2109 0ffa 1D48     		ldr r0, = lvbo_changdu
 2110 0ffc 1D49     		ldr r1, = lvbo_youyi
 2111 0ffe C822     		movs r2, # 200
 2112 1000 0260     		str r2, [r0]
 2113 1002 0C22     		movs r2, # 12
 2114 1004 0A60     		str r2, [r1]
 2115              	
 2116 1006 1C48     		ldr r0, = cossin
 2117 1008 1C49     		ldr r1, = cos_sin_biao_1k
 2118 100a 0160     		str r1, [r0]
 2119              		
 2120 100c 0FBD     		pop {r0-r3,pc}
 2121              		
 2122              	
 2123 100e 00002400 		.ltorg
 2123      00202000 
 2123      00200000 
 2123      00000000 
 2123      02403C2C 
 2124              	
 2125              	
 2126              	__pinlv_yanshi:
 2127 1080 00B5     		push {lr}
 2128 1082 3448     		ldr r0, = 0xffffff
 2129              	__pinlv_yanshi_xunhuan:
 2130 1084 0138     		subs r0, r0, # 1
 2131 1086 FDD1     		bne __pinlv_yanshi_xunhuan
 2132 1088 00BD     		pop {pc}
 2133              	
 2134              	_adcchushihua:
 2135 108a 3348     		ldr r0, = 0x40012400  @ adc基地址
 2136 108c 3349     		ldr r1, = 0x80000000
 2137 108e 8160     		str r1, [r0, # 0x08]  @ ADC 控制寄存器 (ADC_CR)  @adc校准
 2138              	_dengadcjiaozhun:
 2139 1090 8168     		ldr r1, [r0, # 0x08]
 2140 1092 0900     		movs r1, r1
 2141 1094 FCD4     		bmi _dengadcjiaozhun   @ 等ADC校准
 2142 1096 0121     		movs r1, # 1
 2143 1098 0160     		str r1, [r0]
 2144              	_kaiadc:
 2145 109a 8168     		ldr r1, [r0, # 0x08]
 2146 109c 0122     		movs r2, # 0x01
 2147 109e 1143     		orrs r1, r1, r2
 2148 10a0 8160     		str r1, [r0, # 0x08]
 2149              	_deng_adc_wen_ding:
ARM GAS  1.s 			page 39


 2150 10a2 0168     		ldr r1, [r0]
 2151 10a4 C907     		lsls r1, r1, # 31
 2152 10a6 FCD5     		bpl _deng_adc_wen_ding @ 等ADC稳定
 2153              	_tongdaoxuanze:
 2154 10a8 2D4C     		ldr r4, = 0x80008000
 2155 10aa 0461     		str r4, [r0, # 0x10]
 2156 10ac 2D49     		ldr r1, = 0x01
 2157 10ae 8162     		str r1, [r0, # 0x28]    @ 通道选择寄存器 (ADC_CHSELR)
 2158 10b0 2D49     		ldr r1, = 0x8c3         @连续0x2003 @触发0x8c3 @ 0xc43         @TIM3 0x8c3 @0x2003 @0x8c3
 2159 10b2 C160     		str r1, [r0, # 0x0c]    @ 配置寄存器 1 (ADC_CFGR1)
 2160 10b4 0021     		movs r1, # 0
 2161 10b6 4161     		str r1, [r0, # 0x14]    @ ADC 采样时间寄存器 (ADC_SMPR)
 2162 10b8 8168     		ldr r1, [r0, # 0x08]
 2163 10ba 2C4A     		ldr r2, = 0x04         @ 开始转换
 2164 10bc 1143     		orrs r1, r1, r2
 2165 10be 8160     		str r1, [r0, # 0x08]    @ 控制寄存器 (ADC_CR)
 2166 10c0 F746     		mov pc, lr
 2167              	
 2168              	
 2169              	
 2170              	
 2171              	
 2172              	
 2173              	
 2174              	
 2175              		
 2176              	
 2177              	
 2178              	
 2179              	_lcdxianshi:		  		@r0=LCD位置，r1=数据地址，r2=长度
 2180 10c2 1FB5     		push {r0-r4,lr}
 2181 10c4 0C46     		mov r4, r1
 2182              	
 2183 10c6 0021     		movs r1, # 0
 2184 10c8 00F00EF8 		bl _xielcd
 2185              	
 2186 10cc 0121     		movs r1, # 1
 2187 10ce 0023     		movs r3, # 0
 2188              	_lcdxianshixunhuan:
 2189 10d0 E05C     		ldrb r0, [r4,r3]
 2190 10d2 00F009F8 		bl _xielcd
 2191 10d6 0133     		adds r3, r3, # 1
 2192 10d8 9342     		cmp r3, r2
 2193 10da F9D1     		bne _lcdxianshixunhuan
 2194 10dc 1FBD     		pop {r0-r4,pc}
 2195              	
 2196              	_lcdyanshi:
 2197 10de 20B5     		push {r5,lr}
 2198 10e0 234D     		ldr r5, = 0x1000
 2199              	_lcdyanshixunhuan:
 2200 10e2 013D     		subs r5, r5, # 1
 2201 10e4 FDD1     		bne _lcdyanshixunhuan
 2202 10e6 20BD     		pop {r5,pc}
 2203              	_xielcd:					@入R0=8位,r1=0命令,r1=1数据
 2204 10e8 3FB5     		push {r0-r5,lr}
 2205 10ea 224C     		ldr r4, = lcd_beiguang  @ 量程开关 (第6位和第7位)
 2206 10ec 0246     		mov r2, r0
ARM GAS  1.s 			page 40


 2207 10ee 2568     		ldr r5, [r4]
 2208 10f0 1209     		lsrs r2, r2, # 4
 2209 10f2 9200     		lsls r2, r2, # 2	@ 高四位
 2210 10f4 0007     		lsls r0, r0, # 28
 2211 10f6 800E     		lsrs r0, r0, # 26	@ 低四位
 2212 10f8 C907     		lsls r1, r1, # 31
 2213 10fa 01D5     		bpl __lcd_ming_ling
 2214              	__lcd_shu_ju:
 2215 10fc 0323     		movs r3, # 0x03		@ RS = 1 E = 1
 2216 10fe 00E0     		b __xie_lcd_shu_ju
 2217              	__lcd_ming_ling:
 2218 1100 0223     		movs r3, # 0x02		@ RS = 0 E = 1
 2219              	__xie_lcd_shu_ju:
 2220 1102 5B19     		adds r3, r3, r5
 2221 1104 0146     		mov r1, r0
 2222 1106 D218     		adds r2, r2, r3
 2223 1108 1B4D     		ldr r5, = 0x4001300c
 2224 110a 1000     		movs r0, r2
 2225 110c 2870     		strb r0, [r5]
 2226 110e 00F016F8 		bl __spi_mang
 2227 1112 00F019F8 		bl __yanshi_595
 2228 1116 0238     		subs r0, r0, # 0x02
 2229 1118 2870     		strb r0, [r5]
 2230 111a 00F010F8 		bl __spi_mang
 2231 111e 00F013F8 		bl __yanshi_595
 2232 1122 0846     		mov r0, r1
 2233 1124 C018     		adds r0, r0, r3
 2234 1126 2870     		strb r0, [r5]
 2235 1128 00F009F8 		bl __spi_mang
 2236 112c 00F00CF8 		bl __yanshi_595
 2237 1130 0238     		subs r0, r0, # 0x02
 2238 1132 2870     		strb r0, [r5]
 2239 1134 00F003F8 		bl __spi_mang
 2240 1138 00F006F8 		bl __yanshi_595
 2241 113c 3FBD     		pop {r0-r5,pc}
 2242              	__spi_mang:
 2243 113e 00B5     		push {lr}
 2244 1140 AA68     		ldr r2, [r5, # 0x08]
 2245 1142 1206     		lsls r2, r2, # 24
 2246 1144 FBD4     		bmi __spi_mang
 2247 1146 00BD     		pop {pc}
 2248              	__yanshi_595:
 2249 1148 00B5     		push {lr}
 2250 114a 0C4A     		ldr r2, = 0x2000
 2251              	__yanshi__595:
 2252 114c 013A     		subs r2, r2, # 1
 2253 114e FDD1     		bne __yanshi__595
 2254 1150 00BD     		pop {pc}
 2255 1152 0000FFFF 		.ltorg
 2255      FF000024 
 2255      01400000 
 2255      00800080 
 2255      00800100 
 2256              	
 2257              	_zhuanascii:						@ 16进制转ASCII
 2258              		@ R0要转的数据， R1长度，R2结果表首地址, r3=小数点位置
 2259 1180 FFB5     		push {r0-r7,lr}
ARM GAS  1.s 			page 41


 2260 1182 1F46     		mov r7, r3
 2261 1184 0546     		mov r5, r0
 2262 1186 0E46     		mov r6, r1
 2263 1188 0A21     		movs r1, # 10
 2264              	_xunhuanqiuma:
 2265 118a 00F012F8 		bl _chufa
 2266 118e 0446     		mov r4, r0
 2267 1190 4C43     		muls r4, r1
 2268 1192 2B1B     		subs r3, r5, r4
 2269 1194 3033     		adds r3, r3, # 0x30
 2270 1196 0546     		mov r5, r0
 2271 1198 013E     		subs r6, r6, # 1
 2272 119a 08D0     		beq _qiumafanhui
 2273 119c BE42     		cmp r6, r7
 2274 119e 02D1     		bne _meidaoxiaoshudian
 2275 11a0 2E24     		movs r4, # 0x2e		@小数点
 2276 11a2 9455     		strb r4, [r2,r6]	@插入小数点
 2277 11a4 013E     		subs r6, r6, # 1
 2278              	_meidaoxiaoshudian:
 2279 11a6 9355     		strb r3, [r2,r6]
 2280 11a8 3600     		movs r6, r6
 2281 11aa EED1     		bne _xunhuanqiuma
 2282 11ac FFBD     		pop {r0-r7,pc}
 2283              	_qiumafanhui:
 2284 11ae 9355     		strb r3, [r2, r6]
 2285 11b0 FFBD     		pop {r0-r7,pc}
 2286              	
 2287              	
 2288              	
 2289              	
 2290              	
 2291              		
 2292              	_chufa:					@软件除法
 2293              		@ r0 除以 r1 等于 商(r0)
 2294 11b2 1CB5     		push {r2-r4,lr}
 2295 11b4 0028     		cmp r0, # 0
 2296 11b6 0ED0     		beq _chufafanhui
 2297 11b8 0029     		cmp r1, # 0
 2298 11ba 0CD0     		beq _chufafanhui
 2299 11bc 0246     		mov r2, r0
 2300 11be 0123     		movs r3, # 1
 2301 11c0 DB07     		lsls r3, r3, # 31
 2302 11c2 0020     		movs r0, # 0
 2303 11c4 0446     		mov r4, r0
 2304              	_chufaxunhuan:
 2305 11c6 5200     		lsls r2, r2, # 1
 2306 11c8 6441     		adcs r4, r4, r4
 2307 11ca 8C42     		cmp r4, r1
 2308 11cc 01D3     		bcc _chufaweishubudao0
 2309 11ce C018     		adds r0, r0, r3
 2310 11d0 641A     		subs r4, r4, r1
 2311              	_chufaweishubudao0:
 2312 11d2 5B08     		lsrs r3, r3, # 1
 2313 11d4 F7D1     		bne _chufaxunhuan
 2314              	_chufafanhui:
 2315 11d6 1CBD     		pop {r2-r4,pc}
 2316              	_nmi_handler:
ARM GAS  1.s 			page 42


 2317 11d8 7047     		bx lr
 2318              	_hard_fault:
 2319 11da 7047     		bx lr
 2320              	_svc_handler:
 2321 11dc 7047     		bx lr
 2322              	_pendsv_handler:
 2323 11de 7047     		bx lr
 2324              	_systickzhongduan:	@syzd
 2325 11e0 1FB5     		push {r0-r4,lr}
 2326              	__suan_dft:
 2327 11e2 FFF72FFA 		bl __dft
 2328 11e6 1E4A     		ldr r2, = shangbi_rr
 2329 11e8 1E4B     		ldr r3, = shangbi_ii
 2330 11ea 1060     		str r0, [r2]
 2331 11ec 1960     		str r1, [r3]
 2332 11ee 0446     		mov r4, r0
 2333 11f0 1D4A     		ldr r2, = lvboqizhizhen1
 2334 11f2 1E48     		ldr r0, =lvboqihuanchong1
 2335 11f4 FFF79EFE 		bl __lv_bo_qi
 2336 11f8 1D49     		ldr r1, = shangbi_i
 2337 11fa 0860     		str r0, [r1]
 2338 11fc 2146     		mov r1, r4
 2339 11fe 1D4A     		ldr r2, = lvboqizhizhen
 2340 1200 1D48     		ldr r0, =lvboqihuanchong
 2341 1202 FFF797FE 		bl __lv_bo_qi
 2342 1206 1D49     		ldr r1, = shangbi_r
 2343 1208 0860     		str r0, [r1]
 2344              	
 2345              	@	b __systick_fanhui
 2346              	
 2347              	@	bkpt # 1
 2348 120a 1D48     		ldr r0, = liangcheng
 2349 120c 1D49     		ldr r1, = shangbi_liangcheng
 2350 120e 0068     		ldr r0, [r0]
 2351 1210 1D4A     		ldr r2, = 0x48000000
 2352 1212 0B5C     		ldrb r3, [r1, r0]
 2353 1214 918A     		ldrh r1, [r2, # 0x14]
 2354 1216 0909     		lsrs r1, r1, # 4
 2355 1218 0901     		lsls r1, r1, # 4
 2356 121a 1C48     		ldr r0, = 0x48000400
 2357 121c 1C46     		mov r4, r3
 2358 121e 5B08     		lsrs r3, r3, # 1
 2359 1220 5B00     		lsls r3, r3, # 1
 2360 1222 E407     		lsls r4, r4, # 31
 2361 1224 A40F     		lsrs r4, r4, # 30
 2362 1226 0B43     		orrs r3, r3, r1
 2363 1228 4461     		str r4, [r0, 0x14]
 2364 122a 5361     		str r3, [r2, # 0x14]
 2365              	
 2366 122c 1348     	        ldr r0, = shangbi_r
 2367 122e 1049     		ldr r1, = shangbi_i
 2368 1230 0068     		ldr r0, [r0]
 2369 1232 0968     		ldr r1, [r1]
 2370 1234 FFF76DF9 		bl __ji_suan_fu_du
 2371              	
 2372 1238 114A     		ldr r2, = liangcheng
 2373 123a 1268     		ldr r2, [r2]
ARM GAS  1.s 			page 43


 2374 123c 9200     		lsls r2, r2, # 2
 2375 123e 1449     		ldr r1, = jiaozhun_kaiguan
 2376 1240 0968     		ldr r1, [r1]
 2377 1242 0129     		cmp r1, # 1
 2378 1244 01D0     		beq __jiao_zhun_mo_shi
 2379              	__zheng_chang_mo_shi:	
 2380 1246 1349     		ldr r1, = f_mr10_jz
 2381 1248 00E0     		b __du_dian_zu_biao
 2382              	__jiao_zhun_mo_shi:
 2383 124a 1349     		ldr r1, = mr10_jz
 2384              	__du_dian_zu_biao:	
 2385 124c 8958     		ldr r1, [r1, r2]
 2386              	@	ldr r1, = 8849
 2387 124e 4843     		muls r0, r0, r1
 2388 1250 C013     		asrs r0, r0, # 15
 2389              	
 2390 1252 1249     		ldr r1, = z
 2391 1254 0860     		str r0, [r1]
 2392              		
 2393              	__systick_fanhui:	
 2394 1256 1248     		ldr r0, = 0xe0000d04
 2395 1258 1249     		ldr r1, = 0x02000000
 2396 125a 0160     		str r1, [r0]                 @ 清除SYSTICK中断
 2397 125c 1FBD     		pop {r0-r4,pc}
 2398              	aaa:
 2399 125e 7047     		bx lr
 2400 1260 E0000020 		.ltorg
 2400      E4000020 
 2400      000C0020 
 2400      080C0020 
 2400      EC000020 
 2401              	@	sj
 2402              		.section .data
 2403              		.align 4
 2404              	        .equ f_mr10_0,		0x8003c00
 2405              		.equ f_mr100_0,		0x8003c04
 2406              		.equ f_r1_0,		0x8003c08
 2407              		.equ f_r10_0,		0x8003c0c
 2408              		.equ f_r100_0,		0x8003c10
 2409              		.equ f_mr10_jz,		0x8003c14
 2410              		.equ f_mr100_jz,	0x8003c18
 2411              		.equ f_r1_jz,		0x8003c1c
 2412              		.equ f_r10_jz,		0x8003c20
 2413              		.equ f_r100_jz,		0x8003c24
 2414              		.equ fjiesuo, 	                0x1fffef62
 2415              		.equ ojiesuo,                   0x1fffef6e
 2416              		.equ quanca,                    0x1fffeff8
 2417              		.equ yeca,                      0x1fffefda
 2418              		.equ zica,                      0x1ffff020
 2419              		.equ xieflash,                  0x1fffef9a
 2420              		.equ zixie,                     0x1ffff048
 2421              		.equ xiebaohu,                  0x1ffff0a6
 2422              		.equ jiancedubaohu,             0x1ffff124
 2423              		.equ flashmang,                 0x1fffef7a
 2424              		
 2425              		.equ STACKINIT,		0x20001000
 2426              		.equ asciimabiao,	0x20000000
ARM GAS  1.s 			page 44


 2427              		.equ pinlv, 		0x20000020
 2428              		.equ shezhi_pinlv,	0x20000024
 2429              		.equ liangcheng,	0x20000038
 2430              		.equ jiaozhun_kaiguan,	0x200000ac
 2431              		.equ mr10_0,		0x200000b0
 2432              		.equ mr100_0,		0x200000b4
 2433              		.equ r1_0,		0x200000b8
 2434              		.equ r10_0,		0x200000bc
 2435              		.equ r100_0,		0x200000c0
 2436              		.equ mr10_jz,		0x200000c4
 2437              		.equ mr100_jz,		0x200000c8
 2438              		.equ r1_jz,		0x200000cc
 2439              		.equ r10_jz,		0x200000d0
 2440              		.equ r100_jz,		0x200000d4
 2441              		.equ anjian_hao,	0x200000d8
 2442              		.equ z,			0x200000dc
 2443              		.equ shangbi_rr,	0x200000e0
 2444              		.equ shangbi_ii,	0x200000e4
 2445              		.equ shangbi_r,		0x200000e8
 2446              		.equ shangbi_i,		0x200000ec
 2447              		.equ cossin,		0x200000f0
 2448              		.equ lvbo_changdu,	0x200000f4
 2449              		.equ lvbo_youyi,	0x200000f8
 2450              		.equ lcd_beiguang,  	0x200000fc
 2451              		.equ dianyabiao,	0x20000100
 2452              	
 2453              		.equ lvboqizhizhen,		0x200008d0
 2454              		.equ lvboqihuanchong,		0x200008d8
 2455              		.equ lvboqizhizhen1,            0x20000c00 
 2456              		.equ lvboqihuanchong1,          0x20000c08 
 2457              	pinlv_biao:
 2458 0000 810F0000 		.word	__pinlv_1K +1 
 2459              	
 2460              	an_jian_biao:
 2461 0004 8F010000 		.word __anjian0	+1
 2462 0008 91010000 		.word __anjian1	+1
 2463 000c 45020000 		.word __anjian2	+1
 2464 0010 E1020000 		.word __anjian3	+1
 2465              	shangbi_liangcheng:
 2466              		@1毫欧-10毫欧
 2467              		@10毫欧-100毫欧
 2468              		@100毫欧-1欧
 2469              		@1欧-10欧
 2470              		@10欧-100欧
 2471 0014 0E060203 		.byte	0x0e, 0x06, 0x02, 0x03, 0x01
 2471      01
 2472              	zukang_xiaoshu_dian:			
 2473 0019 02030402 		.byte 2,3,4,2,3
 2473      03
 2474              	zukang_dianzu_biao:
 2475 001e 00000000 		.int 0,1,2,3,4
 2475      01000000 
 2475      02000000 
 2475      03000000 
 2475      04000000 
 2476 0032 00000000 		.align 4
 2476      00000000 
ARM GAS  1.s 			page 45


 2476      00000000 
 2476      0000
 2477              	chuchang_dianzu_biao:
 2478 0040 91220000 		.int 8849,8849,8849,8849,8849
 2478      91220000 
 2478      91220000 
 2478      91220000 
 2478      91220000 
 2479              	zukang_danwei:
 2480              		@毫欧=0XF46D，欧=0XF420
 2481 0054 6DF40000 		.int 0xf46d,0xf46d,0xf46d,0xf420,0xf420
 2481      6DF40000 
 2481      6DF40000 
 2481      20F40000 
 2481      20F40000 
 2482              	dangwei_biao:
 2483 0068 D1000000 		.word haoou10
 2484 006c D6000000 		.word haoou100
 2485 0070 DB000000 		.word ou1
 2486 0074 E0000000 		.word ou10
 2487 0078 E5000000 		.word ou100
 2488              	jiaozhun:
 2489 007c 6A69616F 		.ascii "jiao zhun mo shi"
 2489      207A6875 
 2489      6E206D6F 
 2489      20736869 
 2490              	jiaozhun_wan:
 2491 008c 6A69616F 		.ascii "jiao zhun wan le"
 2491      207A6875 
 2491      6E207761 
 2491      6E206C65 
 2492              	duanlu:
 2493 009c 6475616E 		.ascii "duanlu qing ling"
 2493      6C752071 
 2493      696E6720 
 2493      6C696E67 
 2494              	duanlu_wancheng:
 2495 00ac 6475616E 		.ascii "duanlu wan cheng"
 2495      6C752077 
 2495      616E2063 
 2495      68656E67 
 2496              	yjmwxwx:
 2497 00bc 796A6D77 		.ascii "yjmwxwx-20230322"
 2497      7877782D 
 2497      32303233 
 2497      30333232 
 2498              	kong:
 2499 00cc 20202020 		.int 0x20202020
 2500              	_fu:
 2501 00d0 2D       		.ascii "-"
 2502              	haoou10:
 2503 00d1 2031306D 		.ascii " 10mR"
 2503      52
 2504              	haoou100:
 2505 00d6 3130306D 		.ascii "100mR"
 2505      52
 2506              	ou1:
ARM GAS  1.s 			page 46


 2507 00db 20202031 		.ascii "   1R"
 2507      52
 2508              	ou10:
 2509 00e0 20203130 		.ascii "  10R"
 2509      52
 2510              	ou100:
 2511 00e5 20313030 		.ascii " 100R"
 2511      52
 2512 00ea 00000000 		.align 4
 2512      0000
 2513              	zheng_xian_1khz:
 2514 00f0 70727578 		.byte 112,114,117,120,123,125,128,131,134,137,139,142,145,147,150,153,155,158,160,163,165,168,170,
 2514      7B7D8083 
 2514      86898B8E 
 2514      91939699 
 2514      9B9EA0A3 
 2515 01ea 00000000 		.align 4
 2515      0000
 2516              	
 2517              	cos_sin_biao_1k:	
 2518 01f0 00800000 		.int 0x8000,0x0000,0x7FBF,0xFFFFF7F7,0x7EFD,0xFFFFEFF6,0x7DBB,0xFFFFE804,0x7BFA,0xFFFFE02B,0x79BC,
 2518      00000000 
 2518      BF7F0000 
 2518      F7F7FFFF 
 2518      FD7E0000 
 2519              	
 2520              	
 2521              		.end
ARM GAS  1.s 			page 47


DEFINED SYMBOLS
                 1.s:10     .text:0000000000000000 vectors
                            *ABS*:0000000020001000 STACKINIT
                 1.s:56     .text:00000000000000b0 _start
                 1.s:2316   .text:00000000000011d8 _nmi_handler
                 1.s:2318   .text:00000000000011da _hard_fault
                 1.s:2320   .text:00000000000011dc _svc_handler
                 1.s:2322   .text:00000000000011de _pendsv_handler
                 1.s:2324   .text:00000000000011e0 _systickzhongduan
                 1.s:2398   .text:000000000000125e aaa
                 1.s:57     .text:00000000000000b0 shizhong
                            .text:0000000000000000 $d
                 1.s:58     .text:00000000000000b0 $t
                 1.s:64     .text:00000000000000bc denghse
                 1.s:68     .text:00000000000000c2 dengpllguan
                 1.s:80     .text:00000000000000d6 dengpll
                 1.s:89     .text:00000000000000e0 _waisheshizhong
                 1.s:106    .text:00000000000000ee _neicunqingling
                 1.s:110    .text:00000000000000f4 _neicunqinglingxunhuan
                 1.s:117    .text:00000000000000fc _waishezhongduan
                 1.s:139    .text:00000000000000fc io_she_zhi
                 1.s:178    .text:000000000000011c spi_chushihua
                 1.s:187    .text:0000000000000126 _lcdchushihua
                 1.s:2203   .text:00000000000010e8 _xielcd
                 1.s:2196   .text:00000000000010de _lcdyanshi
                 1.s:2496   .data:00000000000000bc yjmwxwx
                 1.s:2179   .text:00000000000010c2 _lcdxianshi
                 1.s:215    .text:000000000000016e yjmwxwx_yanshi
                 1.s:227    .text:0000000000000184 __tiaoguo_chuchang_shezhi
                 1.s:499    .text:00000000000003e6 __du_chuchang
                 1.s:551    .text:0000000000000434 __xie_flash
                            *ABS*:0000000020000038 liangcheng
                 1.s:2025   .text:0000000000000f6c __pinlv_shezhi
                 1.s:235    .text:000000000000018e __anjian0
                 1.s:464    .text:00000000000003aa ting
                 1.s:237    .text:0000000000000190 __anjian1
                 1.s:2492   .data:000000000000009c duanlu
                 1.s:242    .text:000000000000019a _MEGANMEOW_
                 1.s:535    .text:000000000000041a __du_duanlu_biao
                 1.s:518    .text:0000000000000400 __du_jiaozhun_biao
                 1.s:249    .text:00000000000001a8 __duanlu_qingling
                 1.s:313    .text:0000000000000224 __duanlu_qingling_xianshi
                 1.s:604    .text:000000000000048a __an_jian
                 1.s:257    .text:00000000000001ba __qingling_jia
                 1.s:274    .text:00000000000001dc __qingling_jian
                 1.s:292    .text:00000000000001fe __qingling_baocun
                 1.s:265    .text:00000000000001cc __qingling_jiale
                            *ABS*:00000000200000b0 mr10_0
                 1.s:282    .text:00000000000001ee __qingling_jianle
                 1.s:299    .text:000000000000020a __duanlu_qingling_wan
                 1.s:2494   .data:00000000000000ac duanlu_wancheng
                 1.s:307    .text:000000000000021a __yy
                 1.s:634    .text:00000000000004be __xianshi_dangwei
                 1.s:621    .text:00000000000004a4 __xianshi_zukang_danwei
                            *ABS*:00000000200000dc z
                 1.s:646    .text:00000000000004d4 __xianshi_zukang
                 1.s:327    .text:0000000000000244 __anjian2
ARM GAS  1.s 			page 48


                 1.s:328    .text:0000000000000244 __dangwei_jia_deng_songshou
                 1.s:353    .text:00000000000002e0 __anjian3
                 1.s:338    .text:0000000000000256 __dangwei_jia_le
                 1.s:468    .text:00000000000003b0 __xianshi_dianzu
                 1.s:348    .text:0000000000000266 __anjian8_fanhui
                 1.s:451    .text:000000000000039a __ren_wu_diao_du
                 1.s:351    .text:000000000000026c $d
                 1.s:354    .text:00000000000002e0 $t
                 1.s:2488   .data:000000000000007c jiaozhun
                            *ABS*:00000000200000ac jiaozhun_kaiguan
                 1.s:367    .text:00000000000002fe __jiaozhun_dianzu
                 1.s:431    .text:000000000000037a __jiaozhun_moshi_xianshi
                 1.s:375    .text:0000000000000310 __jiaozhun_jia
                 1.s:392    .text:0000000000000332 __jiaozhun_jian
                 1.s:410    .text:0000000000000354 __jiaozhun_baocun
                 1.s:383    .text:0000000000000322 __jiaozhun_jiale
                            *ABS*:00000000200000c4 mr10_jz
                 1.s:400    .text:0000000000000344 __jiaozhun_jianle
                 1.s:417    .text:0000000000000360 __jiaozhun_wan
                 1.s:2490   .data:000000000000008c jiaozhun_wan
                 1.s:425    .text:0000000000000370 __yy1
                            *ABS*:00000000200000d8 anjian_hao
                 1.s:2460   .data:0000000000000004 an_jian_biao
                            *ABS*:0000000008003c00 f_mr10_0
                 1.s:485    .text:00000000000003d0 __xianshi_ceshi
                            *ABS*:0000000020000000 asciimabiao
                 1.s:2257   .text:0000000000001180 _zhuanascii
                 1.s:2477   .data:0000000000000040 chuchang_dianzu_biao
                 1.s:504    .text:00000000000003ee __du_chuchang_xunhuan
                            *ABS*:0000000008003c14 f_mr10_jz
                 1.s:523    .text:0000000000000408 __du_jiaozhun_xunhuan
                 1.s:540    .text:0000000000000422 __du_duanlu_xunhuan
                 1.s:560    .text:0000000000000442 _flashmang
                 1.s:576    .text:000000000000045e _flashmang1
                 1.s:585    .text:000000000000046e _flashmang2
                 1.s:594    .text:000000000000047e _flashmang4
                 1.s:2479   .data:0000000000000054 zukang_danwei
                 1.s:2482   .data:0000000000000068 dangwei_biao
                 1.s:657    .text:00000000000004ea aaa1
                 1.s:2500   .data:00000000000000d0 _fu
                 1.s:662    .text:00000000000004f4 aaa2
                 1.s:2498   .data:00000000000000cc kong
                 1.s:2472   .data:0000000000000019 zukang_xiaoshu_dian
                 1.s:682    .text:0000000000000512 __ji_suan_fu_du
                 1.s:692    .text:000000000000051c _shibubushifushu
                 1.s:697    .text:0000000000000524 _xububushifushu
                 1.s:702    .text:000000000000052c _panduanxubushibushi0
                 1.s:706    .text:0000000000000532 _jisuanfudu1
                 1.s:719    .text:0000000000000548 _alpha_min_beta_max
                 1.s:711    .text:000000000000053a _alpha_max_beta_min
                 1.s:728    .text:0000000000000556 __xianshi_shangxia_bi
                            *ABS*:00000000200000e8 shangbi_r
                            *ABS*:00000000200000ec shangbi_i
                 1.s:743    .text:0000000000000574 aa1
                 1.s:748    .text:000000000000057e aa2
                 1.s:769    .text:00000000000005a8 bb1
                 1.s:774    .text:00000000000005b2 bb2
ARM GAS  1.s 			page 49


                 1.s:785    .text:00000000000005ca $d
                 1.s:785    .text:00000000000005cc $d
                 1.s:788    .text:0000000000000644 __dft
                 1.s:789    .text:0000000000000644 $t
                            *ABS*:00000000200000f0 cossin
                            *ABS*:0000000020000100 dianyabiao
                 1.s:804    .text:0000000000000668 __dft_xunhuan
                 1.s:803    .text:0000000000000660 $d
                 1.s:806    .text:0000000000000668 $t
                 1.s:1980   .text:0000000000000f12 __dft_fanhuile
                 1.s:1991   .text:0000000000000f26 $d
                 1.s:1991   .text:0000000000000f28 $d
                 1.s:1993   .text:0000000000000f34 __lv_bo_qi
                 1.s:1997   .text:0000000000000f34 $t
                            *ABS*:00000000200000f4 lvbo_changdu
                            *ABS*:00000000200000f8 lvbo_youyi
                 1.s:2013   .text:0000000000000f54 __huanchong_leijia
                 1.s:2022   .text:0000000000000f64 $d
                 1.s:2028   .text:0000000000000f6c $t
                            *ABS*:0000000020000024 shezhi_pinlv
                            *ABS*:0000000020000020 pinlv
                 1.s:2457   .data:0000000000000000 pinlv_biao
                 1.s:2039   .text:0000000000000f80 __pinlv_1K
                 1.s:2134   .text:000000000000108a _adcchushihua
                 1.s:2513   .data:00000000000000f0 zheng_xian_1khz
                 1.s:2517   .data:00000000000001f0 cos_sin_biao_1k
                 1.s:2123   .text:000000000000100e $d
                 1.s:2123   .text:0000000000001010 $d
                 1.s:2126   .text:0000000000001080 __pinlv_yanshi
                 1.s:2127   .text:0000000000001080 $t
                 1.s:2129   .text:0000000000001084 __pinlv_yanshi_xunhuan
                 1.s:2138   .text:0000000000001090 _dengadcjiaozhun
                 1.s:2144   .text:000000000000109a _kaiadc
                 1.s:2149   .text:00000000000010a2 _deng_adc_wen_ding
                 1.s:2153   .text:00000000000010a8 _tongdaoxuanze
                 1.s:2188   .text:00000000000010d0 _lcdxianshixunhuan
                 1.s:2199   .text:00000000000010e2 _lcdyanshixunhuan
                            *ABS*:00000000200000fc lcd_beiguang
                 1.s:2217   .text:0000000000001100 __lcd_ming_ling
                 1.s:2214   .text:00000000000010fc __lcd_shu_ju
                 1.s:2219   .text:0000000000001102 __xie_lcd_shu_ju
                 1.s:2242   .text:000000000000113e __spi_mang
                 1.s:2248   .text:0000000000001148 __yanshi_595
                 1.s:2251   .text:000000000000114c __yanshi__595
                 1.s:2255   .text:0000000000001152 $d
                 1.s:2255   .text:0000000000001154 $d
                 1.s:2259   .text:0000000000001180 $t
                 1.s:2264   .text:000000000000118a _xunhuanqiuma
                 1.s:2292   .text:00000000000011b2 _chufa
                 1.s:2283   .text:00000000000011ae _qiumafanhui
                 1.s:2278   .text:00000000000011a6 _meidaoxiaoshudian
                 1.s:2314   .text:00000000000011d6 _chufafanhui
                 1.s:2304   .text:00000000000011c6 _chufaxunhuan
                 1.s:2311   .text:00000000000011d2 _chufaweishubudao0
                 1.s:2326   .text:00000000000011e2 __suan_dft
                            *ABS*:00000000200000e0 shangbi_rr
                            *ABS*:00000000200000e4 shangbi_ii
ARM GAS  1.s 			page 50


                            *ABS*:0000000020000c00 lvboqizhizhen1
                            *ABS*:0000000020000c08 lvboqihuanchong1
                            *ABS*:00000000200008d0 lvboqizhizhen
                            *ABS*:00000000200008d8 lvboqihuanchong
                 1.s:2465   .data:0000000000000014 shangbi_liangcheng
                 1.s:2382   .text:000000000000124a __jiao_zhun_mo_shi
                 1.s:2379   .text:0000000000001246 __zheng_chang_mo_shi
                 1.s:2384   .text:000000000000124c __du_dian_zu_biao
                 1.s:2393   .text:0000000000001256 __systick_fanhui
                 1.s:2400   .text:0000000000001260 $d
                 1.s:2403   .data:0000000000000000 $d
                 1.s:2405   *ABS*:0000000008003c04 f_mr100_0
                 1.s:2406   *ABS*:0000000008003c08 f_r1_0
                 1.s:2407   *ABS*:0000000008003c0c f_r10_0
                 1.s:2408   *ABS*:0000000008003c10 f_r100_0
                 1.s:2410   *ABS*:0000000008003c18 f_mr100_jz
                 1.s:2411   *ABS*:0000000008003c1c f_r1_jz
                 1.s:2412   *ABS*:0000000008003c20 f_r10_jz
                 1.s:2413   *ABS*:0000000008003c24 f_r100_jz
                 1.s:2414   *ABS*:000000001fffef62 fjiesuo
                 1.s:2415   *ABS*:000000001fffef6e ojiesuo
                 1.s:2416   *ABS*:000000001fffeff8 quanca
                 1.s:2417   *ABS*:000000001fffefda yeca
                 1.s:2418   *ABS*:000000001ffff020 zica
                 1.s:2419   *ABS*:000000001fffef9a xieflash
                 1.s:2420   *ABS*:000000001ffff048 zixie
                 1.s:2421   *ABS*:000000001ffff0a6 xiebaohu
                 1.s:2422   *ABS*:000000001ffff124 jiancedubaohu
                 1.s:2423   *ABS*:000000001fffef7a flashmang
                 1.s:2432   *ABS*:00000000200000b4 mr100_0
                 1.s:2433   *ABS*:00000000200000b8 r1_0
                 1.s:2434   *ABS*:00000000200000bc r10_0
                 1.s:2435   *ABS*:00000000200000c0 r100_0
                 1.s:2437   *ABS*:00000000200000c8 mr100_jz
                 1.s:2438   *ABS*:00000000200000cc r1_jz
                 1.s:2439   *ABS*:00000000200000d0 r10_jz
                 1.s:2440   *ABS*:00000000200000d4 r100_jz
                 1.s:2474   .data:000000000000001e zukang_dianzu_biao
                 1.s:2502   .data:00000000000000d1 haoou10
                 1.s:2504   .data:00000000000000d6 haoou100
                 1.s:2506   .data:00000000000000db ou1
                 1.s:2508   .data:00000000000000e0 ou10
                 1.s:2510   .data:00000000000000e5 ou100

NO UNDEFINED SYMBOLS
