ARM GAS  1.s 			page 1


   1              			@ stm32f030f4p6 asm
   2              		 .thumb
   3              		         .syntax unified
   4              		.section .data
   5              	zheng_xian_biao:
   6 0000 18001900 		.short 0x18,0x19,0x1a,0x1c,0x1d,0x1f,0x20,0x22,0x23,0x24,0x25,0x26,0x28,0x29,0x2a,0x2b,0x2b,0x2c,0
   6      1A001C00 
   6      1D001F00 
   6      20002200 
   6      23002400 
   7 00ca 00000000 		.align 4
   7      0000
   8              	shumaguanmabiao:
   9 00d0 02000000 		.int 0x02,0xae,0x14,0x0c,0xa8,0x48,0x40,0x2e,0x00,0x08
   9      AE000000 
   9      14000000 
   9      0C000000 
   9      A8000000 
  10              		
  11              		.equ STACKINIT,        	        0x20001000
  12              		.equ shumaguanma,		0x20000000
  13              		.equ dianyabiao,		0x20000100
  14              		.equ lvboqizhizhen,		0x20000600
  15              		.equ lvboqihuanchong,		0x20000604
  16              	.section .text
  17              	vectors:
  18 0000 00100020 		.word STACKINIT
  19 0004 B1000000 		.word _start + 1
  20 0008 A7020000 		.word _nmi_handler + 1
  21 000c A9020000 		.word _hard_fault  + 1
  22 0010 00000000 		.word 0
  23 0014 00000000 		.word 0
  24 0018 00000000 		.word 0
  25 001c 00000000 		.word 0
  26 0020 00000000 		.word 0
  27 0024 00000000 		.word 0
  28 0028 00000000 		.word 0
  29 002c AB020000 		.word _svc_handler +1
  30 0030 00000000 		.word 0
  31 0034 00000000 		.word 0
  32 0038 AD020000 		.word _pendsv_handler +1
  33 003c AF020000 		.word _systickzhongduan +1               @ 15
  34 0040 AF020000 		.word aaa +1     @ _wwdg +1          @ 0
  35 0044 AF020000 		.word aaa +1     @_pvd +1            @ 1
  36 0048 AF020000 		.word aaa +1     @_rtc +1            @ 2
  37 004c AF020000 		.word aaa +1     @_flash +1          @ 3
  38 0050 AF020000 		.word aaa +1	@ _rcc + 1          @ 4
  39 0054 AF020000 		.word aaa +1	@_exti0_1  +1      @ 5
  40 0058 AF020000 		.word aaa +1      @ _exti2_3 +1      @ 6
  41 005c AF020000 		.word aaa +1       @_exti4_15 +1     @ 7
  42 0060 AF020000 		.word aaa +1                         @ 8
  43 0064 AF020000 		.word aaa +1 	@_dma1_1  +1    @ 9
  44 0068 AF020000 		.word aaa +1    @_dma1_2_3 +1        @ 10
  45 006c AF020000 		.word aaa +1       @_dma1_4_5 +1     @ 11
  46 0070 AF020000 		.word aaa +1	 @_adc1 +1          @ 12
  47 0074 AF020000 		.word aaa +1	@_tim1_brk_up +1  @ 13
  48 0078 AF020000 		.word aaa +1 @_tim1_buhuo +1    @ 14
ARM GAS  1.s 			page 2


  49 007c AF020000 		.word aaa +1         @_tim2 +1       @ 15
  50 0080 AF020000 		.word aaa +1          @_tim3 +1      @ 16
  51 0084 AF020000 		.word aaa +1                         @ 17
  52 0088 AF020000 		.word aaa +1		                @ 18
  53 008c AF020000 		.word aaa +1		@_tim14 +1    @ 19
  54 0090 AF020000 		.word aaa +1                         @ 20
  55 0094 AF020000 		.word aaa +1 	@_tim16 +1      @ 21
  56 0098 AF020000 		.word aaa +1         @_tim17 +1      @ 22
  57 009c AF020000 		.word aaa +1          @_i2c   +1     @ 23
  58 00a0 AF020000 		.word aaa +1                         @ 24
  59 00a4 AF020000 		.word aaa +1           @_spi   +1    @ 25
  60 00a8 AF020000 		.word aaa +1                         @ 26
  61 00ac AF020000 		.word aaa +1         @_usart1 +1     @ 27
  62              	_start:
  63              	shizhong:
  64 00b0 7F48     		ldr r0, = 0x40021000 @ rcc
  65 00b2 804A     		ldr r2, = 0x40022000   @FLASH访问控制
  66 00b4 3221     		movs r1, # 0x32
  67 00b6 1160     		str r1, [r2]           @FLASH缓冲 缓冲开启
  68 00b8 7D48     		ldr r0, = 0x40021000 @ rcc
  69 00ba 7F49     		ldr r1, = 0x100002
  70 00bc 4160     		str r1, [r0, # 0x04]
  71 00be 7F49     		ldr r1, = 0x1000001
  72 00c0 0160     		str r1, [r0]
  73              	dengrc:
  74 00c2 0168     		ldr r1, [r0]
  75 00c4 8907     		lsls r1, # 30
  76 00c6 FCD5     		bpl dengrc
  77              	dengpll:
  78 00c8 0168     		ldr r1, [r0]
  79 00ca 8901     		lsls r1, # 6
  80 00cc FCD5     		bpl dengpll
  81              		@0x34时钟控制寄存器 2 (RCC_CR2)
  82 00ce 0121     		movs r1, # 0x01
  83 00d0 4163     		str r1, [r0, # 0x34]  @ HSI开14M时钟
  84              	dengdai14mshizhongwending:
  85 00d2 416B     		ldr r1, [r0, # 0x34]
  86 00d4 8907     		lsls r1, r1, # 30     @ 左移30位
  87 00d6 FCD5     		bpl dengdai14mshizhongwending  @ 等待14M时钟稳定
  88              		
  89              	neicunqingling:
  90 00d8 7948     		ldr r0, = 0x20000000
  91 00da 0021     		movs r1, # 0
  92 00dc 794B     		ldr r3, = 0x1000
  93              	neicunqinglingxunhuan:
  94 00de 043B     		subs r3, # 4
  95 00e0 C150     		str r1, [r0, r3]
  96 00e2 FCD1     		bne neicunqinglingxunhuan
  97              	
  98              	_waisheshizhong:			 @ 外设时钟
  99              		@ +0x14=RCC_AHBENR
 100              		@ 0=DMA 2=SRAM 4=FLITF 6=CRC  17=PA  18=PB 19=PC 20=PD 22=PF
 101 00e4 7248     		ldr r0, = 0x40021000
 102 00e6 7849     		ldr r1, = 0x460005
 103 00e8 4161     		str r1, [r0, # 0x14]
 104              	
 105              		@ +0x18外设时钟使能寄存器 (RCC_APB2ENR)
ARM GAS  1.s 			page 3


 106              		@ 0=SYSCFG 5=USART6EN 9=ADC 11=TIM1 12=SPI1 14=USART1
 107              		@ 16=TIM15 17=TIM16 18=TIM17 22=DBGMCU
 108 00ea 7849     		ldr r1, = 0xa00
 109 00ec 8161     		str r1, [r0, # 0x18]
 110              		@+0X1C=RCC_APB1ENR
 111              		@ 1=TIM3 4=TIM6 5=TIM7 8=TIM14 11=WWDG 14=SPI 17=USRT2 18=USART3
 112              		@ 20=USART5 21=I2C1 22=I2C2  23=USB 28=PWR
 113              	
 114              	
 115              	io_she_zhi:
 116              		@@@@@@@@@@@@@@@@@@@@@@@@@@@@@@@@@@@@@@@@@@@@@@@@@@@@@@@@@@@@@@@@@@@@@@@@@@@@@@@@@@@@@@@@@@@@@@
 117              		@a(0x48000000)b(0x48000400)c(0x48000800)d(0x48000c00)f(0x48001400)
 118              		@ 输入（00），通用输出（01），复用功能（10），模拟（11）
 119              		@偏移0x4 = 端口输出类型 @ （0 推挽），（ 1 开漏）
 120              		@偏移0x8 = 输出速度  00低速， 01中速， 11高速
 121              		@偏移0xC = 上拉下拉 (00无上下拉，  01 上拉， 10下拉)
 122              		@偏移0x10 = 输入数据寄存器
 123              		@偏移0x14 = 输出数据寄存器
 124              		@偏移0x18 = 端口开  0-15置位
 125              		@偏移0x28 = 端口关
 126              		@0X20 = 复用低
 127              		@GPIO口0（0-3位）每个IO口占用4位
 128              		@ AF0 = 0X0000, AF1 = 0X0001, AF2 = 0X0010 AF3 = 0X0011, AF4 = 0X0100
 129              		@ AF5 = 0X0101, AF6 = 0X0111, AF7 = 0X1000
 130              		@0x24 = 复用高
 131              		@GPIO口8 （0-3位）每个IO口占用4位
 132              		@ AF0 = 0X0000, AF1 = 0X0001, AF2 = 0X0010 AF3 = 0X0011, AF4 = 0X0100
 133              		@ AF5 = 0X0101, AF6 = 0X0111, AF7 = 0X1000
 134              		@@@@@@@@@@@@@@@@@@@@@@@@@@@@@@@@@@@@@@@@@@@@@@@@@@@@@@@@@@@@@@@@@@@@@@@@@@@@@@@@@@@@@@@@@@@@@@
 135              		
 136 00ee 7848     		ldr r0, = 0x48000000
 137 00f0 7849     		ldr r1, = 0x28145557
 138 00f2 0160     		str r1, [r0]
 139              	
 140 00f4 7848     		ldr r0, = 0x48000400
 141 00f6 0821     		movs r1, # 0x08 @ pb1
 142 00f8 0160     		str r1, [r0]
 143 00fa 2021     		movs r1, # 0x20
 144 00fc 0162     		str r1, [r0, # 0x20]
 145              	
 146              		
 147 00fe 7748     		ldr r0, = 0x48001400
 148 0100 0521     		movs r1, # 0x05
 149 0102 0160     		str r1, [r0]
 150 0104 0021     		movs r1, # 0x00
 151 0106 4161     		str r1, [r0, # 0x14]
 152              	
 153              	_adcchushihua:
 154 0108 7548     	        ldr r0, = 0x40012400  @ adc基地址
 155 010a 7649     	        ldr r1, = 0x80000000
 156 010c 8160     	        str r1, [r0, # 0x08]  @ ADC 控制寄存器 (ADC_CR)  @adc校准
 157              	_dengadcjiaozhun:
 158 010e 8168     	        ldr r1, [r0, # 0x08]
 159 0110 0900     	        movs r1, r1
 160 0112 FCD4     	        bmi _dengadcjiaozhun   @ 等ADC校准
 161              	_kaiadc:
 162 0114 8168     		ldr r1, [r0, # 0x08]
ARM GAS  1.s 			page 4


 163 0116 0122     	        movs r2, # 0x01
 164 0118 1143     		orrs r1, r1, r2
 165 011a 8160     	        str r1, [r0, # 0x08]
 166              	_dengdaiadcwending:
 167 011c 0168     		ldr r1, [r0]
 168 011e C907     		lsls r1, r1, # 31
 169 0120 FCD5     		bpl _dengdaiadcwending @ 等ADC稳定
 170              	_tongdaoxuanze:
 171 0122 7149     		ldr r1, = 2
 172 0124 8162     	        str r1, [r0, # 0x28]    @ 通道选择寄存器 (ADC_CHSELR)
 173 0126 7149     	        ldr r1, = 0x803
 174 0128 C160     	        str r1, [r0, # 0x0c]    @ 配置寄存器 1 (ADC_CFGR1)
 175 012a 0021     		movs r1, # 0
 176 012c 4161     	        str r1, [r0, # 0x14]    @ ADC 采样时间寄存器 (ADC_SMPR)
 177 012e 8168     		ldr r1, [r0, # 0x08]
 178 0130 6F4A     	        ldr r2, = 0x04         @ 开始转换
 179 0132 1143     	        orrs r1, r1, r2
 180 0134 8160     		str r1, [r0, # 0x08]    @ 控制寄存器 (ADC_CR)
 181              	
 182              	
 183              		
 184              	dmachushihua:
 185              	        @+0=LSR,+4=IFCR,
 186              	        @+8=CCR1,+c=CNDTR1,+10=CPAR1+14=CMAR1,
 187              	        @+1c=CCR2,+20=CNDTR2,+24=CPAR2,+28=CMAR2
 188              	        @+30=CCR3,+34=CNDTR3,+38=CPAR2,+3c=CMAR3
 189              	        @+44=CCR4,+48=CNDTR4,+4c=CPAR4,+50=CMAR4
 190              	        @+58=CCR5,+5c=CNDTR5,+60=CPAR5,+64=CMAR5
 191              	        @+6C=CCR6,+70=CNDTR6,+74=CPAR6,+78=CMAR6
 192              	        @+80=CCR7,+84=CNDTR7,+88=CPAR7,+8c=CMAR7
 193              	
 194              	        @tim1ch3DMA
 195 0136 6F48     	        ldr r0, = 0x40020000
 196 0138 6F49     	        ldr r1, = 0x40012c3c @ 外设地址
 197 013a 0166     	        str r1, [r0, # 0x60]
 198 013c 6F49     	        ldr r1, = zheng_xian_biao @ 储存器地址
 199 013e 4166     	        str r1, [r0, # 0x64]
 200 0140 6F49     	        ldr r1, = 100             @点数
 201 0142 C165     	        str r1, [r0, # 0x5c]
 202 0144 6F49     	        ldr r1, = 0x35b1         @ 储存到外设
 203 0146 8165     	        str r1, [r0, # 0x58]
 204              		@ adc dma
 205 0148 6A48     		ldr r0, = 0x40020000
 206 014a 6F49     		ldr r1, = 0x40012440
 207 014c 0161     		str r1, [r0, # 0x10]
 208 014e 6F49     		ldr r1, = dianyabiao
 209 0150 4161     		str r1, [r0, # 0x14]
 210 0152 6B49     		ldr r1, =  100
 211 0154 C160     		str r1, [r0, # 0x0c]
 212 0156 6E49     		ldr r1, = 0x5a1		@ 5a1
 213 0158 8160     		str r1, [r0, # 0x08]
 214              	
 215              		
 216              	tim1chushiha:
 217 015a 6E48     	        ldr r0, = 0x40012c00 @ tim1_cr1
 218 015c 0021     	        movs r1, # 0
 219 015e 8162     	        str r1, [r0, # 0x28] @ psc
ARM GAS  1.s 			page 5


 220 0160 6D49     	        ldr r1, = 47
 221 0162 C162     	        str r1, [r0, # 0x2c] @ ARR
 222              		@	movs r1, # 0x40
 223 0164 2021     		movs r1, # 0x20
 224 0166 4160     		str r1, [r0, # 0x04] @ TRGO
 225 0168 3821     		movs r1, # 0x38
 226 016a 8161     		str r1, [r0, # 0x18] @ ccmr1 cc1
 227 016c 2F21     		movs r1, # 47
 228 016e 4163     		str r1, [r0, # 0x34]
 229 0170 6A49     	        ldr r1, = 0x68
 230 0172 C161     	        str r1, [r0, # 0x1c] @ ccmr2  CC3
 231 0174 6A49     	        ldr r1, = 0x400    @  CC3
 232 0176 0162     	        str r1, [r0, # 0x20] @ ccer
 233 0178 6A49     	        ldr r1, = 0x8000
 234 017a 4164     	        str r1, [r0, # 0x44] @ BDTR
 235 017c 6A49     	        ldr r1, = 0x800 @ CC3 DMA
 236 017e C160     	        str r1, [r0, # 0x0c] @ DIER
 237 0180 6A49     	        ldr r1, = 0x81
 238 0182 0160     	        str r1, [r0]
 239              	
 240              		
 241 0184 6A4D     		ldr r5, = 0
 242 0186 6B4E     		ldr r6, = 9999
 243              	_tingting:
 244 0188 6048     		ldr r0, = dianyabiao
 245 018a 0368     		ldr r3, [r0]
 246 018c 6A48     		ldr r0, = lvboqihuanchong
 247 018e 6B49     		ldr r1, = 128
 248 0190 6B4A     		ldr r2, = lvboqizhizhen
 249 0192 00F061F8 		bl _lvboqi
 250 0196 0421     		movs r1, # 4
 251 0198 494A     	        ldr r2, = shumaguanma
 252 019a 00F029F8 	        bl _zhuanshumaguanma
 253 019e 00F001F8 	        bl _xieshumaguan
 254 01a2 F1E7     		b _tingting
 255              		
 256              	_xieshumaguan:			@ r0=4位10进制数
 257 01a4 FFB5     		push {r0-r7,lr}
 258 01a6 464A     		ldr r2, = shumaguanma
 259 01a8 664F     		ldr r7, = 0xfff
 260 01aa 494C     		ldr r4, = 0x48000000
 261 01ac 4B4D     		ldr r5, = 0x48001400
 262 01ae 664E     		ldr r6, = 0x200
 263 01b0 1168     		ldr r1, [r2]
 264 01b2 A661     		str r6, [r4, # 0x18]
 265 01b4 2175     		strb r1, [r4, # 0x14]
 266              	_shumaguanyanshi:	
 267 01b6 013F     		subs r7, r7, # 1
 268 01b8 FDD1     		bne _shumaguanyanshi
 269 01ba A662     		str r6, [r4, # 0x28]
 270 01bc 7600     		lsls r6, r6, # 1
 271 01be 614F     		ldr r7, = 0xfff
 272 01c0 5168     		ldr r1, [r2, # 0x04]
 273 01c2 A661     		str r6, [r4, # 0x18]
 274 01c4 2175     		strb r1, [r4, # 0x14]
 275 01c6 614E     		ldr r6, = 0x600
 276              	_shumaguanyanshi1:	
ARM GAS  1.s 			page 6


 277 01c8 013F     		subs r7, r7, # 1
 278 01ca FDD1     		bne _shumaguanyanshi1
 279 01cc A662     		str  r6, [r4, # 0x28]
 280 01ce 0226     		movs r6, # 0x02
 281 01d0 5C4F     		ldr r7, = 0xfff
 282 01d2 9168     		ldr r1, [r2, # 0x08]
 283 01d4 6E61     		str r6, [r5, # 0x14]
 284 01d6 2175     		strb r1, [r4, # 0x14]
 285              	_shumaguanyanshi2:	
 286 01d8 013F     		subs r7, r7, # 1
 287 01da FDD1     		bne _shumaguanyanshi2
 288 01dc 0126     		movs r6, # 0x01
 289 01de 594F     		ldr r7, = 0xfff
 290 01e0 D168     		ldr r1, [r2, # 0x0c]
 291 01e2 6E61     		str r6, [r5, # 0x14]
 292 01e4 2175     		strb r1, [r4, # 0x14]
 293              	_shumaguanyanshi3:
 294 01e6 013F     		subs r7,  r7, # 1
 295 01e8 FDD1     		bne _shumaguanyanshi3
 296 01ea 0023     		movs r3, # 0
 297 01ec 6B61     		str r3, [r5, # 0x14]
 298 01ee FFBD     		pop {r0-r7,pc}
 299              		
 300              	_zhuanshumaguanma:			@ 16进制转数码管码
 301              			@ R0要转的数据， R1长度，R2结果表首地址
 302 01f0 FFB5     		push {r0-r7,lr}
 303 01f2 574F     		ldr r7, = shumaguanmabiao
 304 01f4 0546     		mov r5, r0
 305 01f6 0E46     		mov r6, r1
 306 01f8 0A21     		movs r1, # 10
 307              	_xunhuanqiuma:
 308 01fa 00F041F8 		bl _chufa
 309 01fe 0446     		mov r4, r0
 310 0200 4C43     		muls r4, r1
 311 0202 2B1B     		subs r3, r5, r4
 312 0204 9B00     		lsls r3, # 2
 313 0206 FC58     		ldr r4, [r7, r3]
 314 0208 1460     		str r4, [r2]
 315 020a 0546     		mov r5, r0
 316 020c 0432     		adds r2, r2, # 4
 317 020e 013E     		subs r6, # 1
 318 0210 F3D1     		bne _xunhuanqiuma
 319 0212 FFBD     		pop {r0-r7,pc}
 320              	
 321              	
 322              	__ji_suan_fu_du:    @ 计算幅度
 323              	                @ 入r0= 实部，r1= 虚部
 324              	                @ 出r0 = 幅度
 325              	                @ Mag ~=Alpha * max(|I|, |Q|) + Beta * min(|I|, |Q|)
 326              	                @ Alpha * Max + Beta * Min
 327 0214 0EB5     	        push {r1-r3,lr}
 328 0216 0000     	        movs r0, r0
 329 0218 01D5     	        bpl _shibubushifushu
 330 021a C043     	        mvns r0, r0                             @ 是负数转成正数
 331 021c 0130     	        adds r0, r0, # 1
 332              	_shibubushifushu:                               @ 实部不是负数
 333 021e 0900     	        movs r1, r1
ARM GAS  1.s 			page 7


 334 0220 01D5     	        bpl _xububushifushu
 335 0222 C943     	        mvns r1, r1                             @ 是负数转成正数
 336 0224 0131     	        adds r1, r1, # 1
 337              	_xububushifushu:                                @ 虚部不是负数
 338 0226 0028     	        cmp r0, # 0
 339 0228 01D1     	        bne _panduanxubushibushi0
 340 022a 0846     	        mov r0, r1
 341 022c 0EBD     	        pop {r1-r3,pc}
 342              	_panduanxubushibushi0:	
 343 022e 0029     		cmp r1, # 0
 344 0230 00D1     		bne _jisuanfudu1
 345 0232 0EBD     		pop {r1-r3,pc}
 346              	_jisuanfudu1:
 347 0234 474A     		ldr r2, = 31066		@ Alpha q15 0.948059448969
 348 0236 484B     		ldr r3, = 12867		@ Beta q15 0.392699081699
 349 0238 8142     		cmp r1, r0
 350 023a 06D8     		bhi _alpha_min_beta_max
 351              	_alpha_max_beta_min:
 352 023c 5043     		muls r0, r0, r2
 353 023e 5943     		muls r1, r1, r3
 354 0240 C013     		asrs r0, r0, # 15
 355 0242 C913     		asrs r1, r1, # 15
 356 0244 4018     		adds r0, r0, r1
 357 0246 0121     		movs r1, # 1
 358 0248 0EBD     		pop {r1-r3,pc}
 359              	_alpha_min_beta_max:
 360 024a 5843     		muls r0, r0, r3
 361 024c 5143     		muls r1, r1, r2
 362 024e C013     		asrs r0, r0, # 15
 363 0250 C913     		asrs r1, r1, # 15
 364 0252 4018     		adds r0, r0, r1
 365 0254 0021     		movs r1, # 0
 366 0256 0EBD     		pop {r1-r3,pc}
 367              	_lvboqi:
 368              				@滤波器
 369              				@R0=地址，R1=长度,r2=表指针地址,r3=ADC数值
 370              				@出R0=结果
 371 0258 FEB5     		push {r1-r7,lr}	
 372 025a 1568     		ldr r5, [r2]		@读出表指针
 373 025c 8E00     		lsls r6, r1, # 2	
 374 025e 4351     		str r3, [r0, r5]	@数值写到滤波器缓冲区
 375 0260 0435     		adds r5, r5, # 4
 376 0262 B542     		cmp r5, r6
 377 0264 00D1     		bne _lvboqimeidaohuanchongquding
 378 0266 0025     		movs r5, # 0
 379              	_lvboqimeidaohuanchongquding:
 380 0268 1560     		str r5, [r2]
 381 026a 0027     		movs r7, # 0
 382              	_lvboqixunhuan:
 383 026c B542     		cmp r5, r6
 384 026e 00D1     		bne _lvbozonghe
 385 0270 0025     		movs r5, # 0
 386              	_lvbozonghe:
 387 0272 4459     		ldr r4, [r0, r5]
 388 0274 0435     		adds r5, r5, # 4
 389 0276 3F19     		adds r7, r7, r4
 390 0278 0139     		subs r1, r1, # 1
ARM GAS  1.s 			page 8


 391 027a F7D1     		bne _lvboqixunhuan
 392 027c F811     		asrs r0, r7, # 7	@修改
 393 027e FEBD     		pop {r1-r7,pc}
 394              	_chufa:				@软件除法
 395              		@ r0 除以 r1 等于 商(r0)余数R1
 396 0280 1EB5     		push {r1-r4,lr}
 397 0282 0028     		cmp r0, # 0
 398 0284 0ED0     		beq _chufafanhui
 399 0286 0029     		cmp r1, # 0
 400 0288 0CD0     		beq _chufafanhui
 401 028a 0246     		mov r2, r0
 402 028c 0123     		movs r3, # 1
 403 028e DB07     		lsls r3, r3, # 31
 404 0290 0020     		movs r0, # 0
 405 0292 0446     		mov r4, r0
 406              	_chufaxunhuan:
 407 0294 5200     		lsls r2, r2, # 1
 408 0296 6441     		adcs r4, r4, r4
 409 0298 8C42     		cmp r4, r1
 410 029a 01D3     		bcc _chufaweishubudao0
 411 029c C018     		adds r0, r0, r3
 412 029e 641A     		subs r4, r4, r1
 413              	_chufaweishubudao0:
 414 02a0 5B08     		lsrs r3, r3, # 1
 415 02a2 F7D1     		bne _chufaxunhuan
 416              	_chufafanhui:
 417 02a4 1EBD     		pop {r1-r4,pc}
 418              	_nmi_handler:
 419 02a6 7047     		bx lr
 420              	_hard_fault:
 421 02a8 7047     		bx lr
 422              	_svc_handler:
 423 02aa 7047     		bx lr
 424              	_pendsv_handler:
 425 02ac 7047     		bx lr
 426              	_systickzhongduan:
 427              	aaa:
 428 02ae 7047     		bx lr
 429              	
 430 02b0 00100240 	
 430      00200240 
 430      02001000 
 430      01000001 
 430      00000020 
ARM GAS  1.s 			page 9


DEFINED SYMBOLS
                 1.s:5      .data:0000000000000000 zheng_xian_biao
                 1.s:7      .data:00000000000000ca $d
                 1.s:8      .data:00000000000000d0 shumaguanmabiao
                 1.s:11     *ABS*:0000000020001000 STACKINIT
                 1.s:12     *ABS*:0000000020000000 shumaguanma
                 1.s:13     *ABS*:0000000020000100 dianyabiao
                 1.s:14     *ABS*:0000000020000600 lvboqizhizhen
                 1.s:15     *ABS*:0000000020000604 lvboqihuanchong
                 1.s:17     .text:0000000000000000 vectors
                 1.s:62     .text:00000000000000b0 _start
                 1.s:418    .text:00000000000002a6 _nmi_handler
                 1.s:420    .text:00000000000002a8 _hard_fault
                 1.s:422    .text:00000000000002aa _svc_handler
                 1.s:424    .text:00000000000002ac _pendsv_handler
                 1.s:426    .text:00000000000002ae _systickzhongduan
                 1.s:427    .text:00000000000002ae aaa
                 1.s:63     .text:00000000000000b0 shizhong
                            .text:0000000000000000 $d
                 1.s:64     .text:00000000000000b0 $t
                 1.s:73     .text:00000000000000c2 dengrc
                 1.s:77     .text:00000000000000c8 dengpll
                 1.s:84     .text:00000000000000d2 dengdai14mshizhongwending
                 1.s:89     .text:00000000000000d8 neicunqingling
                 1.s:93     .text:00000000000000de neicunqinglingxunhuan
                 1.s:98     .text:00000000000000e4 _waisheshizhong
                 1.s:115    .text:00000000000000ee io_she_zhi
                 1.s:153    .text:0000000000000108 _adcchushihua
                 1.s:157    .text:000000000000010e _dengadcjiaozhun
                 1.s:161    .text:0000000000000114 _kaiadc
                 1.s:166    .text:000000000000011c _dengdaiadcwending
                 1.s:170    .text:0000000000000122 _tongdaoxuanze
                 1.s:184    .text:0000000000000136 dmachushihua
                 1.s:216    .text:000000000000015a tim1chushiha
                 1.s:243    .text:0000000000000188 _tingting
                 1.s:367    .text:0000000000000258 _lvboqi
                 1.s:300    .text:00000000000001f0 _zhuanshumaguanma
                 1.s:256    .text:00000000000001a4 _xieshumaguan
                 1.s:266    .text:00000000000001b6 _shumaguanyanshi
                 1.s:276    .text:00000000000001c8 _shumaguanyanshi1
                 1.s:285    .text:00000000000001d8 _shumaguanyanshi2
                 1.s:293    .text:00000000000001e6 _shumaguanyanshi3
                 1.s:307    .text:00000000000001fa _xunhuanqiuma
                 1.s:394    .text:0000000000000280 _chufa
                 1.s:322    .text:0000000000000214 __ji_suan_fu_du
                 1.s:332    .text:000000000000021e _shibubushifushu
                 1.s:337    .text:0000000000000226 _xububushifushu
                 1.s:342    .text:000000000000022e _panduanxubushibushi0
                 1.s:346    .text:0000000000000234 _jisuanfudu1
                 1.s:359    .text:000000000000024a _alpha_min_beta_max
                 1.s:351    .text:000000000000023c _alpha_max_beta_min
                 1.s:379    .text:0000000000000268 _lvboqimeidaohuanchongquding
                 1.s:382    .text:000000000000026c _lvboqixunhuan
                 1.s:386    .text:0000000000000272 _lvbozonghe
                 1.s:416    .text:00000000000002a4 _chufafanhui
                 1.s:406    .text:0000000000000294 _chufaxunhuan
                 1.s:413    .text:00000000000002a0 _chufaweishubudao0
ARM GAS  1.s 			page 10


                 1.s:430    .text:00000000000002b0 $d

NO UNDEFINED SYMBOLS
