ARM GAS  1.s 			page 1


   1              		 .thumb                 
   2              	         .syntax unified
   3              	.section .data
   4              		.align 4
   5              		
   6 0000 039F250D 	shumaguanmabiao: .byte 0x03,0x9f,0x25,0x0d,0x99,0x49,0x41,0x1f,0x01,0x09
   6      9949411F 
   6      0109
   7 000a 00FF45BA 	hongwaimabiao: .int 0xba45ff00,0xb946ff00,0xb847ff00,0xbb44ff00,0xbf40ff00,0xbc43ff00,0xf807ff00,0x
   7      00FF46B9 
   7      00FF47B8 
   7      00FF44BB 
   7      00FF40BF 
   8 005a 40201008 	shuaxinbiao: .byte 0x40,0x20,0x10,0x08,0x40,0x20,0x10,0x08
   8      40201008 
   9              		
  10 0062 4D020000 	caidian: .word zhucaidan +1,dd1 +1,dd2 +1,dd3 +1,dd4 +1,dd5 +1,dd6 +1,dd7 +1,dd8 +1,dd9 +1,dd10 +1,
  10      83020000 
  10      89020000 
  10      8F020000 
  10      A9020000 
  11              		
  12              	        	.equ STACKINIT,          0x20005000
  13              			.equ systickbiaozhi,     0x20000300
  14              	.section .text
  15              	xiangliangbiao:
  16 0000 00500020 		.word STACKINIT
  17 0004 0D010000 		.word _start + 1
  18 0008 61040000 		.word _nmi_handler + 1
  19 000c 63040000 		.word _hard_fault  + 1
  20 0010 65040000 		.word _memory_fault + 1
  21 0014 67040000 		.word _bus_fault + 1
  22 0018 69040000 		.word _usage_fault + 1
  23 001c 00000000 		.word 0
  24 0020 00000000 		.word 0
  25 0024 00000000 		.word 0
  26 0028 00000000 		.word 0
  27 002c 00000000 		.word 0
  28 0030 00000000 		.word 0
  29 0034 00000000 		.word 0
  30 0038 00000000 		.word 0
  31 003c 6B040000 		.word systickdingshiqi +1
  32 0040 00000000 		.word	0 @WWDG  	0
  33 0044 00000000 		.word	0 @PVD  	1
  34 0048 00000000 		.word	0 @TAMPER	2
  35 004c 00000000 		.word	0 @RTC		3
  36 0050 00000000 		.word	0 @FLASH	4
  37 0054 00000000 		.word	0 @RCC		5
  38 0058 00000000 		.word	0 @EXTI0	6
  39 005c 00000000 		.word	0 @EXTI1	7
  40 0060 00000000 		.word	0 @EXTI2	8
  41 0064 00000000 		.word	0 @EXTI3	9
  42 0068 00000000 		.word	0 @EXTI4	10
  43 006c 00000000 		.word	0 @DMA11	11
  44 0070 00000000 		.word	0 @DMA12	12
  45 0074 00000000 		.word	0 @DMA13	13
  46 0078 00000000 		.word	0 @DMA14	14
ARM GAS  1.s 			page 2


  47 007c 00000000 		.word	0 @DMA15	15
  48 0080 00000000 		.word	0 @DMA16	16
  49 0084 00000000 		.word	0 @DMA17	17
  50 0088 00000000 		.word	0 @ADC1_2 	18
  51 008c 00000000 		.word	0 @USB_HP_CAN1_TX 19
  52 0090 00000000 		.word	0 @USB_LP_CAN1_RX0 20
  53 0094 00000000 		.word	0 @CAN1_RX1	21
  54 0098 00000000 		.word	0 @CAN1_SCE	22
  55 009c 00000000 		.word	0 @EXTI9_5	23
  56 00a0 00000000 		.word	0 @TIM1_BRK	24
  57 00a4 00000000 		.word	0 @TIM1_UP	25
  58 00a8 00000000 		.word	0 @TIM1_TRG_COM	26
  59 00ac 00000000 		.word	0 @TIM1_CC	27
  60 00b0 9F040000 		.word	tim2dingshiqi +1  @TIM2 28
  61 00b4 00000000 		.word	0 @TIM3		29
  62 00b8 00000000 		.word	0 @TIM4		30
  63 00bc 00000000 		.word	0 @I2C1_EV	31
  64 00c0 00000000 		.word	0 @I2C1_ER	32
  65 00c4 00000000 		.word	0 @I2C2_EV	33
  66 00c8 00000000 		.word	0 @I2C2_ER	34
  67 00cc 00000000 		.word	0 @SPI1		35
  68 00d0 00000000 		.word	0 @SPI2		36
  69 00d4 00000000 		.word	0 @USART1	37
  70 00d8 00000000 		.word	0 @USART2	38
  71 00dc 00000000 		.word	0 @USART3	39
  72 00e0 00000000 		.word	0 @EXTI15_10	40
  73 00e4 00000000 		.word	0 @RTCAlarm_IRQ	41
  74 00e8 00000000 		.word	0 @USBWakeUp	42
  75 00ec 00000000 		.word	0	
  76 00f0 00000000 		.word	0	
  77 00f4 00000000 		.word	0
  78 00f8 00000000 		.word	0
  79 00fc 00000000 		.word	0
  80 0100 00000000 		.word	0
  81 0104 00000000 		.word	0
  82 0108 00000000 		.word	0 @BootRAM   
  83              	_start:
  84 010c F948     		ldr r0, = 0x40010004
  85 010e 4FF00071 		ldr r1, = 0x02000000
  86 0112 0160     		str r1, [r0]
  87              	
  88 0114 4160     		str r1, [r0, # 0x04]
  89 0116 F848     		ldr r0, = 0x40021000
  90 0118 F849     		ldr r1, = 0x14D83
  91 011a 0160     		str r1, [r0]
  92              	gsszbz: 
  93 011c 0268     		ldr r2, [r0]
  94 011e 4FF40031 		ldr r1, = 0x20000
  95 0122 1142     		tst r1, r2           @HSE高速时钟标志位           
  96 0124 00D1     		bne rccchushihua
  97 0126 F9E7     		b gsszbz
  98              	rccchushihua: 
  99 0128 F548     		ldr r0, = 0x40022000
 100 012a 4FF03201 		mov r1, # 0x00000032
 101 012e 0160     		str r1, [r0]           @FLASH缓冲 缓冲开启 
 102 0130 F448     		ldr r0, = 0x40021004
 103 0132 F549     		ldr r1, = 0x1D8400
ARM GAS  1.s 			page 3


 104 0134 0160     		str r1, [r0]
 105 0136 F048     		ldr r0, = 0x40021000
 106 0138 F449     		ldr r1, = 0x1033D03
 107 013a 0160     		str r1, [r0]
 108              	chaxun:
 109 013c 0268     		ldr r2, [r0]
 110 013e 4FF00071 		ldr r1, = 0x2000000
 111 0142 1142     		tst r1, r2
 112 0144 00D1     		bne rccgg               @等待PLL稳定
 113 0146 F9E7     		b chaxun
 114              	rccgg:
 115 0148 EE48     		ldr r0, = 0x40021004
 116 014a F149     		ldr r1, = 0x1D8402
 117 014c 0160     		str r1, [r0]            @ PLL作为系统时钟
 118              	
 119 014e E948     		ldr r0, = 0x40010004
 120 0150 4FF00071 		ldr r1, = 0x02000000
 121 0154 0160     		str r1, [r0]
 122              	
 123              	neicunqingling:                  @ 无聊把内存清0
 124 0156 4FF00050 		ldr r0, = 0x20000000
 125 015a 44F6FF72 		ldr r2, = 0x4fff         @ 区域是0X4FFF大的地方
 126 015e 4FF00001 		mov r1, # 0              @ 写0
 127              	qingling_xunhuan:                
 128 0162 40F8041B 		str r1, [r0], 4         
 129 0166 013A     		subs r2, # 1
 130 0168 FBD1     		bne qingling_xunhuan     @ 循环清0
 131              	
 132              	chushihuayixieshuju:	 @初始化一些数据
 133 016a EA48     		ldr r0, = 0x200004fc
 134 016c EA49     		ldr r1, = 0x2200a000
 135 016e 0160     		str r1, [r0]
 136 0170 EA48     		ldr r0, = 0x2000001c
 137 0172 6FF07F41 		ldr r1, = 0xffffff
 138 0176 0160     		str r1, [r0]
 139 0178 E94D     		ldr r5, = 0x20000024 @ 22000480
 140 017a EA49     		ldr r1, = 0x00110001
 141 017c 4FF00112 		ldr r2, = 0x00010001
 142 0180 E94B     		ldr r3, = 0x00010101
 143 0182 2960     		str r1, [r5]
 144 0184 6A60     		str r2, [r5, # 4]
 145 0186 AB60     		str r3, [r5, # 8]
 146              		
 147              		@ dma
 148 0188 E848     		ldr r0, = 0x20000600
 149 018a 4FF4FA71 		ldr r1, = 500
 150 018e 0160     		str r1, [r0]
 151              	systick:
 152              		@0xe000e010 SYSTICK控制状态寄存器
 153              		@0=定时器使能
 154              		@1=（1倒数到0发出异常请，0无动作）
 155              		@2=（0外部始终1内核时钟）
 156              		@16= 如果赏赐读取本寄存器后SYSTICK已经数到0则该位为1如果读取该位则清0
 157              		@0xe000e014 重载值寄存器 数到0将要被重载的值
 158              		@0xe000e018 当前值，写清0
 159              		@0e000e01c
 160              		@0-23 10MS的时间内倒计数的格数
ARM GAS  1.s 			page 4


 161              		@ 30=(1教准不是准确的10MS)（0教准是准确的10MS）
 162 0190 E748     		ldr r0, = 0xe000e010
 163 0192 4FF00001 		mov r1, # 0               
 164 0196 0160     		str r1, [r0]            @ 关掉SYSTICK
 165 0198 42F22831 		ldr r1, = 9000      @ 重载数
 166 019c 4160     		str r1, [r0, # 4]       @ 写进重载数
 167 019e 8160     		str r1, [r0, # 8]       @ 清0当前数          
 168 01a0 E44B     		ldr r3, = 0xe000ed23  @systick优先级
 169 01a2 4FF0F001 		mov r1, # 240
 170 01a6 1960     		str r1, [r3]
 171 01a8 4FF00001 		mov r1, # 0
 172 01ac 0160     		str r1, [r0] @ 开定时器
 173              		
 174              	waisheshizhong:
 175              	
 176              		@AHBENR=0x40021014
 177              		@0=DMA1,1=DMA2,2=SRAMEN,4=FLITFEN,6=CRCEN,8=FSMCEN,10=SDIOEN
 178 01ae E248     		ldr r0, = 0x40021014
 179 01b0 4FF01501 		mov r1, # 0x15
 180 01b4 0160     		str r1, [r0]
 181              		
 182              		@APB2_ENR=0X40021018 0(AFIO)1(保留)2(PA)3(PB)4(PC)5(PD)6(PE)78(保留)
 183              		@9(ADC1)10(ADC2)11(TIM1)12(SPI1)13(保留)14（USART1）15(保留)
 184 01b6 E148     		        ldr r0, = 0x40021018 @ APB2_ENR
 185 01b8 40F63C01 		        ldr r1, = 0x83c
 186 01bc 0160     		        str r1, [r0]
 187              		@APB1_ENR=0X4002101C
 188              		@0=TIM2,1=TIM3,2=TIM4,3=TIM5,4=TIM6,5=TIM7,11=WWDG
 189              		@14=SP12,15=SP13,17=UART3,19=UART4,20=UART5
 190              		@21=I2C,22=I2C2,23=USB,25=CAN,27=BKPT,28=PWR,29=DACEN
 191 01be E048     			ldr r0, = 0X4002101C @ APB1_ENR
 192 01c0 3F21     			ldr r1, = 0x3f
 193 01c2 0160     			str r1, [r0]
 194              		
 195              	zhongduankongzhi:
 196              		@SETENA0=0XE000E100,SETENA1=0XE000E104 @中断使能
 197              		@CLRENA0=0XE000E180,CLRENA1=0XE000E184 @中断除能
 198              		@SETPEND0=0XE000E200,SETPPEND1=0XE000E204 @中断悬起
 199              		@CLRPEND0=0XE000E280,CLRPEND1=0XE000E284  @中断解悬
 200              		@ACTIVE0=0XE000E300,ACTIVE1=0XE000E304   @ 中断活动状态
 201              		@0XE000E400-0XE000E43C 中断优先级阵列每个占8位
 202              		@0XE000ED00=CPUID，0XE000ED04=中断控制及状态寄存器
 203              		@0xe000ed08=向量表偏移，0xe000ed0c=应用程序中断及复位
 204              		@0xe000ed10=系统控制，0XE000ED14=配置与控制
 205              		@0xe000ed18-0xe000ed23=系统异常优先级阵列
 206 01c4 DF48     		ldr r0, = 0xe000ed0c
 207 01c6 E049     		ldr r1, = 0x5fa0500
 208 01c8 0160     		str r1, [r0]
 209 01ca E048     		ldr r0, = 0xe000e400
 210 01cc 4FF0C001 		mov r1, # 0xc0
 211 01d0 C161     		str r1, [r0, # 28]
 212 01d2 DF48     		ldr r0, = 0xe000e100 @ 中断使能
 213 01d4 4FF08051 		ldr r1, = 0x10000000
 214 01d8 0160     		str r1, [r0]
 215              	dmachushihua:
 216              		DMA1= 0x40020000
 217              		@+0=LSR,+4=IFCR,
ARM GAS  1.s 			page 5


 218              		@+8=CCR1,+c=CNDTR1,+10=CPAR1+14=CMAR1,
 219              		@+1c=CCR2,+20=CNDTR2,+24=CPAR2,+28=CMAR2
 220              		@+30=CCR3,+34=CNDTR3,+38=CPAR2,+3c=CMAR3
 221              		@+44=CCR4,+48=CNDTR4,+4c=CPAR4,+50=CMAR4
 222              		@+58=CCR5,+5c=CNDTR5,+60=CPAR5,+64=CMAR5
 223              		@+6C=CCR6,+70=CNDTR6,+74=CPAR6,+78=CMAR6
 224              		@+80=CCR7,+84=CNDTR7,+88=CPAR7,+8c=CMAR7
 225 01da DE48     		ldr r0, = 0x40020000
 226 01dc DE49     		ldr r1, = 0x40000834
 227 01de 0161     		str r1, [r0, # 0x10]
 228 01e0 D249     		ldr r1, = 0x20000600
 229 01e2 4161     		str r1, [r0, # 0x14]
 230 01e4 8F21     		ldr r1, = 0x8f
 231 01e6 C160     		str r1, [r0, # 0x0c]
 232 01e8 42F63121 		ldr r1, = 0x2a31
 233 01ec 8160     		str r1, [r0, # 0x8]
 234              		
 235              		
 236              	timdingshiqi:
 237              		@tim1=0x40012c00
 238              		@+0=CR1 控制寄存器
 239              		@+4=CR2 控制寄存器2
 240              		@+8=SMCR 从模式控制寄存器
 241              		@+c=DIER 中断使能寄存器
 242              		@+10=SR 状态寄存器
 243              		@+14=EGR 事件产生寄存器
 244              		@+18=CCMR1 捕获/比较模式寄存器1
 245              		@+1C=CCMR2 捕获/比较模式寄存器2
 246              		@+20=CCER 捕获/比较使能寄存器
 247              		@+24=CNT 计数器
 248              		@+28=PSC 预分频器
 249              		@+2C=ARR 重载寄存器
 250              		@+30=RCR 重复计数寄存器
 251              		@+34=CCR1 捕获/比较寄存器1
 252              		@+38=CCR2 捕获/比较寄存器2
 253              		@+3C=CCR3 捕获/比较寄存器3
 254              		@+40=CCR4 捕获/比较寄存器4
 255              		@+44=BDTR 刹车/死区寄存器
 256              		@+48=DCR DMA控制器
 257              		@+4C=DMAR 连续模式的DMA地址
 258              		@TIM2=0x40000000
 259              	@18=CCMR1,18=OCMR1,1C=CCMR2,1C=OCMR2
 260              	@CNT与CCR比较占空，ARR与PSC决定频率。主频除以PSC=计数频率
 261 01ee 4FF08040 		ldr r0, = 0x40000000 @ tim2
 262 01f2 4FF43471 		ldr r1, = 720
 263 01f6 8162     		str r1, [r0, # 0x28] @ 分频
 264 01f8 6FF07F41 		ldr r1, = 0xffffff
 265 01fc C162     		str r1, [r0, # 0x2c] @ 重载
 266 01fe 4FF00201 		mov r1, # 2
 267 0202 C160     		str r1, [r0, # 0x0c] @开中断
 268 0204 4FF0F101 		mov r1, # 0xf1
 269 0208 8161     		str r1, [r0, # 0x18] @ 捕获/比较模式
 270 020a 4FF00301 		mov r1, # 3
 271 020e 0162     		str r1, [r0, # 0x20] @ 下降沿捕获
 272 0210 8121     		ldr r1, = 0x81
 273 0212 0160     		str r1, [r0]
 274              	tim1dingshiqi:
ARM GAS  1.s 			page 6


 275 0214 D148     		ldr r0, = 0x40000800 @ TIM
 276 0216 4821     		ldr r1, = 72
 277 0218 8162     		str r1, [r0, # 0x28] @ PSC
 278 021a 4FF47A71 		ldr r1, =   1000
 279 021e C162     		str r1, [r0, # 0x2c] @ ARR
 280 0220 7821     		ldr r1, = 0x78
 281 0222 8161     		str r1, [r0, # 0x18] @ CCMR
 282 0224 0121     		        ldr r1, = 0x01
 283 0226 0162     		        str r1, [r0, # 0x20]
 284 0228 4FF40071 		ldr r1, = 0x200
 285 022c C160     		str r1, [r0, # 0x0c]
 286 022e 8121     		ldr r1, = 0x81
 287 0230 0160     		str r1, [r0]         @ cr1
 288              		
 289              	IOshezhi:
 290              		
 291              		@PA=0x40010800 PB=0x40010c00 PC=0x40011000 
 292              		@PD=0x40011400 PE=0x40011800 PF=0x40011c00 
 293              		@ IO 1(通用推挽10M)2(通用推挽2M)3(通用推挽50M)
 294              		@4(浮空输入)5(通用开漏输出10M)6(通用开漏输出2M)
 295              		@7(通用开漏输出50M)8(上拉下拉输入)9(复用功能推挽输出10M)
 296              		@A(复用功能推挽输出2M)B(复用功能推挽输出50M)C(保留)
 297              		@D(复用功能开溜输出10M)E(复用功能开漏输出2M)F(复用功能开漏输出50M)
 298              		@ 偏移0X8=IDR 输入数据寄存器
 299              		@偏移0XC=ODR 输出数据寄存器
 300              		@偏移0X10=BSRR IO开
 301              		@偏移0X14=BRR  IO关
 302 0232 CB48     		ldr r0, = 0x40010c00
 303 0234 4FF03331 		ldr r1, = 0x33333333
 304 0238 4160     		str r1, [r0, # 0x04]
 305 023a 4FF0BB31 		ldr r1, = 0xbbbbbbbb
 306 023e 0160     		str r1, [r0]
 307 0240 4FF6FF71 		ldr r1, = 0xffff
 308 0244 C160     		str r1, [r0, # 0x0c]
 309              	
 310 0246 C748     		ldr r0, = 0x40010800
 311 0248 C749     		ldr r1,	= 0x44444555
 312 024a 4160     		str r1, [r0, # 0x04]
 313              		
 314              	
 315              	zhucaidan:
 316 024c B848     		ldr r0, = 0xe000e010
 317 024e 4FF00001 		mov r1, # 0
 318 0252 0160     		str r1, [r0]
 319              		
 320 0254 00F0DFF8 		bl anjian
 321 0258 B44B     		ldr r3, = 0x20000600
 322 025a 1868     		ldr r0, [r3]
 323 025c 4FF00401 		mov r1, # 4
 324 0260 C24A     		ldr r2, = 0x20000100
 325 0262 1360     		str r3, [r2]
 326 0264 00F0AAF8 		bl zhuan_ascii
 327 0268 4FF00400 		mov r0, # 4
 328 026c 00F0E5F8 		bl xieshumaguan
 329              		
 330 0270 BF4B     		ldr r3, = 0x200004f8
 331 0272 1868     		ldr r0, [r3]
ARM GAS  1.s 			page 7


 332 0274 BF49     		ldr r1, = caidian
 333 0276 D1F800E0 		ldr lr, [r1]
 334 027a 4FEA8000 		lsl r0, # 2
 335 027e 0A58     		ldr r2, [r1, r0]
 336 0280 9746     		mov pc, r2
 337              	dd1:
 338 0282 4FF4807B 		ldr r11, = 0x100
 339 0286 7047     		bx lr
 340              		
 341              	dd2:
 342 0288 40F2011B 		ldr r11, = 0x101
 343 028c 7047     		bx lr
 344              	dd3:
 345 028e 2DE9FF47 		push {r0-r10,lr}
 346 0292 B94B     		ldr r3, = 0x20000020
 347 0294 1B68     		ldr r3, [r3]
 348 0296 B948     		ldr r0, = 0x20000014
 349 0298 C15C     		ldrb r1, [r0, r3]
 350 029a 01F10101 		add r1, # 1
 351 029e C154     		strb r1, [r0, r3]
 352 02a0 00F0B1F8 		bl qingchuanjian
 353 02a4 BDE8FF87 		pop {r0-r10,pc}
 354              	dd4:
 355 02a8 2DE9FF47 		push {r0-r10,lr}
 356 02ac B24D     		ldr r5, = 0x20000020
 357 02ae 2C68     		ldr r4, [r5]
 358 02b0 04F10104 		add r4, # 1
 359 02b4 082C     		cmp r4, # 8
 360 02b6 08BF     		it eq
 361 02b8 0024     		moveq r4, # 0
 362 02ba 2C60     		str r4, [r5]
 363 02bc 00F0A3F8 		bl qingchuanjian
 364 02c0 40F2031B 		ldr r11, = 0x103
 365 02c4 BDE8FF87 		pop {r0-r10,pc}
 366              		
 367              	dd5:
 368 02c8 4FF4827B 		ldr r11, = 0x104
 369 02cc 7047     		bx lr
 370              	dd6:
 371 02ce 40F2051B 		ldr r11, = 0x105
 372 02d2 7047     		bx lr
 373              	dd7:
 374 02d4 4FF4837B 		ldr r11, = 0x106
 375 02d8 7047     		bx lr
 376              	dd8:
 377 02da 40F2071B 		ldr r11, = 0x107
 378 02de 7047     		bx lr
 379              	dd9:
 380 02e0 4FF4847B 		ldr r11, = 0x108
 381 02e4 7047     		bx lr
 382              	dd10:
 383 02e6 40F2091B 		ldr r11, = 0x109
 384 02ea 7047     		bx lr
 385              	dd11:
 386 02ec 4FF4887B 		ldr r11, = 0x110
 387 02f0 7047     		bx lr
 388              	dd12:
ARM GAS  1.s 			page 8


 389 02f2 40F2111B 		ldr r11, = 0x111
 390 02f6 7047     		bx lr
 391              	dd13:
 392 02f8 4FF4897B 		ldr r11, = 0x112
 393 02fc 7047     		bx lr
 394              	dd14:
 395 02fe 7047     		bx lr
 396              	dd15:
 397 0300 4FF48A7B 		ldr r11, = 0x114
 398 0304 7047     		bx lr
 399              	dd16:
 400 0306 3FB5     		push {r0-r5,lr}
 401 0308 9D4A     		ldr r2, = 0x4000082c
 402 030a 1268     		ldr r2, [r2]
 403 030c 8748     		ldr r0, = 0x20000600
 404 030e 0168     		ldr r1, [r0]
 405 0310 01F10A01 		add r1, r1, # 10
 406 0314 9142     		cmp r1, r2
 407 0316 88BF     		it hi
 408 0318 1146     		movhi r1, r2
 409 031a 0160     		str r1, [r0]
 410 031c 4FF48C7B 		ldr r11, = 0x118
 411 0320 00F071F8 		bl qingchuanjian
 412 0324 3FBD     		pop {r0-r5,pc}
 413              	dd17:
 414 0326 4FF48B7B 		ldr r11, = 0x116
 415 032a 7047     		bx lr
 416              	dd18:
 417 032c 3FB5     		push {r0-r5,lr}
 418 032e 944A     		ldr r2, = 0x4000082c
 419 0330 1268     		ldr r2, [r2]
 420 0332 7E48     		ldr r0, = 0x20000600
 421 0334 0168     		ldr r1, [r0]
 422 0336 A1F10A01 		sub r1, r1, # 10
 423 033a 9142     		cmp r1, r2
 424 033c 88BF     		it hi
 425 033e 0021     		movhi r1, # 0
 426 0340 0160     		str r1, [r0]
 427 0342 4FF4907B 		ldr r11, = 0x120
 428 0346 00F05EF8 		bl qingchuanjian
 429 034a 3FBD     		pop {r0-r5,pc}
 430              	dd20:
 431 034c 7047     		bx lr
 432              	dd21:
 433 034e 4FF4907B 		ldr r11, = 0x120
 434 0352 7047     		bx lr
 435              	dd19:
 436 0354 7648     		ldr r0, = 0xe000e010
 437 0356 4FF00301 		mov r1, # 3
 438 035a 0160     		str r1, [r0]
 439              	zhuye:
 440 035c 00F05BF8 		bl anjian
 441 0360 834A     		ldr r2, = 0x200004f8
 442 0362 1268     		ldr r2, [r2]
 443 0364 152A     		cmp r2, # 21
 444 0366 3FF471AF 		beq zhucaidan
 445 036a 844A     		ldr r2, = 0x20000014
ARM GAS  1.s 			page 9


 446 036c 1068     		ldr r0, [r2]
 447 036e 4FF00401 		mov r1, # 4
 448 0372 7E4A     		ldr r2, = 0x20000100
 449 0374 00F022F8 		bl zhuan_ascii
 450 0378 4FF00400 		mov r0, # 4
 451 037c 00F05DF8 		bl xieshumaguan
 452 0380 ECE7     		b zhuye
 453              	
 454              	zhuan_shijinzhi:   @ R0=要转换的数的地址
 455 0382 2DE9FF43 		push {r0-r9,lr}
 456 0386 EC46     		mov r12, sp
 457 0388 81B0     		sub sp, # 0x04	
 458 038a 90F80080 		ldrb r8, [r0]
 459 038e 4278     		ldrb r2, [r0, # 1]
 460 0390 8378     		ldrb r3, [r0, # 2]
 461 0392 C478     		ldrb r4, [r0, # 3]
 462 0394 4FF06405 		mov r5, # 100
 463 0398 02FB05F9 		mul r9, r2, r5
 464 039c 42F21075 		movw r5, # 10000
 465 03a0 03FB05F7 		mul r7, r3, r5
 466 03a4 774D     		ldr r5, = 1000000
 467 03a6 04FB05F6 		mul r6, r4, r5
 468 03aa C844     		add r8, r8, r9
 469 03ac 07EB0802 		add r2, r7, r8
 470 03b0 02EB0601 		add r1, r2, r6
 471 03b4 0091     		str r1, [sp]
 472 03b6 E546     		mov sp, r12
 473 03b8 BDE8FF83 		pop {r0-r9,pc}
 474              	zhuan_ascii: @ 入口R0=数据 R1= 长度 R2=出口
 475 03bc FFB5     		push {r0-r7,lr}
 476 03be 724F     		ldr r7, = shumaguanmabiao
 477 03c0 4FF00A05 		mov r5, # 10
 478              	xunhuanqiuma:
 479 03c4 B0FBF5F4 		udiv r4, r0, r5
 480 03c8 04FB05F6 		mul r6, r4, r5
 481 03cc A0EB0603 		sub r3, r0, r6
 482 03d0 FE5C     		ldrb r6, [r7, r3]
 483 03d2 02F8016B 		strb r6, [r2], # 1
 484 03d6 2046     		mov r0, r4
 485 03d8 0139     		subs r1, # 1
 486 03da F3D1     		bne xunhuanqiuma
 487 03dc FFBD     		pop {r0-r7,pc}
 488              	
 489              	xie595:    @ 入口0X20000000
 490              		
 491              		@74HC595 11=输入锁存 12=输出锁存 14=数据
 492 03de 3FB5     		push {r0-r5,lr}
 493 03e0 6A48     		ldr r0, =  0x422101a0 @ 位带地址  
 494 03e2 4FF00101 		mov r1, # 1       @ 1
 495 03e6 4FF00002 		mov r2, # 0          @ 0
 496 03ea 4FF00853 		ldr r3, = 0x22000000 @ 0x20000000的位带
 497 03ee 4FF01004 		mov r4, # 16         @ 写两个8位
 498              	xunhuan595:
 499 03f2 8260     		str r2, [r0, # 0x08] @ 595_11 输入锁存
 500 03f4 53F8045B 		ldr r5, [r3], # 4    @ 取出一位的数据
 501 03f8 0560     		str r5, [r0]         @14脚输出数据
 502 03fa 8160     		str r1, [r0, # 0x08] @ 锁存
ARM GAS  1.s 			page 10


 503 03fc 013C     		subs r4, # 1         
 504 03fe F8D1     		bne xunhuan595       @循环16次
 505 0400 4260     		str r2, [r0, # 0x04] @ 12输出锁存
 506 0402 4160     		str r1, [r0, # 0x04] 
 507 0404 3FBD     		pop {r0-r5,pc}      @ 弹出各寄存器返回
 508              		
 509              	qingchuanjian:
 510 0406 03B5     		push {r0-r1,lr}
 511 0408 5948     		ldr r0, = 0x200004f8
 512 040a 4FF00001 		mov r1, # 0
 513 040e 0160     		str r1, [r0]
 514 0410 5F48     		ldr r0, = 0x20000500
 515 0412 0160     		str r1, [r0]
 516 0414 03BD     		pop {r0-r1,pc}
 517              	anjian:
 518 0416 2DE9FF5F 		push {r0-r12,lr}
 519 041a 5D4B     		ldr r3, = 0x20000500
 520 041c 5D4D     		ldr r5, = hongwaimabiao
 521 041e 4FF01506 		mov r6, # 21        @ 按键数量
 522              	panduananjian:
 523 0422 55F8044B 		ldr r4, [r5], # 4
 524 0426 1A68     		ldr r2, [r3]
 525 0428 A242     		cmp r2, r4
 526 042a 02D0     		beq anjianzhengque
 527 042c 013E     		subs r6, # 1
 528 042e F8D1     		bne panduananjian
 529 0430 01E0     		b anjianfanhui
 530              	anjianzhengque:
 531 0432 4F4A     		ldr r2, = 0x200004f8
 532 0434 1660     		str r6, [r2]
 533              		
 534              	anjianfanhui:
 535 0436 BDE8FF9F 		pop {r0-r12,pc}
 536              	xieshumaguan: @ r0位数
 537 043a 2DE9FF5F 		push {r0-r12,lr}
 538 043e 4B4F     		ldr r7, = 0x20000100
 539 0440 DFF85481 		ldr r8, = shuaxinbiao
 540 0444 4FF00056 		ldr r6, = 0x20000000
 541              	
 542              	xianshi:
 543 0448 18F8015B 		ldrb r5, [r8], # 1
 544 044c 17F8012B 		ldrb r2, [r7], # 1
 545 0450 3570     		strb r5, [r6]
 546 0452 7270     		strb r2, [r6, # 0x01]
 547 0454 FFF7C3FF 		bl xie595
 548 0458 0138     		subs r0, # 1
 549 045a F5D1     		bne xianshi
 550 045c BDE8FF9F 		pop {r0-r12,pc}
 551              		
 552              	_nmi_handler:
 553 0460 7047     		bx lr
 554              	_hard_fault:
 555 0462 7047     		bx lr
 556              	_memory_fault:
 557 0464 7047     		bx lr
 558              	_bus_fault:
 559 0466 7047     		bx lr
ARM GAS  1.s 			page 11


 560              	_usage_fault:
 561 0468 7047     	 	bx lr
 562              	systickdingshiqi:	              @ SYSTICK定时期中断服务函数
 563 046a 2DE9FF5F 		push {r0-r12,lr}
 564 046e 4B48     		ldr r0, = 0xe000ed04
 565 0470 4FF00071 		ldr r1, = 0x2000000
 566 0474 0160     		str r1, [r0]         @ 挂起SYSTICK
 567 0476 4A4A     		ldr r2, = 0x20000010
 568 0478 404C     		ldr r4, = 0x20000014
 569 047a 2368     		ldr r3, [r4]
 570 047c 1168     		ldr r1, [r2]
 571 047e 01F10101 		add r1, # 1
 572 0482 B1F57A7F 		cmp.w r1, # 1000
 573 0486 24BF     		itt cs
 574 0488 0021     		movcs r1, # 0
 575 048a 0133     		addcs r3, # 1
 576 048c 42F20F75 		ldr r5, = 9999
 577 0490 AB42     		cmp r3, r5
 578 0492 28BF     		it cs
 579 0494 0023     		movcs r3, # 0
 580 0496 1160     		str r1, [r2]
 581 0498 2360     		str r3, [r4]
 582 049a BDE8FF9F 		pop {r0-r12,pc}
 583              		
 584              	tim2dingshiqi:
 585 049e 2DE9FF5F 		push {r0-r12,lr}
 586 04a2 1C4A     		ldr r2, = 0x200004fc
 587 04a4 3F48     		ldr r0, = 0x40000034
 588 04a6 1368     		ldr r3, [r2]
 589 04a8 0168     		ldr r1, [r0]  @ 读取时间
 590 04aa B1F5604F 		cmp.w r1, # 0xe000
 591 04ae 1AD8     		bhi tim2fanhui
 592 04b0 B1F5805F 		cmp.w r1, # 0x1000
 593 04b4 82BF     		ittt hi
 594 04b6 184C     		ldrhi r4, = 0x2200a000
 595 04b8 1460     		strhi r4, [r2]
 596 04ba 14E0     		bhi tim2fanhui
 597              		
 598 04bc FF29     		cmp r1, # 0xff
 599 04be 81BF     		itttt hi
 600 04c0 12F80C5C 		ldrbhi r5, [r2, # - 0x0c]
 601 04c4 0135     		addhi r5, # 1
 602 04c6 02F80C5C 		strbhi r5, [r2, # - 0x0c]
 603 04ca 0CE0     		bhi tim2fanhui
 604 04cc A029     		cmp r1, # 0xa0
 605 04ce 81BF     		itttt hi
 606 04d0 0126     		movhi r6, # 1
 607 04d2 43F8046B 		strhi r6, [r3], # 4
 608 04d6 1360     		strhi r3, [r2]
 609 04d8 05E0     		bhi tim2fanhui
 610              		
 611 04da 6029     		cmp r1, # 0x60
 612 04dc 82BF     		ittt hi
 613 04de 0026     		movhi r6, # 0
 614 04e0 43F8046B 		strhi r6, [r3], # 4
 615 04e4 1360     		strhi r3, [r2]
 616              		
ARM GAS  1.s 			page 12


 617              	tim2fanhui:
 618 04e6 3048     		ldr r0, = 0x40000024
 619 04e8 4FF00001 		mov r1,  # 0
 620 04ec 0160     		str r1, [r0]
 621 04ee BDE8FF9F 		pop {r0-r12,pc}
 622 04f2 00000400 		
 622      01400010 
 622      0240834D 
 622      01000020 
 622      02400410 
ARM GAS  1.s 			page 13


DEFINED SYMBOLS
                 1.s:4      .data:00000000 $d
                 1.s:6      .data:00000000 shumaguanmabiao
                 1.s:7      .data:0000000a hongwaimabiao
                 1.s:8      .data:0000005a shuaxinbiao
                 1.s:10     .data:00000062 caidian
                 1.s:315    .text:0000024c zhucaidan
                 1.s:337    .text:00000282 dd1
                 1.s:341    .text:00000288 dd2
                 1.s:344    .text:0000028e dd3
                 1.s:354    .text:000002a8 dd4
                 1.s:367    .text:000002c8 dd5
                 1.s:370    .text:000002ce dd6
                 1.s:373    .text:000002d4 dd7
                 1.s:376    .text:000002da dd8
                 1.s:379    .text:000002e0 dd9
                 1.s:382    .text:000002e6 dd10
                 1.s:385    .text:000002ec dd11
                 1.s:388    .text:000002f2 dd12
                 1.s:391    .text:000002f8 dd13
                 1.s:394    .text:000002fe dd14
                 1.s:396    .text:00000300 dd15
                 1.s:399    .text:00000306 dd16
                 1.s:413    .text:00000326 dd17
                 1.s:416    .text:0000032c dd18
                 1.s:435    .text:00000354 dd19
                 1.s:430    .text:0000034c dd20
                 1.s:432    .text:0000034e dd21
                 1.s:12     *ABS*:20005000 STACKINIT
                 1.s:13     *ABS*:20000300 systickbiaozhi
                 1.s:15     .text:00000000 xiangliangbiao
                 1.s:83     .text:0000010c _start
                 1.s:552    .text:00000460 _nmi_handler
                 1.s:554    .text:00000462 _hard_fault
                 1.s:556    .text:00000464 _memory_fault
                 1.s:558    .text:00000466 _bus_fault
                 1.s:560    .text:00000468 _usage_fault
                 1.s:562    .text:0000046a systickdingshiqi
                 1.s:584    .text:0000049e tim2dingshiqi
                            .text:00000000 $d
                 1.s:84     .text:0000010c $t
                 1.s:92     .text:0000011c gsszbz
                 1.s:98     .text:00000128 rccchushihua
                 1.s:108    .text:0000013c chaxun
                 1.s:114    .text:00000148 rccgg
                 1.s:123    .text:00000156 neicunqingling
                 1.s:127    .text:00000162 qingling_xunhuan
                 1.s:132    .text:0000016a chushihuayixieshuju
                 1.s:151    .text:00000190 systick
                 1.s:174    .text:000001ae waisheshizhong
                 1.s:195    .text:000001c4 zhongduankongzhi
                 1.s:215    .text:000001da dmachushihua
                 1.s:216    *ABS*:40020000 DMA1
                 1.s:236    .text:000001ee timdingshiqi
                 1.s:274    .text:00000214 tim1dingshiqi
                 1.s:289    .text:00000232 IOshezhi
                 1.s:517    .text:00000416 anjian
ARM GAS  1.s 			page 14


                 1.s:474    .text:000003bc zhuan_ascii
                 1.s:536    .text:0000043a xieshumaguan
                 1.s:509    .text:00000406 qingchuanjian
                 1.s:439    .text:0000035c zhuye
                 1.s:454    .text:00000382 zhuan_shijinzhi
                 1.s:478    .text:000003c4 xunhuanqiuma
                 1.s:489    .text:000003de xie595
                 1.s:498    .text:000003f2 xunhuan595
                 1.s:522    .text:00000422 panduananjian
                 1.s:530    .text:00000432 anjianzhengque
                 1.s:534    .text:00000436 anjianfanhui
                 1.s:542    .text:00000448 xianshi
                 1.s:617    .text:000004e6 tim2fanhui
                 1.s:622    .text:000004f2 $d
                 1.s:622    .text:000004f4 $d

NO UNDEFINED SYMBOLS
