ARM GAS  1.s 			page 1


   1              		@@单片机stm32f030f4p6
   2              		@@  256点radix-2  fft
   3              		@@ 结果左移6位或者乘64
   4              		@作者：yjmwxwx
   5              		@时间：2019-06-23
   6              		@编译器：arm-none-eabi
   7              		 .thumb                 
   8              	         .syntax unified
   9              	.section .data
  10              	shumaguanmabiao:
  11 0000 FC000000 		.int 0xfc,0x60,0xda,0xf2,0x66,0xb6,0xbe,0xe0,0xfe,0xf6
  11      60000000 
  11      DA000000 
  11      F2000000 
  11      66000000 
  12              	shumaguanshuaxinbiao:
  13 0028 00FE0000 		.int 0xfe00,0xfd00,0xfb00,0xf700,0xef00,0xdf00,0xbf00,0x7f00,0
  13      00FD0000 
  13      00FB0000 
  13      00F70000 
  13      00EF0000 
  14              	       	.equ STACKINIT,                 0x20001000
  15              		.equ shumaguanma,	0x20000808
  16              		.equ xuanzhuanyinzi,	0x20000800
  17              		.equ dianyabiao,	0x20000850
  18              		.equ lvbozhizhen,	0x20000c50
  19              		.equ lvbohuanchong,	0x20000c54
  20              	dianyabiao11:
  21 004c 89000000 		.int 0x089,0x039,0x18C,0x63D,0xB84,0xECF,0xFBD,0xFBF,0xE3D,0x8F7,0x3EF,0x0E1,0x039,0x074,0x366,0x8
  21      39000000 
  21      8C010000 
  21      3D060000 
  21      840B0000 
  22              	hudieweifanzhuan:
  23 044c 00000000 		.int 0x0000,0x0200,0x0100,0x0300,0x0080,0x0280,0x0180,0x0380,0x0040,0x0240,0x0140,0x0340,0x00C0,0x
  23      00020000 
  23      00010000 
  23      00030000 
  23      80000000 
  24              	
  25              	fft3xuanzhuanyinzi:
  26 084c 00800000 		.int 0x8000,0x0000,0x5A82,0xFFFFA57E,0x0000,0xFFFF8000,0xFFFFA57E,0xFFFFA57E
  26      00000000 
  26      825A0000 
  26      7EA5FFFF 
  26      00000000 
  27              	fft4xuanzhuanyinzi:
  28 086c 00800000 		.int 0x8000,0x0000,0x7641,0xFFFFCF05,0x5A82,0xFFFFA57E,0x30FB,0xFFFF89BF,0x0000,0xFFFF8000,0xFFFFC
  28      00000000 
  28      41760000 
  28      05CFFFFF 
  28      825A0000 
  29              	fft5xuanzhuanyinzi:
  30 08ac 00800000 		.int 0x8000,0x0000,0x7D8A,0xFFFFE708,0x7641,0xFFFFCF05,0x6A6D,0xFFFFB8E4,0x5A82,0xFFFFA57E,0x471C,
  30      00000000 
  30      8A7D0000 
  30      08E7FFFF 
ARM GAS  1.s 			page 2


  30      41760000 
  31              	fft6xuanzhuanyinzi:
  32 092c 00800000 		.int 0x8000,0x0000,0x7F62,0xFFFFF375,0x7D8A,0xFFFFE708,0x7A7D,0xFFFFDAD8,0x7641,0xFFFFCF05,0x70E2,
  32      00000000 
  32      627F0000 
  32      75F3FFFF 
  32      8A7D0000 
  33              	fft7xuanzhuanyinzi:
  34 0a2c 00800000 		.int 0x8000,0x0000,0x7FD8,0xFFFFF9B9,0x7F62,0xFFFFF375,0x7E9D,0xFFFFED38,0x7D8A,0xFFFFE708,0x7C29,
  34      00000000 
  34      D87F0000 
  34      B9F9FFFF 
  34      627F0000 
  35              	
  36              	fft8xuanzhuanyinzi:
  37 0c2c 00800000 		.int 0x8000,0x0000,0x7FF6,0xFFFFFCDC,0x7FD8,0xFFFFF9B9,0x7FA7,0xFFFFF696,0x7F62,0xFFFFF375,0x7F09,
  37      00000000 
  37      F67F0000 
  37      DCFCFFFF 
  37      D87F0000 
  38              		
  39              		
  40              	
  41              		
  42              			
  43              		
  44              	.section .text
  45              	vectors:
  46 0000 00100020 		.word STACKINIT
  47 0004 B1000000 		.word _start + 1
  48 0008 21050000 		.word _nmi_handler + 1
  49 000c 23050000 		.word _hard_fault  + 1
  50 0010 00000000 		.word 0
  51 0014 00000000 		.word 0
  52 0018 00000000 		.word 0
  53 001c 00000000 		.word 0
  54 0020 00000000 		.word 0
  55 0024 00000000 		.word 0
  56 0028 00000000 		.word 0
  57 002c 25050000 		.word _svc_handler +1
  58 0030 00000000 		.word 0
  59 0034 00000000 		.word 0
  60 0038 27050000 		.word _pendsv_handler +1
  61 003c 29050000 		.word _systickzhongduan +1               @ 15
  62 0040 31050000 		.word aaa +1     @ _wwdg +1          @ 0
  63 0044 31050000 		.word aaa +1     @_pvd +1            @ 1
  64 0048 31050000 		.word aaa +1     @_rtc +1            @ 2
  65 004c 31050000 		.word aaa +1     @_flash +1          @ 3
  66 0050 31050000 		.word aaa +1	@ _rcc + 1          @ 4
  67 0054 31050000 		.word aaa +1      @_exti0_1  +1      @ 5
  68 0058 31050000 		.word aaa +1      @ _exti2_3 +1      @ 6
  69 005c 31050000 		.word aaa +1       @_exti4_15 +1     @ 7
  70 0060 31050000 		.word aaa +1                         @ 8
  71 0064 31050000 		.word aaa +1 	@_dma1_1  +1    @ 9
  72 0068 31050000 		.word aaa +1    @_dma1_2_3 +1        @ 10
  73 006c 31050000 		.word aaa +1       @_dma1_4_5 +1     @ 11
  74 0070 31050000 		.word aaa +1	 @_adc1 +1          @ 12
ARM GAS  1.s 			page 3


  75 0074 31050000 		.word aaa +1       @_tim1_brk_up +1  @ 13
  76 0078 31050000 		.word aaa +1        @ _tim1_cc +1    @ 14
  77 007c 31050000 		.word aaa +1         @_tim2 +1       @ 15
  78 0080 31050000 		.word aaa +1          @_tim3 +1      @ 16
  79 0084 31050000 		.word aaa +1                         @ 17
  80 0088 31050000 		.word aaa +1		                @ 18
  81 008c 31050000 		.word aaa +1	@_tim14 +1    @ 19
  82 0090 31050000 		.word aaa +1                         @ 20
  83 0094 31050000 		.word aaa +1         @_tim16 +1      @ 21
  84 0098 31050000 		.word aaa +1         @_tim17 +1      @ 22
  85 009c 31050000 		.word aaa +1          @_i2c   +1     @ 23
  86 00a0 31050000 		.word aaa +1                         @ 24
  87 00a4 31050000 		.word aaa +1           @_spi   +1    @ 25
  88 00a8 31050000 		.word aaa +1                         @ 26
  89 00ac 31050000 		.word aaa +1         @_usart1 +1     @ 27
  90              	_start:
  91              	shizhong:
  92 00b0 6D4A     		ldr r2, = 0x40022000   @FLASH访问控制
  93 00b2 3221     		movs r1, # 0x32
  94 00b4 1160     		str r1, [r2]           @FLASH缓冲 缓冲开启
  95 00b6 6D48     	        ldr r0, = 0x40021000 @ rcc
  96 00b8 6D49     	        ldr r1, = 0x10001
  97 00ba 0160     	        str r1, [r0]
  98              	denghse:
  99 00bc 0168     	        ldr r1, [r0]
 100 00be 8903     	        lsls r1, r1, # 14
 101 00c0 FCD5     	        bpl denghse
 102              	dengpllguan:
 103 00c2 0168     	        ldr r1, [r0]
 104 00c4 8901     	        lsls r1, r1, # 6
 105 00c6 FCD4     	        bmi dengpllguan
 106 00c8 6A49     	        ldr r1, = 0x110002
 107 00ca 4160     	        str r1, [r0, # 0x04]
 108 00cc 6A49     	        ldr r1, = 0x1010000
 109 00ce 0000     		movs r0, r0
 110 00d0 0160     	        str r1, [r0]
 111              		
 112              	dengpll:
 113 00d2 0168     		ldr r1, [r0]
 114 00d4 8901     		lsls r1, # 6
 115 00d6 FCD5     		bpl dengpll
 116              		@0x34时钟控制寄存器 2 (RCC_CR2)
 117 00d8 0121     		movs r1, # 0x01
 118 00da 4163     		str r1, [r0, # 0x34]  @ HSI开14M时钟
 119              	dengdai14mshizhongwending:
 120 00dc 416B     		ldr r1, [r0, # 0x34]
 121 00de 8907     		lsls r1, r1, # 30     @ 左移30位
 122 00e0 FCD5     		bpl dengdai14mshizhongwending  @ 等待14M时钟稳定
 123              	
 124              	neicunqingling:
 125 00e2 6648     		ldr r0, = 0x20000000
 126 00e4 0021     		movs r1, # 0
 127 00e6 664B     		ldr r3, = 0x1000
 128              	neicunqinglingxunhuan:
 129 00e8 043B     		subs r3, # 4
 130 00ea C150     		str r1, [r0, r3]
 131 00ec FCD1     		bne neicunqinglingxunhuan
ARM GAS  1.s 			page 4


 132              	
 133              	@_systick:				@ systick定时器初始化
 134              	@
 135              	@	ldr r0, = 0xe000e010
 136              	@	ldr r1, = 0xffff
 137              	@	str r1, [r0, # 4]
 138              	@	str r1, [r0, # 8]
 139              	@	movs r1, # 0x07
 140              	@	str r1, [r0]
 141              	_waisheshizhong:		 @ 外设时钟
 142              		@+0x14=RCC_AHBENR
 143              		@0=DMA @2=SRAM @4=FLITF@6=CRC @17=PA @18=PB @19=PC @20=PD @22=PF
 144 00ee 5F48     		ldr r0, = 0x40021000
 145 00f0 6449     		ldr r1, = 0x460005
 146 00f2 4161     		str r1, [r0, # 0x14]
 147              	
 148              		@+0x18外设时钟使能寄存器 (RCC_APB2ENR)
 149              		@0=SYSCFG @5=USART6EN @9=ADC @11=TIM1 @12=SPI1 @14=USART1 @16=TIM15 @17=TIM16 @18=TIM17 @22=DBGMCU
 150 00f4 6449     		ldr r1, = 0xa00
 151 00f6 8161     		str r1, [r0, # 0x18]
 152              		@+0X1C=RCC_APB1ENR
 153              		@ 1=TIM3 @ 4=TIM6 @5=TIM7 @8=TIM14 @11=WWDG @14=SPI @17=USRT2 @18=USART3 @20=USART5 @21=I2C1 @22=I
 154              	@	movs r1, # 0x02
 155              	@	str r1, [r0, # 0x1c]
 156              	io_she_zhi:
 157              	@@@@@@@@@@@@@@@@@@@@@@@@@@@@@@@@@@@@@@@@@@@@@@@@@@@@@@@@@@@@@@@@@@@@@@@@@@@@@@@@@@@@@@@@@@@@@@
 158              		@a(0x48000000)b(0x48000400)c(0x48000800)d(0x48000c00)f(0x48001400)
 159              		@ 输入（00），通用输出（01），复用功能（10），模拟（11）
 160              		@偏移0x4 = 端口输出类型 @ （0 推挽），（ 1 开漏）
 161              		@偏移0x8 = 输出速度  00低速， 01中速， 11高速
 162              		@偏移0xC = 上拉下拉 (00无上下拉，  01 上拉， 10下拉)
 163              		@偏移0x10 = 输入数据寄存器
 164              		@偏移0x14 = 输出数据寄存器
 165              		@偏移0x18 = 端口开  0-15置位 
 166              		@偏移0x28 = 端口关
 167              		@0X20 = 复用低
 168              		@GPIO口0（0-3位）每个IO口占用4位
 169              		@ AF0 = 0X0000, AF1 = 0X0001, AF2 = 0X0010 AF3 = 0X0011, AF4 = 0X0100
 170              		@ AF5 = 0X0101, AF6 = 0X0111, AF7 = 0X1000
 171              		@0x24 = 复用高
 172              		@GPIO口8 （0-3位）每个IO口占用4位
 173              		@ AF0 = 0X0000, AF1 = 0X0001, AF2 = 0X0010 AF3 = 0X0011, AF4 = 0X0100
 174              		@ AF5 = 0X0101, AF6 = 0X0111, AF7 = 0X1000
 175              	@@@@@@@@@@@@@@@@@@@@@@@@@@@@@@@@@@@@@@@@@@@@@@@@@@@@@@@@@@@@@@@@@@@@@@@@@@@@@@@@@@@@@@@@@@@@@@
 176              	
 177 00f8 6448     		ldr r0, = 0x48000000
 178 00fa 6549     		ldr r1, = 0x28005403
 179 00fc 0160     		str r1, [r0]
 180              	
 181 00fe 6549     		ldr r1, = 0x200
 182 0100 4162     		str r1, [r0, # 0x24]
 183              	@tim3chushihua:				@ 24M
 184              	@	ldr r0, = 0x40000400 @ tim3_cr1
 185              	@	ldr r1, =  0
 186              	@	str r1, [r0, # 0x28] @ psc
 187              	@	ldr r1, = 9
 188              	@	str r1, [r0, # 0x2c] @ ARR
ARM GAS  1.s 			page 5


 189              	@	ldr r1, =   0x3800
 190              	@	str r1, [r0, # 0x1c] @ ccmr2
 191              	@	ldr r1, = 9999
 192              	@	str r1, [r0, # 0x20] @ ccer
 193              	@	ldr r1, = 10
 194              	@	str r1, [r0, # 0x40] @ ccr4
 195              	@	movs r1, # 0x70
 196              	@	str r1, [r0, # 0x04]
 197              	@	movs r1, # 0x81
 198              	@	str r1, [r0]
 199              	dmachushihua:
 200              		@+0=LSR,+4=IFCR,
 201              		@+8=CCR1,+c=CNDTR1,+10=CPAR1+14=CMAR1,
 202              		@+1c=CCR2,+20=CNDTR2,+24=CPAR2,+28=CMAR2
 203              		@+30=CCR3,+34=CNDTR3,+38=CPAR2,+3c=CMAR3
 204              		@+44=CCR4,+48=CNDTR4,+4c=CPAR4,+50=CMAR4
 205              		@+58=CCR5,+5c=CNDTR5,+60=CPAR5,+64=CMAR5
 206              		@+6C=CCR6,+70=CNDTR6,+74=CPAR6,+78=CMAR6
 207              		@+80=CCR7,+84=CNDTR7,+88=CPAR7,+8c=CMAR7
 208              		@ tim1DMA
 209              		@ adc dma
 210 0102 6548     		ldr r0, = 0x40020000
 211 0104 6549     		ldr r1, = 0x40012440
 212 0106 0161     		str r1, [r0, # 0x10]
 213 0108 6549     		ldr r1, = dianyabiao
 214 010a 4161     		str r1, [r0, # 0x14]
 215 010c 6549     		ldr r1, =  256
 216 010e C160     		str r1, [r0, # 0x0c]
 217 0110 6549     		ldr r1, = 0xa81
 218 0112 8160     		str r1, [r0, # 0x08]
 219              		
 220              	
 221              	
 222              	_adcchushihua:
 223 0114 6548     		ldr r0, = 0x40012400  @ adc基地址
 224 0116 6649     		ldr r1, = 0x80000000
 225 0118 8160     		str r1, [r0, # 0x08]  @ ADC 控制寄存器 (ADC_CR)  @adc校准
 226              	_dengadcjiaozhun:
 227 011a 8168     		ldr r1, [r0, # 0x08]
 228 011c 0900     		 movs r1, r1
 229 011e FCD4     		bmi _dengadcjiaozhun   @ 等ADC校准
 230              	_kaiadc:
 231 0120 8168     		ldr r1, [r0, # 0x08]
 232 0122 0122     		movs r2, # 0x01
 233 0124 1143     		orrs r1, r1, r2
 234 0126 8160     		str r1, [r0, # 0x08]
 235              	_dengdaiadcwending:
 236 0128 0168     		ldr r1, [r0]
 237 012a C907     		lsls r1, r1, # 31
 238 012c FCD5     		bpl _dengdaiadcwending @ 等ADC稳定
 239              	_tongdaoxuanze:
 240 012e 6149     		ldr r1, = 0x01
 241 0130 8162     		str r1, [r0, # 0x28]    @ 通道选择寄存器 (ADC_CHSELR)
 242              	@	ldr r1, = 0xcC3         @ tim3触发ADC
 243 0132 6149     		ldr r1, = 0x3003
 244 0134 C160     		str r1, [r0, # 0x0c]    @ 配置寄存器 1 (ADC_CFGR1)
 245 0136 0021     		movs r1, # 0        
ARM GAS  1.s 			page 6


 246 0138 4161     		str r1, [r0, # 0x14]    @ ADC 采样时间寄存器 (ADC_SMPR)
 247 013a 8168     		ldr r1, [r0, # 0x08]
 248 013c 5F4A     		ldr r2, = 0x04         @ 开始转换
 249 013e 1143     		orrs r1, r1, r2
 250 0140 8160     		str r1, [r0, # 0x08]    @ 控制寄存器 (ADC_CR)
 251              	
 252              	
 253              		
 254              	_waishezhongduan:		@外设中断
 255              		@0xE000E100    0-31  写1开，写0没效
 256              		@0XE000E180    0-31 写1关，写0没效
 257              		@0XE000E200    0-31 挂起，写0没效
 258              		@0XE000E280    0-31 清除， 写0没效
 259              	
 260              	
 261              	
 262              	
 263              	ting:
 264              		
 265 0142 5748     		ldr r0, = dianyabiao
 266 0144 00F002F9 		bl _fftjisuan
 267 0148 5D48     		ldr r0, = 0x20000058
 268 014a 0121     		movs r1, # 0x01
 269 014c 8902     		lsls r1, r1, # 10
 270 014e 0918     		adds r1, r1, r0
 271 0150 0068     		ldr r0, [r0]
 272 0152 0968     		ldr r1, [r1]
 273 0154 00F0C4F8 		bl _jisuanfudu
 274 0158 0346     		mov r3, r0
 275 015a 5A48     		ldr r0, = lvbohuanchong
 276 015c 5149     		ldr r1, = 256
 277 015e 5A4A     		ldr r2, = lvbozhizhen
 278 0160 00F0E0F8 		bl _lvboqi
 279 0164 594A     		ldr r2, = shumaguanma
 280 0166 0821     		movs r1, # 8
 281 0168 00F024F8 		bl _zhuanshumaguanma
 282 016c 0820     		movs r0, # 8
 283 016e 00F033F8 		bl _xieshumaguan
 284              	neicunqingling1:
 285 0172 4248     	        ldr r0, = 0x20000000
 286 0174 0021     	        movs r1, # 0
 287 0176 564B     	        ldr r3, = 0x850
 288              	neicunqinglingxunhuan1:
 289 0178 043B     	        subs r3, # 4
 290 017a C150     	        str r1, [r0, r3]
 291 017c FCD1     	        bne neicunqinglingxunhuan1
 292 017e 4648     		ldr r0, = 0x40020000
 293 0180 C168     		ldr r1, [r0, # 0x0c]
 294 0182 0029     		cmp r1, # 0
 295 0184 DDD1     		bne ting
 296 0186 8160     		str r1, [r0, # 0x08]
 297 0188 FF21     		movs r1, # 0xff
 298 018a 474A     		ldr r2, = 0xa81
 299 018c C160     		str r1, [r0, # 0x0c]
 300 018e 8260     		str r2, [r0, # 0x08]
 301 0190 D7E7     		b ting
 302              		
ARM GAS  1.s 			page 7


 303              	
 304              		
 305              		
 306              	_maopaopaixu:
 307 0192 FFB5     		push {r0-r7,lr}
 308              		@ r0= 表地址, r1= 长度
 309 0194 0F46     		mov r7, r1
 310              	_paixu:
 311 0196 B900     		lsls r1, r7, # 2
 312              	_paixuxunhuan:	
 313 0198 425A     		ldrh r2, [r0, r1]
 314 019a 0239     		subs r1, r1, # 2
 315 019c 06D4     		bmi _paixu1
 316 019e 445A     		ldrh r4, [r0, r1]
 317 01a0 A242     		cmp r2, r4
 318 01a2 F9D9     		bls _paixuxunhuan
 319 01a4 4252     		strh r2, [r0, r1]
 320 01a6 8B1C     		adds r3, r1, # 2
 321 01a8 C452     		strh r4, [r0, r3]
 322 01aa F5E7     		b _paixuxunhuan
 323              	_paixu1:
 324 01ac 0230     		adds r0, r0, # 2
 325 01ae 013F     		subs r7, r7, # 1
 326 01b0 F1D1     		bne _paixu
 327 01b2 FFBD     		pop {r0-r7,pc}
 328              	
 329              	_zhuanshumaguanma:@ 16进制转数码管码
 330              			@ R0要转的数据， R1长度，R2结果表首地址
 331 01b4 FFB5     		push {r0-r7,lr}
 332 01b6 474F     		ldr r7, = shumaguanmabiao
 333 01b8 0546     		mov r5, r0
 334 01ba 0E46     		mov r6, r1
 335 01bc 0A21     		movs r1, # 10
 336              	_xunhuanqiuma:
 337 01be 00F040F8 		bl _chufa
 338 01c2 0446     		mov r4, r0
 339 01c4 4C43     		muls r4, r1
 340 01c6 2B1B     		subs r3, r5, r4
 341 01c8 9B00     		lsls r3, # 2
 342 01ca FC58     		ldr r4, [r7, r3]
 343 01cc 1460     		str r4, [r2]
 344 01ce 0546     		mov r5, r0
 345 01d0 0432     		adds r2, r2, # 4
 346 01d2 013E     		subs r6, # 1
 347 01d4 F3D1     		bne _xunhuanqiuma
 348 01d6 FFBD     		pop {r0-r7,pc}
 349              	_xieshumaguan: @ r0=位数 @数码管码
 350 01d8 FFB5     		push {r0-r7,lr}
 351 01da 8000     		lsls r0, r0, # 2
 352 01dc 0027     		movs r7, # 0
 353 01de 0646     		mov r6, r0
 354 01e0 3A4D     		ldr r5, = shumaguanma
 355 01e2 3D4A     		ldr r2, = shumaguanshuaxinbiao
 356              	_shumaguanshuaxin:
 357 01e4 EB59     		ldr r3, [r5, r7]
 358 01e6 D459     		ldr r4, [r2, r7]
 359 01e8 1C43     		orrs r4, r4, r3
ARM GAS  1.s 			page 8


 360 01ea 2046     		mov r0, r4
 361 01ec 00F004F8 		bl _xie595
 362 01f0 0437     		adds  r7, r7, # 4
 363 01f2 B742     		cmp r7, r6
 364 01f4 F6D9     		bls _shumaguanshuaxin
 365 01f6 FFBD     		pop {r0-r7,pc}
 366              		
 367              	_xie595: @ R0=要写的数据
 368 01f8 FFB5     		push {r0-r7,lr}
 369 01fa 0546     		mov r5, r0
 370 01fc 4020     		movs r0, # 0x40
 371 01fe 8027     		movs r7, # 0x80 
 372 0200 2026     		movs r6, # 0x20 
 373 0202 1023     		movs r3, # 16   @16位
 374 0204 214A     		ldr r2, = 0x48000000 @ gpioa
 375 0206 0121     		movs r1, # 0x01
 376              	_xunhuan595:
 377 0208 9761     		str r7, [r2, # 0x18]
 378 020a 00F014F8 		bl _yanshi
 379 020e 0D42     		tst r5, r1
 380 0210 01D1     		bne _xie595_0
 381 0212 9062     		str r0, [r2, # 0x28]
 382 0214 00E0     		b _suocun595
 383              	_xie595_0:
 384 0216 9061     		str r0, [r2, # 0x18]
 385              	_suocun595:
 386 0218 00F00DF8 		bl _yanshi
 387 021c 6D08     		lsrs r5, # 1
 388 021e 9762     		str r7, [r2, # 0x28]
 389 0220 00F009F8 		bl _yanshi
 390 0224 013B     		subs r3, r3, # 1
 391 0226 EFD1     		bne _xunhuan595
 392 0228 9661     		str r6, [r2, # 0x18]
 393 022a 00F004F8 		bl _yanshi
 394 022e 9662     		str r6, [r2, # 0x28]
 395 0230 00F001F8 		bl _yanshi
 396 0234 FFBD     		pop {r0-r7,pc}
 397              	
 398              	
 399              	_yanshi:
 400 0236 80B4     		push {r7}
 401 0238 284F     		ldr r7, = 30
 402              	_yanshi11:
 403 023a 013F     		subs r7, # 1
 404 023c FDD1     		bne _yanshi11
 405 023e 80BC     		pop {r7}
 406 0240 7047     		bx lr
 407              	_chufa:			@软件除法
 408              		@ r0 除以 r1 等于 商(r0)余数R1
 409 0242 1EB5     		push {r1-r4,lr}
 410 0244 0028     		cmp r0, # 0
 411 0246 0ED0     		beq _chufafanhui
 412 0248 0029     		cmp r1, # 0
 413 024a 0CD0     		beq _chufafanhui
 414 024c 0246     		mov r2, r0
 415 024e 0123     		movs r3, # 1
 416 0250 DB07     		lsls r3, r3, # 31
ARM GAS  1.s 			page 9


 417 0252 0020     		movs r0, # 0
 418 0254 0446     		mov r4, r0
 419              	_chufaxunhuan:
 420 0256 5200     		lsls r2, r2, # 1
 421 0258 6441     		adcs r4, r4, r4
 422 025a 8C42     		cmp r4, r1
 423 025c 01D3     		bcc _chufaweishubudao0
 424 025e C018     		adds r0, r0, r3
 425 0260 641A     		subs r4, r4, r1
 426              	_chufaweishubudao0:
 427 0262 5B08     		lsrs r3, r3, # 1
 428 0264 F7D1     		bne _chufaxunhuan
 429              	_chufafanhui:
 430 0266 1EBD     		pop {r1-r4,pc}
 431 0268 00200240 		.ltorg
 431      00100240 
 431      01000100 
 431      02001100 
 431      00000101 
 432              	
 433              	_jisuanfudu:	@ 计算幅度
 434              			@ 入r0= 实部，r1= 虚部
 435              		        @ 出r0 = 幅度
 436              			@ Mag ~=Alpha * max(|I|, |Q|) + Beta * min(|I|, |Q|)
 437              			@ Alpha * Max + Beta * Min
 438 02e0 0EB5     		push {r1-r3,lr}
 439 02e2 0000     		movs r0, r0
 440 02e4 01D5     		bpl _shibubushifushu
 441 02e6 C043     		mvns r0, r0				@ 是负数转成正数
 442 02e8 0130     		adds r0, r0, # 1	
 443              	_shibubushifushu:				@ 实部不是负数
 444 02ea 0900     		movs r1, r1
 445 02ec 01D5     		bpl _xububushifushu
 446 02ee C943     		mvns r1, r1				@ 是负数转成正数
 447 02f0 0131     		adds r1, r1, # 1
 448              	_xububushifushu:				@ 虚部不是负数
 449 02f2 0028     		cmp r0, # 0
 450 02f4 01D1     		bne _panduanxubushibushi0		
 451 02f6 0846     		mov r0, r1				
 452 02f8 0EBD     		pop {r1-r3,pc}
 453              	_panduanxubushibushi0:	
 454 02fa 0029     		cmp r1, # 0
 455 02fc 00D1     		bne _jisuanfudu1
 456 02fe 0EBD     		pop {r1-r3,pc}
 457              	_jisuanfudu1:
 458 0300 7B4A     		ldr r2, = 31066		@ Alpha q15 0.948059448969
 459 0302 7C4B     		ldr r3, = 12867		@ Beta q15 0.392699081699
 460 0304 8142     		cmp r1, r0
 461 0306 06D8     		bhi _alpha_min_beta_max
 462              	_alpha_max_beta_min:
 463 0308 5043     		muls r0, r0, r2
 464 030a 5943     		muls r1, r1, r3
 465 030c C013     		asrs r0, r0, # 15
 466 030e C913     		asrs r1, r1, # 15
 467 0310 4018     		adds r0, r0, r1
 468 0312 0121     		movs r1, # 1
 469 0314 0EBD     		pop {r1-r3,pc}
ARM GAS  1.s 			page 10


 470              	_alpha_min_beta_max:
 471 0316 5843     		muls r0, r0, r3
 472 0318 5143     		muls r1, r1, r2
 473 031a C013     		asrs r0, r0, # 15
 474 031c C913     		asrs r1, r1, # 15
 475 031e 4018     		adds r0, r0, r1
 476 0320 0021     		movs r1, # 0
 477 0322 0EBD     		pop {r1-r3,pc}
 478              	
 479              	_lvboqi:
 480              				@滤波器
 481              				@R0=地址，R1=长度,r2=表指针地址,r3=ADC数值
 482              				@出R0=结果
 483 0324 FEB5     		push {r1-r7,lr}	
 484 0326 1568     		ldr r5, [r2]		@读出表指针
 485 0328 4E00     		lsls r6, r1, # 1	
 486 032a 4353     		strh r3, [r0, r5]	@数值写到滤波器缓冲区
 487 032c 0235     		adds r5, r5, # 2
 488 032e B542     		cmp r5, r6
 489 0330 00D1     		bne _lvboqimeidaohuanchongquding
 490 0332 0025     		movs r5, # 0
 491              	_lvboqimeidaohuanchongquding:
 492 0334 1560     		str r5, [r2]
 493 0336 0027     		movs r7, # 0
 494              	_lvboqixunhuan:
 495 0338 B542     		cmp r5, r6
 496 033a 00D1     		bne _lvbozonghe
 497 033c 0025     		movs r5, # 0
 498              	_lvbozonghe:
 499 033e 445B     		ldrh r4, [r0, r5]
 500 0340 0235     		adds r5, r5, # 2
 501 0342 3F19     		adds r7, r7, r4
 502 0344 0139     		subs r1, r1, # 1
 503 0346 F7D1     		bne _lvboqixunhuan
 504 0348 3812     		asrs r0, r7, # 8	@修改
 505 034a FEBD     		pop {r1-r7,pc}
 506              	
 507              		
 508              	_fftjisuan:
 509              					@ 入口 R0=数据地址
 510              					@ 输出实部=0X20000000-0X20000400
 511              					@ 输出虚部=0X20000400-0X20000800
 512              					@ 结果左移6位（乘64）
 513 034c FFB5     		push {r0-r7,lr}
 514              	_fft1:
 515 034e 6A49     		ldr r1, = 0x20000000       @ 输出地址
 516 0350 8022     		movs r2, # 128             @ 蝴蝶数量
 517 0352 6A4B     		ldr r3, = hudieweifanzhuan @ 蝴蝶位反转表
 518              	_fft1xunhuan:
 519 0354 1E68     		ldr r6, [r3]               @ 取出位反转表里的地一个数据
 520 0356 5F68     		ldr r7, [r3, # 0x04]       @ 取出第二个
 521 0358 8659     		ldr r6, [r0, r6]           @ 根据位反转表找到对应的输入数据  
 522 035a C759     		ldr r7, [r0, r7]           @ 第二个
 523 035c F419     		adds r4, r6, r7            @ 求出蝴蝶上
 524 035e F51B     		subs r5, r6, r7            @ 求出蝴蝶下
 525 0360 0C60     		str r4, [r1]
 526 0362 4D60     		str r5, [r1, # 0x04]       @ 把反过来的顺序排列
ARM GAS  1.s 			page 11


 527 0364 0831     		adds r1, r1, # 0x08        @ 输出的地址自增
 528 0366 0833     		adds r3, r3, # 0x08        @ 反转表自增
 529 0368 013A     		subs r2, r2, # 1           @ 蝴蝶数减1
 530 036a F3D1     		bne _fft1xunhuan           @ 蝴蝶数不到
 531              	
 532              	_fft2:
 533 036c 6248     		ldr r0, = 0x20000000       @ 实部输出地址0x20000000
 534 036e 0124     		movs r4, # 1               
 535 0370 A402     		lsls r4, r4, # 10          
 536 0372 2418     		adds r4, r4, r0            @ 虚部输出地址 0x20000400
 537 0374 A046     		mov r8, r4                 @ 实部和虚部中间
 538              	_fft2xunhuan:
 539 0376 0468     		ldr r4, [r0]               @ 取出数据0
 540 0378 8568     		ldr r5, [r0, # 0x08]       @ 取出数据2
 541 037a 4668     		ldr r6, [r0, # 0x04]       @ 取出数据1
 542 037c C768     		ldr r7, [r0, # 0x0c]       @ 取出数据3
 543 037e 6119     		adds r1, r4, r5            @ 计算蝴蝶上
 544 0380 621B     		subs r2, r4, r5            @ 计算蝴蝶下
 545 0382 3346     		mov r3, r6		@ 0 r 蝴蝶上实部
 546 0384 0024     		movs r4, # 0
 547 0386 E41B     		subs r4, r4, r7		@ 0i 蝴蝶上虚部
 548 0388 3546     		mov r5, r6		@ 3r 蝴蝶下实部
 549 038a 3E46     		mov r6, r7		@ 3i 蝴蝶下虚部
 550 038c 0127     		movs r7, # 1
 551 038e BF02     		lsls r7, r7, # 10       @ 内存实部和虚部中间
 552 0390 3F18     		adds r7, r7, r0         @ R7等于虚部首地址  
 553 0392 0160     		str r1, [r0]            @ 蝴蝶上保存实部
 554 0394 8260     		str r2, [r0, # 0x08]    @ 蝴蝶下实部
 555 0396 4360     		str r3, [r0, # 0x04]    @ 第二组蝴蝶上实部
 556 0398 7C60     		str r4, [r7, # 0x04]    @ 第二组蝴蝶上虚部
 557 039a C560     		str r5, [r0, # 0x0c]	@ 第二组蝴蝶下实部
 558 039c FE60     		str r6, [r7, # 0x0c]    @ 第二组下虚部
 559 039e 1030     		adds r0, r0, # 0x10     @ 蝴蝶组自增
 560 03a0 4045     		cmp r0, r8     
 561 03a2 E8D1     		bne _fft2xunhuan        @ 地址不到循环
 562              	_fft3:
 563 03a4 564E     		ldr r6, = xuanzhuanyinzi       @ 旋转因子自增变量
 564 03a6 574A     		ldr r2, = fft3xuanzhuanyinzi   @ 旋转因子第三步的表
 565 03a8 5348     		ldr r0, = 0x20000000           @ 实部输出地址
 566 03aa 3260     		str r2, [r6]                   @ 旋转因子表首地址写到变量
 567 03ac 0121     		movs r1, # 1
 568 03ae 8902     		lsls r1, r1, # 10             
 569 03b0 0918     		adds r1, r1, r0                @ 虚部输出地址
 570 03b2 8846     		mov r8, r1		       @ R8虚部地址自增变量
 571 03b4 8146     		mov r9, r0                     @ R9实部地址自增变量
 572 03b6 9246     		mov r10, r2		       @ 旋转因子地址写到R10
 573 03b8 1025     		movs r5, # 0x10		       @ 两组蝴蝶的距离	
 574 03ba AB46     		mov r11, r5                    @ 写到R11
 575 03bc 0425     		movs r5, # 4                   @ 旋转因子数量
 576 03be AC46     		mov r12, r5		       @ 旋转因子数量写到R12
 577 03c0 00F053F8 		bl _fftg
 578              	
 579              	_fft4:
 580 03c4 4E4E     		ldr r6, = xuanzhuanyinzi	@ 旋转因子自增变量
 581 03c6 504A     		ldr r2, = fft4xuanzhuanyinzi	@ 旋转因子第四步表
 582 03c8 4B48     		ldr r0, = 0x20000000		@ 实部地址
 583 03ca 3260     		str r2, [r6]			@ 第四步旋转因子表写到自增变量
ARM GAS  1.s 			page 12


 584 03cc 0121     		movs r1, # 1
 585 03ce 8902     		lsls r1, r1, # 10
 586 03d0 0918     		adds r1, r1, r0			@ r1 = 虚部地址
 587 03d2 8846     		mov r8, r1			@ 
 588 03d4 8146     		mov r9, r0
 589 03d6 9246     		mov r10, r2
 590 03d8 2025     		movs r5, # 0x20
 591 03da AB46     		mov r11, r5
 592 03dc 0825     		movs r5, # 8
 593 03de AC46     		mov r12, r5
 594 03e0 00F043F8 		bl _fftg
 595              	
 596              	
 597              	_fft5:
 598 03e4 464E     		ldr r6, = xuanzhuanyinzi
 599 03e6 494A     		ldr r2, = fft5xuanzhuanyinzi
 600 03e8 4348     		ldr r0, = 0x20000000
 601 03ea 3260     		str r2, [r6]
 602 03ec 0121     		movs r1, # 1
 603 03ee 8902     		lsls r1, r1, # 10
 604 03f0 0918     		adds r1, r1, r0
 605 03f2 8846     		mov r8, r1
 606 03f4 8146     		mov r9, r0
 607 03f6 9246     		mov r10, r2
 608 03f8 4025     		movs r5, # 0x40
 609 03fa AB46     		mov r11, r5
 610 03fc 1025     		movs r5, # 16
 611 03fe AC46     		mov r12, r5
 612 0400 00F033F8 		bl _fftg
 613              	
 614              	_fft6:
 615 0404 3E4E     		ldr r6, = xuanzhuanyinzi
 616 0406 424A     		ldr r2, = fft6xuanzhuanyinzi
 617 0408 3B48     		ldr r0, = 0x20000000
 618 040a 3260     		str r2, [r6]
 619 040c 0121     		movs r1, # 1
 620 040e 8902     		lsls r1, r1, # 10
 621 0410 0918     		adds r1, r1, r0
 622 0412 8846     		mov r8, r1
 623 0414 8146     		mov r9, r0
 624 0416 9246     		mov r10, r2
 625 0418 8025     		movs r5, # 0x80
 626 041a AB46     		mov r11, r5
 627 041c 2025     		movs r5, # 32
 628 041e AC46     		mov r12, r5
 629 0420 00F023F8 		bl _fftg
 630              	_fft7:
 631 0424 364E     		ldr r6, = xuanzhuanyinzi
 632 0426 3B4A     		ldr r2, = fft7xuanzhuanyinzi
 633 0428 3348     		ldr r0, = 0x20000000
 634 042a 3260     		str r2, [r6]
 635 042c 0121     		movs r1, # 1
 636 042e 8902     		lsls r1, r1, # 10
 637 0430 0918     		adds r1, r1, r0
 638 0432 8846     		mov r8, r1
 639 0434 8146     		mov r9, r0
 640 0436 9246     		mov r10, r2
ARM GAS  1.s 			page 13


 641 0438 0125     		movs r5, # 1
 642 043a 2D02     		lsls r5, r5, # 8
 643 043c AB46     		mov r11, r5
 644 043e 4025     		movs r5, # 64
 645 0440 AC46     		mov r12, r5
 646 0442 00F012F8 		bl _fftg
 647              	
 648              	_fft8:
 649 0446 2E4E     		ldr r6, = xuanzhuanyinzi
 650 0448 334A     		ldr r2, = fft8xuanzhuanyinzi
 651 044a 2B48     		ldr r0, = 0x20000000
 652 044c 3260     		str r2, [r6]
 653 044e 0121     		movs r1, # 1
 654 0450 8902     		lsls r1, r1, # 10
 655 0452 0918     		adds r1, r1, r0
 656 0454 8846     		mov r8, r1
 657 0456 8146     		mov r9, r0
 658 0458 9246     		mov r10, r2
 659 045a 0125     		movs r5, # 1
 660 045c 6D02     		lsls r5, r5, # 9
 661 045e AB46     		mov r11, r5
 662 0460 8025     		movs r5, # 128
 663 0462 AC46     		mov r12, r5
 664 0464 00F001F8 		bl _fftg
 665 0468 FFBD     		pop {r0-r7,pc}
 666              	_fftg:
 667 046a 00B5     		push {lr}		@ LR保存到堆栈
 668 046c 0024     		movs r4, # 0
 669 046e A646     		mov lr, r4
 670              	_fftxunhuan:
 671 0470 4846     		mov r0, r9		@ R0实部地址自增变量地址
 672 0472 4146     		mov r1, r8		@ R1虚部地址自增变量地址	
 673 0474 5246     		mov r2, r10		@ 旋转因子表地址地址
 674 0476 5B46     		mov r3, r11		@ 两组蝴蝶的距离
 675 0478 0468     		ldr r4, [r0]		@ r4=蝴蝶上实部
 676 047a 0D68     		ldr r5, [r1]		@ r5=蝴蝶上虚部
 677 047c C658     		ldr r6, [r0, r3]	@ r6=蝴蝶下实部
 678 047e CF58     		ldr r7, [r1, r3]	@ r7=蝴蝶下虚部
 679 0480 1368     		ldr r3, [r2]		@ SR 
 680 0482 5268     		ldr r2, [r2, # 0x04]	@ SI 
 681 0484 30B4     		push {r4,r5}		@ R4 R5保存到堆栈
 682              					@ （a+bi）(c+di)=(ac-bd)+(ad+bc)i
 683 0486 3446     		mov r4, r6		@ r4=蝴蝶下实部
 684 0488 5C43     		muls r4, r4, r3		@ 乘旋转因子	ac
 685 048a 3D46     		mov r5, r7		@ R5=蝴蝶下虚部
 686 048c 5543     		muls r5, r5, r2		@ 乘旋转因子	bd
 687 048e 641B     		subs r4, r4, r5		@ ac-bd
 688 0490 E413     		asrs r4, r4, # 15	@ 截断Q15
 689 0492 3546     		mov r5, r6
 690 0494 5543     		muls r5, r5, r2		@ ad
 691 0496 5F43     		muls r7, r7, r3		@ bc
 692 0498 7F19     		adds r7, r7, r5         @ ad+bc
 693 049a FF13     		asrs r7, r7, # 15	@ 截断Q15
 694 049c 24BC     		pop {r2,r5}		@ R2= 蝴蝶上实部
 695              					@ r5= 蝴蝶上虚部
 696 049e 1319     		adds r3, r2, r4    	@ 上实部加下实部=结果上实部
 697 04a0 121B     		subs r2, r2, r4    	@ 下实部减上实部=结果下实部
ARM GAS  1.s 			page 14


 698 04a2 EC19     		adds r4, r5, r7		@ 上虚部加下虚部=结果上虚部
 699 04a4 ED1B     		subs r5, r5, r7		@ 上虚部减下虚部=结果下虚部
 700 04a6 5E46     		mov r6, r11		@ r6=蝴蝶距离
 701 04a8 5B10     		asrs r3, r3, # 1	@ 右移一位防止溢出
 702 04aa 6410     		asrs r4, r4, # 1	@ 右移一位防止溢出
 703 04ac 5210     		asrs r2, r2, # 1	@ 右移一位防止溢出
 704 04ae 6D10     		asrs r5, r5, # 1	@ 右移一位防止溢出
 705 04b0 0360     		str r3, [r0]		@ 保存上实部
 706 04b2 0C60     		str r4, [r1]		@ 保存上虚部
 707 04b4 8251     		str r2, [r0, r6]	@ 保存下实部
 708 04b6 8D51     		str r5, [r1, r6]	@ 保存下虚部
 709 04b8 0430     		adds r0, r0, # 0x04	@ 实部地址加4
 710 04ba 0431     		adds r1, r1, # 0x04	@ 虚部地址加4
 711 04bc 8146     		mov r9, r0		@ r9=当前实部地址
 712 04be 8846     		mov r8, r1		@ R8=当前虚部地址
 713 04c0 5246     		mov r2, r10		@ r2= 当前旋转因子地址
 714 04c2 0832     		adds r2, r2, # 0x08	@ R2 = 旋转因子地址加8
 715 04c4 9246     	        mov r10, r2             @ 保存回去
 716 04c6 7446     		mov r4, lr		@ 一个蝴蝶旋转因子变量
 717 04c8 0134     		adds r4, r4, # 1        @ 自增
 718 04ca A646     		mov lr, r4 		@ 保存回去
 719 04cc 6746     		mov r7, r12             @ 取出旋转因子总数量
 720 04ce BC42     		cmp r4, r7              @ 到没到数量
 721 04d0 CED1     		bne _fftxunhuan         @ 没到继续循环
 722 04d2 0024     		movs  r4, # 0		@ 到了R4=0
 723 04d4 A646     		mov lr, r4		@ 一个蝴蝶旋转因子变量清0
 724 04d6 0A4E     		ldr r6, = xuanzhuanyinzi @ R6=旋转因子自增变量地址	
 725 04d8 104D     		ldr r5, = 0x20000400	 @ R5=虚部地址
 726 04da 3668     		ldr r6, [r6]		 @ 取出旋转因子自增变量
 727 04dc 5F46     		mov r7, r11		@ R7= 蝴蝶距离
 728 04de B246     	        mov r10, r6              @ R10 = 旋转因子自增变量
 729 04e0 C019     		adds r0, r0, r7		@ 实部地址加蝴蝶距离
 730 04e2 C919     		adds r1, r1, r7		@ 虚部地址加蝴蝶距离
 731 04e4 8146     		mov r9, r0		@ R9等于当前实部地址
 732 04e6 8846     		mov r8, r1		@ R8等于当前虚部地址
 733 04e8 A842     		cmp r0, r5		@ 实部到没到虚部边界
 734 04ea C1D1     		bne _fftxunhuan		@ 没到循环计算
 735 04ec 00BD     		pop {pc}		@ 返回
 736 04ee 00005A79 		.ltorg			@ 文字池
 736      00004332 
 736      00000000 
 736      00204C04 
 736      00000008 
 737              		
 738              	_nmi_handler:
 739 0520 7047     		bx lr
 740              	_hard_fault:
 741 0522 7047     		bx lr
 742              	_svc_handler:
 743 0524 7047     		bx lr
 744              	_pendsv_handler:
 745 0526 7047     		bx lr
 746              	_systickzhongduan:
 747 0528 0248     		ldr r0, = 0xe000ed04
 748 052a 0121     		movs r1, # 1
 749 052c 4906     		lsls r1, r1, # 25
 750 052e 0160     		str r1, [r0]                 @ 清除SYSTICK中断
ARM GAS  1.s 			page 15


 751              	aaa:
 752 0530 70470000 		bx lr
 752      04ED00E0 
ARM GAS  1.s 			page 16


DEFINED SYMBOLS
                 1.s:10     .data:0000000000000000 shumaguanmabiao
                 1.s:12     .data:0000000000000028 shumaguanshuaxinbiao
                 1.s:14     *ABS*:0000000020001000 STACKINIT
                 1.s:15     *ABS*:0000000020000808 shumaguanma
                 1.s:16     *ABS*:0000000020000800 xuanzhuanyinzi
                 1.s:17     *ABS*:0000000020000850 dianyabiao
                 1.s:18     *ABS*:0000000020000c50 lvbozhizhen
                 1.s:19     *ABS*:0000000020000c54 lvbohuanchong
                 1.s:20     .data:000000000000004c dianyabiao11
                 1.s:22     .data:000000000000044c hudieweifanzhuan
                 1.s:25     .data:000000000000084c fft3xuanzhuanyinzi
                 1.s:27     .data:000000000000086c fft4xuanzhuanyinzi
                 1.s:29     .data:00000000000008ac fft5xuanzhuanyinzi
                 1.s:31     .data:000000000000092c fft6xuanzhuanyinzi
                 1.s:33     .data:0000000000000a2c fft7xuanzhuanyinzi
                 1.s:36     .data:0000000000000c2c fft8xuanzhuanyinzi
                 1.s:45     .text:0000000000000000 vectors
                 1.s:90     .text:00000000000000b0 _start
                 1.s:738    .text:0000000000000520 _nmi_handler
                 1.s:740    .text:0000000000000522 _hard_fault
                 1.s:742    .text:0000000000000524 _svc_handler
                 1.s:744    .text:0000000000000526 _pendsv_handler
                 1.s:746    .text:0000000000000528 _systickzhongduan
                 1.s:751    .text:0000000000000530 aaa
                 1.s:91     .text:00000000000000b0 shizhong
                            .text:0000000000000000 $d
                 1.s:92     .text:00000000000000b0 $t
                 1.s:98     .text:00000000000000bc denghse
                 1.s:102    .text:00000000000000c2 dengpllguan
                 1.s:112    .text:00000000000000d2 dengpll
                 1.s:119    .text:00000000000000dc dengdai14mshizhongwending
                 1.s:124    .text:00000000000000e2 neicunqingling
                 1.s:128    .text:00000000000000e8 neicunqinglingxunhuan
                 1.s:141    .text:00000000000000ee _waisheshizhong
                 1.s:156    .text:00000000000000f8 io_she_zhi
                 1.s:199    .text:0000000000000102 dmachushihua
                 1.s:222    .text:0000000000000114 _adcchushihua
                 1.s:226    .text:000000000000011a _dengadcjiaozhun
                 1.s:230    .text:0000000000000120 _kaiadc
                 1.s:235    .text:0000000000000128 _dengdaiadcwending
                 1.s:239    .text:000000000000012e _tongdaoxuanze
                 1.s:254    .text:0000000000000142 _waishezhongduan
                 1.s:263    .text:0000000000000142 ting
                 1.s:508    .text:000000000000034c _fftjisuan
                 1.s:433    .text:00000000000002e0 _jisuanfudu
                 1.s:479    .text:0000000000000324 _lvboqi
                 1.s:329    .text:00000000000001b4 _zhuanshumaguanma
                 1.s:349    .text:00000000000001d8 _xieshumaguan
                 1.s:284    .text:0000000000000172 neicunqingling1
                 1.s:288    .text:0000000000000178 neicunqinglingxunhuan1
                 1.s:306    .text:0000000000000192 _maopaopaixu
                 1.s:310    .text:0000000000000196 _paixu
                 1.s:312    .text:0000000000000198 _paixuxunhuan
                 1.s:323    .text:00000000000001ac _paixu1
                 1.s:336    .text:00000000000001be _xunhuanqiuma
                 1.s:407    .text:0000000000000242 _chufa
ARM GAS  1.s 			page 17


                 1.s:356    .text:00000000000001e4 _shumaguanshuaxin
                 1.s:367    .text:00000000000001f8 _xie595
                 1.s:376    .text:0000000000000208 _xunhuan595
                 1.s:399    .text:0000000000000236 _yanshi
                 1.s:383    .text:0000000000000216 _xie595_0
                 1.s:385    .text:0000000000000218 _suocun595
                 1.s:402    .text:000000000000023a _yanshi11
                 1.s:429    .text:0000000000000266 _chufafanhui
                 1.s:419    .text:0000000000000256 _chufaxunhuan
                 1.s:426    .text:0000000000000262 _chufaweishubudao0
                 1.s:431    .text:0000000000000268 $d
                 1.s:438    .text:00000000000002e0 $t
                 1.s:443    .text:00000000000002ea _shibubushifushu
                 1.s:448    .text:00000000000002f2 _xububushifushu
                 1.s:453    .text:00000000000002fa _panduanxubushibushi0
                 1.s:457    .text:0000000000000300 _jisuanfudu1
                 1.s:470    .text:0000000000000316 _alpha_min_beta_max
                 1.s:462    .text:0000000000000308 _alpha_max_beta_min
                 1.s:491    .text:0000000000000334 _lvboqimeidaohuanchongquding
                 1.s:494    .text:0000000000000338 _lvboqixunhuan
                 1.s:498    .text:000000000000033e _lvbozonghe
                 1.s:514    .text:000000000000034e _fft1
                 1.s:518    .text:0000000000000354 _fft1xunhuan
                 1.s:532    .text:000000000000036c _fft2
                 1.s:538    .text:0000000000000376 _fft2xunhuan
                 1.s:562    .text:00000000000003a4 _fft3
                 1.s:666    .text:000000000000046a _fftg
                 1.s:579    .text:00000000000003c4 _fft4
                 1.s:597    .text:00000000000003e4 _fft5
                 1.s:614    .text:0000000000000404 _fft6
                 1.s:630    .text:0000000000000424 _fft7
                 1.s:648    .text:0000000000000446 _fft8
                 1.s:670    .text:0000000000000470 _fftxunhuan
                 1.s:736    .text:00000000000004ee $d
                 1.s:736    .text:00000000000004f0 $d
                 1.s:739    .text:0000000000000520 $t
                 1.s:752    .text:0000000000000532 $d
                 1.s:752    .text:0000000000000534 $d

NO UNDEFINED SYMBOLS
