ARM GAS  1.s 			page 1


   1              		 .thumb                 
   2              	         .syntax unified
   3              	.section .data
   4 0000 00000100 	lcdchushihuamabiao: .byte 0x00,0x00,0x01,0x00,0x03,0x00,0x0f,0x00,0x10,0x00,0x11,0x00,0x12,0x11,0x2
   4      03000F00 
   4      10001100 
   4      12112027 
   4      212730EF 
   5              		
   6              		
   7              		
   8              	         .equ STACKINIT, 0x20005000
   9              		.equ lcdyanshi,    4000
  10              		.equ resyanshi,   80000
  11              		.equ lcdwr,      0x422201a8
  12              		.equ lcdrd,      0x422201ac
  13              		.equ lcdcs,      0x422201b0
  14              	
  15              		.equ lcda0,      0x4221818c
  16              		.equ lcdrst,     0x42218190
  17              		.equ fengmingqi, 0x422201a0
  18              		.equ lcddx,      0x422181a0
  19              		.equ lcdshuju,   0x22006000
  20              	.section .text
  21              	vectors:        
  22 0000 00500020 	        .word STACKINIT         
  23 0004 41000000 	        .word _start + 1        
  24 0008 D3030000 	        .word _nmi_handler + 1  
  25 000c D5030000 	        .word _hard_fault  + 1  
  26 0010 D7030000 	        .word _memory_fault + 1 
  27 0014 D9030000 	        .word _bus_fault + 1    
  28 0018 DB030000 	        .word _usage_fault + 1 
  29 001c 00000000 		.word 0
  30 0020 00000000 		.word 0
  31 0024 00000000 		.word 0
  32 0028 00000000 		.word 0
  33 002c 00000000 		.word 0
  34 0030 00000000 		.word 0
  35 0034 00000000 		.word 0 
  36 0038 00000000 		.word 0
  37 003c DD030000 		.word _dingshiqi + 1
  38              	_start:
  39 0040 4FF00000 		mov r0, # 0
  40 0044 4FF00001 		mov r1, # 0
  41 0048 4FF00002 		mov r2, # 0
  42 004c 4FF00003 		mov r3, # 0
  43 0050 4FF00004 		mov r4, # 0
  44 0054 4FF00005 		mov r5, # 0
  45 0058 4FF00006 		mov r6, # 0 
  46 005c 4FF00007 		mov r7, # 0
  47 0060 4FF00008 		mov r8, # 0
  48 0064 4FF00009 		mov r9, # 0
  49              	shizhong:
  50 0068 DD48     		ldr r0, = 0x40021000
  51 006a DE49     		ldr r1, = 0x14D83
  52 006c 0160     		str r1, [r0]
  53              	gsszbz: 
ARM GAS  1.s 			page 2


  54 006e 0268     		ldr r2, [r0]
  55 0070 DD49     		ldr r1, = 0x20000
  56 0072 1142     		tst r1, r2           @高速时钟标志位           
  57 0074 00D1     		bne rccchushihua
  58 0076 FAE7     		b gsszbz
  59              	rccchushihua: 
  60 0078 DC48     		ldr r0, = 0x40022000
  61 007a 4FF03201 		mov r1, # 0x00000032
  62 007e 0160     		str r1, [r0]           @FLASH缓冲 缓冲开启 
  63 0080 DB48     		ldr r0, = 0x40021004
  64 0082 DC49     		ldr r1, = 0x1D8400
  65 0084 0160     		str r1, [r0]
  66 0086 D648     		ldr r0, = 0x40021000
  67 0088 DB49     		ldr r1, = 0x1033D03
  68 008a 0160     		str r1, [r0]
  69              	chaxun:
  70 008c 0268     		ldr r2, [r0]
  71 008e DB49     		ldr r1, = 0x2000000
  72 0090 1142     		tst r1, r2
  73 0092 00D1     		bne rccgg
  74 0094 FAE7     		b chaxun
  75              	rccgg:
  76 0096 D648     		ldr r0, = 0x40021004
  77 0098 D949     		ldr r1, = 0x1D8402
  78 009a 0160     		str r1, [r0]
  79              	rccapb2enr:
  80 009c D948     		ldr r0, = 0x40021018
  81 009e 4FF03D01 		mov r1, # 0x3d
  82 00a2 0160     		str r1, [r0]
  83              		
  84 00a4 D848     	        ldr r0, = 0x40010004 @ AFIO_MAPR
  85 00a6 D549     		ldr r1, = 0x02000000
  86 00a8 0160     		str r1, [r0]
  87              	ioshezhi:
  88 00aa D848     		ldr r0, = 0x40010800
  89 00ac D849     		ldr r1, = 0x24444444
  90 00ae 4160     		str r1, [r0, # 4]
  91 00b0 D848     		ldr r0, = 0x40010c00
  92 00b2 D949     		ldr r1, = 0x44477444
  93 00b4 0160     		str r1, [r0]
  94 00b6 D949     		ldr r1, = 0x77777777
  95 00b8 4160     		str r1, [r0, # 4]
  96 00ba D948     		ldr r0, = 0x40011004
  97 00bc D949     		ldr r1, = 0x44477777
  98 00be 0160     		str r1, [r0]
  99 00c0 D94D     		ldr r5, = lcdyanshi
 100              	lcdresres:
 101 00c2 013D     		subs r5, # 1
 102 00c4 FDD1     		bne lcdresres
 103 00c6 D948     		ldr r0, = lcdrst
 104 00c8 4FF00001 		mov r1, # 0
 105 00cc 0160     		str r1, [r0]
 106 00ce D84D     		ldr r5, = resyanshi
 107              	lcdresres1:
 108 00d0 013D     		subs r5, # 1
 109 00d2 FDD1     		bne lcdresres1
 110 00d4 4FF00101 		mov r1, # 1
ARM GAS  1.s 			page 3


 111 00d8 0160     		str r1, [r0]
 112 00da D648     		ldr r0, = fengmingqi
 113 00dc 0160     		str r1, [r0]
 114              		
 115              	lcdchushihua:
 116 00de D648     		ldr r0, = 0x20000300
 117 00e0 4FF00001 		mov r1, # 0x00
 118 00e4 0160     		str r1, [r0]
 119 00e6 00F0E2F8 		bl lcdxiemingling
 120 00ea 4FF00401 		mov r1, # 0x04
 121 00ee 0160     		str r1, [r0]
 122 00f0 00F016F9 		bl lcdxieshuju
 123              	
 124 00f4 4FF00101 		mov r1, # 0x01
 125 00f8 0160     		str r1, [r0]
 126 00fa 00F0D8F8 		bl lcdxiemingling
 127 00fe 4FF00801 		mov r1, # 0x08
 128 0102 0160     		str r1, [r0]
 129 0104 00F00CF9 		bl lcdxieshuju
 130              	
 131 0108 4FF00301 	        mov r1, # 0x03
 132 010c 0160     		str r1, [r0]
 133 010e 00F0CEF8 		bl lcdxiemingling
 134 0112 4FF00001 		mov r1, # 0x00
 135 0116 0160     		str r1, [r0]
 136 0118 00F002F9 		bl lcdxieshuju
 137              	
 138 011c 4FF00F01 		mov r1, # 0xf
 139 0120 0160     		str r1, [r0]
 140 0122 00F0C4F8 		bl lcdxiemingling
 141 0126 4FF00001 		mov r1, # 0x00
 142 012a 0160     		str r1, [r0]
 143 012c 00F0F8F8 		bl lcdxieshuju
 144              	
 145 0130 4FF01001 		mov r1, # 0x10
 146 0134 0160     		str r1, [r0]
 147 0136 00F0BAF8 		bl lcdxiemingling
 148 013a 4FF00001 		mov r1, # 0x00
 149 013e 0160     		str r1, [r0]
 150 0140 00F0EEF8 		bl lcdxieshuju
 151              	
 152 0144 4FF01201 		mov r1, # 0x12
 153 0148 0160     		str r1, [r0]
 154 014a 00F0B0F8 		bl lcdxiemingling
 155 014e 4FF01101 		mov r1, # 0x11
 156 0152 0160     		str r1, [r0]
 157 0154 00F0E4F8 		bl lcdxieshuju
 158              	
 159 0158 4FF02001 		mov r1, # 0x20
 160 015c 0160     		str r1, [r0]
 161 015e 00F0A6F8 		bl lcdxiemingling
 162 0162 4FF02701 		mov r1, # 0x27
 163 0166 0160     		str r1, [r0]
 164 0168 00F0DAF8 		bl lcdxieshuju
 165              	
 166 016c 4FF02101 		mov r1, # 0x21
 167 0170 0160     		str r1, [r0]
ARM GAS  1.s 			page 4


 168 0172 00F09CF8 		bl lcdxiemingling
 169 0176 4FF02701 		mov r1, # 0x27
 170 017a 0160     		str r1, [r0]
 171 017c 00F0D0F8 		bl lcdxieshuju
 172              	
 173 0180 4FF03001 		mov r1, # 0x30
 174 0184 0160     		str r1, [r0]
 175 0186 00F092F8 		bl lcdxiemingling
 176 018a 4FF0EF01 		mov r1, # 0xef
 177 018e 0160     		str r1, [r0]
 178 0190 00F0C6F8 		bl lcdxieshuju
 179              	
 180 0194 4FF03101 		mov r1, # 0x31
 181 0198 0160     		str r1, [r0]
 182 019a 00F088F8 		bl lcdxiemingling
 183 019e 4FF0EF01 		mov r1, # 0xef
 184 01a2 0160     		str r1, [r0]
 185 01a4 00F0BCF8 		bl lcdxieshuju
 186              	
 187 01a8 4FF04001 		mov r1, # 0x40
 188 01ac 0160     		str r1, [r0]
 189 01ae 00F07EF8 		bl lcdxiemingling
 190 01b2 4FF00001 		mov r1, # 0x00
 191 01b6 0160     		str r1, [r0]
 192 01b8 00F0B2F8 		bl lcdxieshuju
 193              	
 194 01bc 4FF05001 		mov r1, # 0x50
 195 01c0 0160     		str r1, [r0]
 196 01c2 00F074F8 		bl lcdxiemingling
 197 01c6 4FF00001 		mov r1, # 0x00
 198 01ca 0160     		str r1, [r0]
 199 01cc 00F0A8F8 		bl lcdxieshuju
 200              	
 201 01d0 4FF06001 		mov r1, # 0x60
 202 01d4 0160     		str r1, [r0]
 203 01d6 00F06AF8 		bl lcdxiemingling
 204 01da 4FF00001 		mov r1, # 0x00
 205 01de 0160     		str r1, [r0]
 206 01e0 00F09EF8 		bl lcdxieshuju
 207              	
 208 01e4 4FF06101 		mov r1, # 0x61
 209 01e8 0160     		str r1, [r0]
 210 01ea 00F060F8 		bl lcdxiemingling
 211 01ee 4FF00001 		mov r1, # 0x00
 212 01f2 0160     		str r1, [r0]
 213 01f4 00F094F8 		bl lcdxieshuju
 214              	
 215 01f8 4FF06201 		 mov r1, # 0x62
 216 01fc 0160     		 str r1, [r0]
 217 01fe 00F056F8 		 bl lcdxiemingling
 218 0202 4FF00001 		 mov r1, # 0x00
 219 0206 0160     		str r1, [r0]
 220 0208 00F08AF8 		bl lcdxieshuju
 221              	
 222 020c 4FF07001 		 mov r1, # 0x70
 223 0210 0160     		 str r1, [r0]
 224 0212 00F04CF8 		 bl lcdxiemingling
ARM GAS  1.s 			page 5


 225 0216 4FF00001 		 mov r1, # 0x00
 226 021a 0160     		str r1, [r0]
 227 021c 00F080F8 		bl lcdxieshuju
 228              	
 229 0220 4FF07101 		 mov r1, # 0x71
 230 0224 0160     		str r1, [r0]
 231 0226 00F042F8 		bl lcdxiemingling
 232 022a 4FF00001 		mov r1, # 0x00
 233 022e 0160     		str r1, [r0]
 234 0230 00F076F8 		bl lcdxieshuju
 235              	
 236 0234 4FF07201 		mov r1, # 0x72
 237 0238 0160     		str r1, [r0]
 238 023a 00F038F8 		bl lcdxiemingling
 239 023e 4FF00001 		mov r1, # 0x00
 240 0242 0160     		str r1, [r0]
 241 0244 00F06CF8 		bl lcdxieshuju
 242              	
 243 0248 4FF08001 		 mov r1, # 0x80
 244 024c 0160     		 str r1, [r0]
 245 024e 00F02EF8 		bl lcdxiemingling
 246 0252 4FF00001 		 mov r1, # 0x00
 247 0256 0160     		str r1, [r0]
 248 0258 00F062F8 		bl lcdxieshuju
 249              	
 250 025c 4FF09001 		mov r1, # 0x90
 251 0260 0160     		str r1, [r0]
 252 0262 00F024F8 		bl lcdxiemingling
 253 0266 4FF08001 		mov r1, # 0x80
 254 026a 0160     		str r1, [r0]
 255 026c 00F058F8 		bl lcdxieshuju
 256              	
 257              	
 258 0270 4FF0E001 		mov r1, # 0xe0
 259 0274 0160     		str r1, [r0]
 260 0276 00F01AF8 		bl lcdxiemingling
 261 027a 4FF00001 		mov r1, # 0x00
 262 027e 0160     		str r1, [r0]
 263 0280 00F04EF8 		bl lcdxieshuju
 264              	
 265 0284 4FF0F001 		mov r1, # 0xf0
 266 0288 0160     		str r1, [r0]
 267 028a 00F010F8 		bl lcdxiemingling
 268 028e 4FF00001 		mov r1, # 0x00
 269 0292 0160     		str r1, [r0]
 270 0294 00F044F8 		bl lcdxieshuju
 271              	
 272 0298 4FF0F101 		mov r1, # 0xf1
 273 029c 0160     		str r1, [r0]
 274 029e 00F006F8 		bl lcdxiemingling
 275 02a2 4FF00001 		mov r1, # 0x00
 276 02a6 0160     		str r1, [r0]
 277 02a8 00F03AF8 		bl lcdxieshuju
 278              	
 279 02ac 71E0     		b tiaochulcdchushihua
 280              		
 281              	
ARM GAS  1.s 			page 6


 282              	
 283              		
 284              		
 285              		
 286              		
 287              	
 288              		
 289              	lcdxiemingling:
 290 02ae 2DE9FF43 		push {r0-r9, lr}
 291 02b2 DFF88881 		ldr r8, = lcdshuju
 292 02b6 B8E8FF00 		ldmia r8!, {r0-r7}
 293 02ba DFF88481 		ldr r8, = lcddx
 294 02be A8E8FF00 		stmia r8!, {r0-r7}
 295              	
 296 02c2 DFF88081 		ldr r8, = lcdcs
 297 02c6 4FF00009 		mov r9, # 0
 298 02ca C8F80090 		str r9, [r8]
 299              		
 300 02ce DFF87881 		ldr r8, = lcda0
 301 02d2 4FF00109 		mov r9, # 1
 302 02d6 C8F80090 		str r9, [r8]
 303              	
 304 02da DFF87081 		ldr r8, = lcdrd
 305 02de 4FF00109 		mov r9, # 1
 306 02e2 C8F80090 		str r9, [r8]
 307              		
 308 02e6 DFF86881 		ldr r8, = lcdwr
 309 02ea 4FF00009 		mov r9, # 0
 310 02ee C8F80090 		str r9, [r8]
 311              		
 312 02f2 4D4D     		ldr r5, = lcdyanshi
 313              		
 314              	dd1:
 315 02f4 013D     		subs r5, # 1
 316 02f6 FDD1     		bne dd1
 317 02f8 DFF85481 		ldr r8, = lcdwr
 318 02fc 4FF00109 		mov r9, # 1
 319 0300 C8F80090 		str r9, [r8]
 320              	
 321 0304 DFF84081 		ldr r8, = lcda0
 322 0308 4FF00009 		mov r9, # 0
 323 030c C8F80090 		str r9, [r8]
 324              		
 325 0310 DFF83081 		ldr r8, = lcdcs
 326 0314 4FF00109 		mov r9, # 1
 327 0318 C8F80090 		str r9, [r8]
 328              		
 329 031c BDE8FF83 		pop {r0-r9, pc}
 330              	
 331              	lcdxieshuju:
 332 0320 2DE9FF43 		push {r0-r9, lr}
 333 0324 DFF81481 		ldr r8, = lcdshuju
 334 0328 B8E8FF00 		ldmia r8!, {r0-r7}
 335 032c DFF81081 		ldr r8, = lcddx
 336 0330 A8E8FF00 		stmia r8!, {r0-r7}
 337              		
 338 0334 DFF80C81 		ldr r8, = lcdcs
ARM GAS  1.s 			page 7


 339 0338 4FF00009 		mov r9, # 0
 340 033c C8F80090 		str r9, [r8]
 341              		
 342 0340 DFF80481 		ldr r8, = lcda0
 343 0344 4FF00009 		mov r9, # 0
 344 0348 C8F80090 		str r9, [r8]
 345              	
 346 034c DFF8FC80 		ldr r8, = lcdrd
 347 0350 4FF00109 		mov r9, # 1
 348 0354 C8F80090 		str r9, [r8]
 349              		
 350 0358 DFF8F480 		ldr r8, = lcdwr
 351 035c 4FF00009 		mov r9, # 0
 352 0360 C8F80090 		str r9, [r8]
 353              		
 354 0364 304D     		ldr r5, = lcdyanshi
 355              	dd2:
 356 0366 013D     		subs r5, # 1
 357 0368 FDD1     		bne dd2
 358 036a DFF8E480 		ldr r8, = lcdwr
 359 036e 4FF00109 		mov r9, # 1
 360 0372 C8F80090 		str r9, [r8]
 361              	
 362 0376 DFF8D080 		ldr r8, = lcda0
 363 037a 4FF00109 		mov r9, # 1
 364 037e C8F80090 		str r9, [r8]
 365              		
 366 0382 DFF8C080 		ldr r8, = lcdcs
 367 0386 4FF00109 		mov r9, # 1
 368 038a C8F80090 		str r9, [r8]
 369              		
 370 038e BDE8FF83 		pop {r0-r9, pc}
 371              		
 372              		
 373              	tiaochulcdchushihua:
 374 0392 2948     		ldr r0, = 0x20000300
 375 0394 4FF00001 		mov r1, # 0x00
 376 0398 0160     		str r1, [r0]
 377 039a FFF788FF 		bl lcdxiemingling
 378              	
 379 039e 4FF00C01 		mov r1, # 0x0c
 380 03a2 0160     		str r1, [r0]
 381 03a4 FFF7BCFF 		bl lcdxieshuju
 382              	
 383 03a8 4FF01201 		mov r1, # 0x12
 384 03ac 0160     		str r1, [r0]
 385 03ae FFF77EFF 		bl lcdxiemingling
 386              	
 387 03b2 4FF03101 		mov r1, # 0x31
 388 03b6 0160     		str r1, [r0]
 389 03b8 FFF7B2FF 		bl lcdxieshuju
 390              	
 391 03bc 4FF0B001 		mov r1, # 0xb0
 392 03c0 0160     		str r1, [r0]
 393 03c2 FFF774FF 		bl lcdxiemingling
 394              	
 395 03c6 4FF04101 		mov r1, # 0x41
ARM GAS  1.s 			page 8


 396 03ca 0160     		str r1, [r0]
 397 03cc FFF7A8FF 		bl lcdxieshuju
 398              		
 399 03d0 DFE7     		b tiaochulcdchushihua
 400              		
 401              	_nmi_handler:
 402 03d2 7047     		bx lr
 403              	_hard_fault:
 404 03d4 7047     		bx lr
 405              	_memory_fault:
 406 03d6 7047     		bx lr
 407              	_bus_fault:
 408 03d8 7047     		bx lr
 409              	_usage_fault:
 410 03da 7047     		bx lr
 411              	_dingshiqi:
 412 03dc 7047     		bx lr
 413              	
 414              		
 415              		
 416 03de 00000010 		
 416      0240834D 
 416      01000000 
 416      02000020 
 416      02400410 
ARM GAS  1.s 			page 9


DEFINED SYMBOLS
                 1.s:4      .data:00000000 lcdchushihuamabiao
                 1.s:8      *ABS*:20005000 STACKINIT
                 1.s:9      *ABS*:00000fa0 lcdyanshi
                 1.s:10     *ABS*:00013880 resyanshi
                 1.s:11     *ABS*:422201a8 lcdwr
                 1.s:12     *ABS*:422201ac lcdrd
                 1.s:13     *ABS*:422201b0 lcdcs
                 1.s:15     *ABS*:4221818c lcda0
                 1.s:16     *ABS*:42218190 lcdrst
                 1.s:17     *ABS*:422201a0 fengmingqi
                 1.s:18     *ABS*:422181a0 lcddx
                 1.s:19     *ABS*:22006000 lcdshuju
                 1.s:21     .text:00000000 vectors
                 1.s:38     .text:00000040 _start
                 1.s:401    .text:000003d2 _nmi_handler
                 1.s:403    .text:000003d4 _hard_fault
                 1.s:405    .text:000003d6 _memory_fault
                 1.s:407    .text:000003d8 _bus_fault
                 1.s:409    .text:000003da _usage_fault
                 1.s:411    .text:000003dc _dingshiqi
                            .text:00000000 $d
                 1.s:39     .text:00000040 $t
                 1.s:49     .text:00000068 shizhong
                 1.s:53     .text:0000006e gsszbz
                 1.s:59     .text:00000078 rccchushihua
                 1.s:69     .text:0000008c chaxun
                 1.s:75     .text:00000096 rccgg
                 1.s:79     .text:0000009c rccapb2enr
                 1.s:87     .text:000000aa ioshezhi
                 1.s:100    .text:000000c2 lcdresres
                 1.s:107    .text:000000d0 lcdresres1
                 1.s:115    .text:000000de lcdchushihua
                 1.s:289    .text:000002ae lcdxiemingling
                 1.s:331    .text:00000320 lcdxieshuju
                 1.s:373    .text:00000392 tiaochulcdchushihua
                 1.s:314    .text:000002f4 dd1
                 1.s:355    .text:00000366 dd2
                 1.s:416    .text:000003de $d

NO UNDEFINED SYMBOLS
