ARM GAS  1.s 			page 1


   1              		 .thumb                 
   2              	         .syntax unified
   3              	.section .data
   4 0000 88BEC494 	shumaguanmabiao: .byte 0x88,0xbe,0xc4,0x94,0xb2,0x91,0x81,0xbc,0x80,0x90
   4      B29181BC 
   4      8090
   5              		
   6              		
   7              		
   8              	        	.equ STACKINIT,          0x20005000
   9              			.equ systickbiaozhi,     0x20000300
  10              	.section .text
  11              	xiangliangbiao:
  12 0000 00500020 		                .word STACKINIT
  13 0004 41000000 		                .word _start + 1
  14 0008 73010000 		                .word _nmi_handler + 1
  15 000c 75010000 		                .word _hard_fault  + 1
  16 0010 77010000 		                .word _memory_fault + 1
  17 0014 79010000 		                .word _bus_fault + 1
  18 0018 7B010000 		                .word _usage_fault + 1
  19 001c 00000000 				.word 0
  20 0020 00000000 				.word 0
  21 0024 00000000 				.word 0
  22 0028 00000000 				.word 0
  23 002c 00000000 				.word 0
  24 0030 00000000 				.word 0
  25 0034 00000000 				.word 0
  26 0038 00000000 				.word 0
  27 003c 7D010000 				.word systickdingshiqi +1
  28              		
  29              	_start:
  30 0040 4160     		str r1, [r0, # 0x04]
  31 0042 5648     		ldr r0, = 0x40021000
  32 0044 5649     		ldr r1, = 0x14D83
  33 0046 0160     		str r1, [r0]
  34              	gsszbz: 
  35 0048 0268     		ldr r2, [r0]
  36 004a 4FF40031 		ldr r1, = 0x20000
  37 004e 1142     		tst r1, r2           @HSE高速时钟标志位           
  38 0050 00D0     		beq rccchushihua
  39 0052 F9E7     		b gsszbz
  40              	rccchushihua: 
  41 0054 5348     		ldr r0, = 0x40022000
  42 0056 4FF03201 		mov r1, # 0x00000032
  43 005a 0160     		str r1, [r0]           @FLASH缓冲 缓冲开启 
  44 005c 5248     		ldr r0, = 0x40021004
  45 005e 5349     		ldr r1, = 0x1D8400
  46 0060 0160     		str r1, [r0]
  47 0062 4E48     		ldr r0, = 0x40021000
  48 0064 5249     		ldr r1, = 0x1033D03
  49 0066 0160     		str r1, [r0]
  50              	chaxun:
  51 0068 0268     		ldr r2, [r0]
  52 006a 4FF00071 		ldr r1, = 0x2000000
  53 006e 1142     		tst r1, r2
  54 0070 00D0     		beq rccgg               @等待PLL稳定
  55 0072 F9E7     		b chaxun
ARM GAS  1.s 			page 2


  56              	rccgg:
  57 0074 4C48     		ldr r0, = 0x40021004
  58 0076 4F49     		ldr r1, = 0x1D8402
  59 0078 0160     		str r1, [r0]            @ PLL作为系统时钟
  60              	
  61              	neicunqingling:                  @ 无聊把内存清0
  62 007a 4FF00050 		ldr r0, = 0x20000000
  63 007e 44F6FF72 		ldr r2, = 0x4fff         @ 区域是0X4FFF大的地方
  64 0082 4FF00001 		mov r1, # 0              @ 写0
  65              	qingling_xunhuan:                
  66 0086 40F8041B 		str r1, [r0], 4         
  67 008a 013A     		subs r2, # 1
  68 008c FBD1     		bne qingling_xunhuan     @ 循环清0
  69              	
  70              	jicunqiqingling:
  71 008e 4FF00000 		mov r0, # 0
  72 0092 4FF00001 		mov r1, # 0
  73 0096 4FF00002 		mov r2, # 0
  74 009a 4FF00003 		mov r3, # 0
  75 009e 4FF00004 		mov r4, # 0
  76 00a2 4FF00005 		mov r5, # 0
  77 00a6 4FF00006 		mov r6, # 0
  78 00aa 4FF00007 		mov r7, # 0
  79 00ae 4FF00008 		mov r8, # 0
  80 00b2 4FF00009 		mov r9, # 0
  81 00b6 4FF0000A 		mov r10, # 0
  82 00ba 4FF0000B 		mov r11, # 0
  83 00be 4FF0000C 		mov r12, # 0
  84              		
  85              		
  86              	systick:
  87              		@0xe000e010 SYSTICK控制状态寄存器
  88              		@0=定时器使能
  89              		@1=（1倒数到0发出异常请，0无动作）
  90              		@2=（0外部始终1内核时钟）
  91              		@16= 如果赏赐读取本寄存器后SYSTICK已经数到0则该位为1如果读取该位则清0
  92              		@0xe000e014 重载值寄存器 数到0将要被重载的值
  93              		@0xe000e018 当前值，写清0
  94              		@0e000e01c
  95              		@0-23 10MS的时间内倒计数的格数
  96              		@ 30=(1教准不是准确的10MS)（0教准是准确的10MS）
  97 00c2 3D48     		ldr r0, = 0xe000e010
  98 00c4 4FF00001 		mov r1, # 0               
  99 00c8 0160     		str r1, [r0]            @ 关掉SYSTICK
 100 00ca 6FF07F41 		ldr r1, = 0xffffff      @ 重载数
 101 00ce 4160     		str r1, [r0, # 4]       @ 写进重载数
 102 00d0 8160     		str r1, [r0, # 8]       @ 清0当前数
 103 00d2 4FF00001 		mov r1, # 0
 104 00d6 0160     		str r1, [r0]            @ 关定时器
 105 00d8 3848     		ldr r0, = 0xe000ed23  @systick优先级
 106 00da 4FF0F001 		mov r1, # 240
 107 00de 0160     		str r1, [r0]
 108              	
 109              		
 110              	waisheshizhong:
 111              		
 112              	
ARM GAS  1.s 			page 3


 113              	@APB2_ENR=0X40021018 0(AFIO)1(保留)2(PA)3(PB)4(PC)5(PD)6(PE)78(保留)
 114              	@9(ADC1)10(ADC2)11(TIM1)12(SPI1)13(保留)14（USART1）15(保留)
 115 00e0 3748     		ldr r0, = 0x40021018 @ APB2_ENR
 116 00e2 3C21     		ldr r1, = 0x3c
 117 00e4 0160     		str r1, [r0]
 118              		
 119 00e6 3748     		ldr r0, = 0x40010c00
 120              		@PA=0x40010800 PB=0x40010c00 PC=0x40011000 
 121              		@PD=0x40011400 PE=0x40011800 PF=0x40011c00 
 122              		@ IO 1(通用推挽10M)2(通用推挽2M)3(通用推挽50M)
 123              		@4(浮空输入)5(通用开漏输出10M)6(通用开漏输出2M)
 124              		@7(通用开漏输出50M)8(上拉下拉输入)9(复用功能推挽输出10M)
 125              		@A(复用功能推挽输出2M)B(复用功能推挽输出50M)C(保留)
 126              		@D(复用功能开溜输出10M)E(复用功能开漏输出2M)F(复用功能开漏输出50M)
 127              		@ 偏移0X8=IDR 输入数据寄存器
 128              		@偏移0XC=ODR 输出数据寄存器
 129              		@偏移0X10=BSRR IO开
 130              		@偏移0X14=BRR  IO关
 131 00e8 4FF05531 		ldr r1, = 0x55555555
 132 00ec 0160     		str r1, [r0]
 133 00ee 4160     		str r1, [r0, # 0x04]
 134              	
 135 00f0 3148     		ldr r0, = 0xe000e010
 136 00f2 4FF00701 		mov r1, # 7
 137 00f6 0160     		str r1, [r0]
 138              		
 139              	zhuchengxu:
 140              	jiancedingshiqibiaozhi:
 141 00f8 334E     		ldr r6, = systickbiaozhi
 142 00fa 3768     		ldr r7, [r6]         @ 取出计时标志位
 143 00fc 012F     		cmp r7, # 1          @ 查询是不是到了时间
 144 00fe 09D1     		bne shumaguan        @ 没到条砖数码管显视
 145 0100 4FF00007 		mov r7, # 0         
 146 0104 3760     		str r7, [r6]         @ 清除标志
 147 0106 0BF1010B 		add r11, r11, # 1    @ 每次标志R11加1 
 148 010a BBF1640F 		cmp r11, # 100       @ 如果R11= 100 
 149 010e 01D1     		bne shumaguan        @ 不等于100调转shumaguan
 150 0110 4FF0000B 		mov r11, # 0         @ 等于100 R11清0
 151              	shumaguan:                   @ 下面要取出R11对应的数码管数字的显视码
 152 0114 4FF00A0A 		mov r10, # 10        @ 被除数
 153 0118 BBFBFAF8 		udiv r8, r11, r10    @ 取出十位数的个数
 154 011c 08FB0AF6 		mul  r6, r8, r10     @ 还原没有个位的十进制数
 155 0120 ABEB0607 		sub r7, r11, r6      @ 求出个位数
 156 0124 2948     		ldr r0, = shumaguanmabiao  @ 数码管码表
 157 0126 10F80810 		ldrb r1, [r0, r8]    @ 取出十位对应的码
 158 012a C25D     		ldrb r2, [r0, r7]    @ 取出个位对应的码
 159 012c 4FF00050 		ldr r0, = 0x20000000 @ 放结果的内存位置
 160 0130 0170     		strb r1, [r0]        @ 把个位的码放到最低8位
 161 0132 4270     		strb r2, [r0, # 1]   @ 把十位的码放到高一个8位的地方
 162 0134 00F001F8 		bl xie595            @ 调用74HC595函数
 163 0138 DEE7     		b zhuchengxu         @ 调转 zhuchengxu
 164              	
 165              		
 166              	xie595:
 167              		@74HC595 11=输入锁存 12=输出锁存 14=数据
 168 013a 2DE9FF5F 		push {r0-r12,lr}
 169 013e EC46     		mov r12, sp          @把SP指针保存到R12
ARM GAS  1.s 			page 4


 170 0140 2348     		ldr r0, = 0x422181b0 @ 位带地址，595的11脚  
 171 0142 4FF00101 		mov r1, # 1          @ 1
 172 0146 4FF00002 		mov r2, # 0          @ 0
 173 014a 4FF00853 		ldr r3, = 0x22000000 @ 0x20000000的位带
 174 014e 4FF01004 		mov r4, # 16         @ 写两个8位
 175              	xunhuan595:
 176 0152 8260     		str r2, [r0, # 0x08] @ 595_11 输入锁存
 177 0154 53F8045B 		ldr r5, [r3], # 4    @ 取出一位的数据
 178 0158 0560     		str r5, [r0]         @14脚输出数据
 179 015a 8160     		str r1, [r0, # 0x08] @ 锁存
 180 015c 013C     		subs r4, # 1         
 181 015e F8D1     		bne xunhuan595       @循环16次
 182 0160 4260     		str r2, [r0, # 0x04] @ 12输出锁存
 183 0162 4160     		str r1, [r0, # 0x04] 
 184 0164 4FF6FF75 		ldr r5, = 0xffff     @ 延时数
 185              	xunhuan1_595:
 186 0168 013D     		subs r5, # 1
 187 016a FDD1     		bne xunhuan1_595     @ 延时
 188 016c E546     		mov sp, r12          @ 恢复指针
 189 016e BDE8FF9F 		pop {r0-r12,pc}      @ 弹出各寄存器返回
 190              	_nmi_handler:
 191 0172 7047     		bx lr
 192              	_hard_fault:
 193 0174 7047     		bx lr
 194              	_memory_fault:
 195 0176 7047     		bx lr
 196              	_bus_fault:
 197 0178 7047     		bx lr
 198              	_usage_fault:
 199 017a 7047     	 	bx lr
 200              	systickdingshiqi:              @ SYSTICK定时期中断服务函数
 201 017c 2DE9FF5F 		push {r0-r12,lr}
 202 0180 EC46     		mov r12, sp
 203 0182 1448     		ldr r0, = 0xe00ed04
 204 0184 4FF00071 		ldr r1, = 0x2000000 
 205 0188 0160     		str r1, [r0]         @ 挂起SYSTICK
 206 018a 0F4A     		ldr r2, = systickbiaozhi @ 计数到标志
 207 018c 1168     		ldr r1, [r2]             @ 取出标志
 208 018e 41F00101 		orr r1, # 1            
 209 0192 1160     		str r1, [r2]             @ 储存标志
 210 0194 E546     		mov sp, r12              @恢复指针
 211 0196 BDE8FF9F 		pop {r0-r12,pc}
 211      00000010 
 211      0240834D 
 211      01000020 
 211      02400410 
ARM GAS  1.s 			page 5


DEFINED SYMBOLS
                 1.s:4      .data:00000000 shumaguanmabiao
                 1.s:8      *ABS*:20005000 STACKINIT
                 1.s:9      *ABS*:20000300 systickbiaozhi
                 1.s:11     .text:00000000 xiangliangbiao
                 1.s:29     .text:00000040 _start
                 1.s:190    .text:00000172 _nmi_handler
                 1.s:192    .text:00000174 _hard_fault
                 1.s:194    .text:00000176 _memory_fault
                 1.s:196    .text:00000178 _bus_fault
                 1.s:198    .text:0000017a _usage_fault
                 1.s:200    .text:0000017c systickdingshiqi
                            .text:00000000 $d
                 1.s:30     .text:00000040 $t
                 1.s:34     .text:00000048 gsszbz
                 1.s:40     .text:00000054 rccchushihua
                 1.s:50     .text:00000068 chaxun
                 1.s:56     .text:00000074 rccgg
                 1.s:61     .text:0000007a neicunqingling
                 1.s:65     .text:00000086 qingling_xunhuan
                 1.s:70     .text:0000008e jicunqiqingling
                 1.s:86     .text:000000c2 systick
                 1.s:110    .text:000000e0 waisheshizhong
                 1.s:139    .text:000000f8 zhuchengxu
                 1.s:140    .text:000000f8 jiancedingshiqibiaozhi
                 1.s:151    .text:00000114 shumaguan
                 1.s:166    .text:0000013a xie595
                 1.s:175    .text:00000152 xunhuan595
                 1.s:185    .text:00000168 xunhuan1_595
                 1.s:211    .text:0000019a $d
                 1.s:211    .text:0000019c $d

NO UNDEFINED SYMBOLS
