ARM GAS  1.s 			page 1


   1              		@@ 单片机stm32f030f4p6
   2              		@lcr
   3              		@作者：yjmwxwx
   4              		@时间：2021-07-31
   5              		@编译器：ARM-NONE-EABI
   6              		.thumb
   7              		.syntax unified
   8              		.section .data
   9              	zheng_xian_100khz:
  10 0000 07090B0D 		.byte 0x7,0x9,0xb,0xd,0xe,0xe,0xe,0xd,0xb,0x9,0x7,0x5,0x3,0x1,0x0,0x0,0x0,0x1,0x3,0x5
  10      0E0E0E0D 
  10      0B090705 
  10      03010000 
  10      00010305 
  11 0014 00000000 		.align 4
  11      00000000 
  11      00000000 
  12              	zheng_xian_10khz:
  13 0020 0E0E0E0F 		.byte 14,14,14,15,15,16,16,16,17,17,18,18,18,19,19,20,20,20,21,21,21,22,22,22,23,23,23,24,24,24,24
  13      0F101010 
  13      11111212 
  13      12131314 
  13      14141515 
  14 00e8 00000000 		.align 4
  14      00000000 
  15              	zheng_xian_1khz:
  16 00f0 1C1C1C1C 		.byte 28,28,28,28,28,28,29,29,29,29,29,29,30,30,30,30,30,30,31,31,31,31,31,31,32,32,32,32,32,32,33
  16      1C1C1D1D 
  16      1D1D1D1D 
  16      1E1E1E1E 
  16      1E1E1F1F 
  17 04d8 00000000 		.align 4
  17      00000000 
  18              	zheng_xian_100hz:
  19 04e0 38383838 		.byte 56,56,56,56,56,56,56,56,56,56,56,56,56,56,56,57,57,57,57,57,57,57,57,57,57,57,57,57,57,58,58
  19      38383838 
  19      38383838 
  19      38383839 
  19      39393939 
  20              	
  21 1868 00000000 		.align 4
  21      00000000 
  22              	cos_sin_biao_100k:
  23 1870 00800000 		.int 0x00008000,0x00000000,0x0000678D,0xFFFFB4C4,0x0000278D,0xFFFF8644,0xFFFFD873,0xFFFF8644,0xFFF
  23      00000000 
  23      8D670000 
  23      C4B4FFFF 
  23      8D270000 
  24              	cos_sin_biao_10k:
  25 1914 00800000 		.int 0x00008000,0x00000000,0x00007FBF,0xFFFFF7F7,0x00007EFD,0xFFFFEFF6,0x00007DBB,0xFFFFE804,0x000
  25      00000000 
  25      BF7F0000 
  25      F7F7FFFF 
  25      FD7E0000 
  26              	cos_sin_biao_100_1k:
  27 1f58 00800000 		.int 0x00008000,0x00000000,0x00007FFF,0xFFFFFF33,0x00007FFD,0xFFFFFE65,0x00007FFA,0xFFFFFD97,0x000
  27      00000000 
ARM GAS  1.s 			page 2


  27      FF7F0000 
  27      33FFFFFF 
  27      FD7F0000 
  28              	shangbi_liangcheng:
  29 3e98 0E000A00 		.short 0x0e,0x0a,0x06,0x02
  29      06000200 
  30 3ea0 00000000 		.short 0x00,0x00,0x200,0x200
  30      00020002 
  31 3ea8 40004000 		.short 0x40,0x40,0x240,0x240
  31      40024002 
  32 3eb0 40024002 		.short 0x240,0x240,0x240
  32      4002
  33              	xiabi_liangcheng:	
  34 3eb6 00000000 		.short 0x00,0x00,0x00,0x00
  34      00000000 
  35 3ebe 00000200 		.short 0x00,0x02,0x200,0x202
  35      00020202 
  36 3ec6 40004200 		.short 0x40,0x42,0x240,0x242
  36      40024202 
  37 3ece 46024A02 		.short 0x246,0x24a,0x24e
  37      4E02
  38 3ed4 00000000 		.align 4
  38      00000000 
  38      00000000 
  39              	zukang_xiaoshu_dian:			@jdjd
  40 3ee0 FF020203 		.byte 0xff,0x02,0x02,0x03
  41 3ee4 03FFFF02 		.byte 0x03,0xff,0xff,0x02
  42 3ee8 020303FF 		.byte 0x02,0x03,0x03,0xff
  43 3eec 010202   		.byte 0x01,0x02,0x02
  44 3eef 00       		.align 4
  45              	zukang_huansuan_biao:
  46 3ef0 379A0000 		.int 39479,12124,27890,10922
  46      5C2F0000 
  46      F26C0000 
  46      AA2A0000 
  47 3f00 00800000 		.int 32768,9830,32768,9830
  47      66260000 
  47      00800000 
  47      66260000 
  48 3f10 00800000 		.int 32768,9830,32768,9830
  48      66260000 
  48      00800000 
  48      66260000 
  49 3f20 00800000 		.int 32768,8856,27197
  49      98220000 
  49      3D6A0000 
  50              	zukang_danwei:
  51              		@毫欧=0XF46D，欧=0XF420, 千欧=0XF44B，兆欧=0XF44D
  52 3f2c 6DF40000 		.int 0xf46d,0xf420,0xf420,0xf420
  52      20F40000 
  52      20F40000 
  52      20F40000 
  53 3f3c 20F40000 		.int 0xf420,0xf420,0xf420,0xf44b
  53      20F40000 
  53      20F40000 
  53      4BF40000 
  54 3f4c 4BF40000 		.int 0xf44b,0xf44b,0xf44b,0xf44b
ARM GAS  1.s 			page 3


  54      4BF40000 
  54      4BF40000 
  54      4BF40000 
  55 3f5c 4DF40000 		.int 0xf44d,0xf44d,0xf44d
  55      4DF40000 
  55      4DF40000 
  56 3f68 00000000 		.align 4
  56      00000000 
  57              	
  58              	kong:
  59 3f70 20202020 		.int 0x20202020
  60              	_fu:
  61 3f74 2D       		.ascii "-"
  62              	yjmwxwx:
  63 3f75 796A6D77 		.ascii "yjmwxwx-20210731"
  63      7877782D 
  63      32303231 
  63      30373331 
  64 3f85 00000000 		.align 4
  64      00000000 
  64      000000
  65              		.equ STACKINIT,        	        0x20001000
  66              		.equ asciimabiao,		0x20000000
  67              		.equ lcd_beiguang,		0x20000020
  68              		.equ shangbi_r, 		0x20000024
  69              		.equ shangbi_i,			0x20000028
  70              		.equ xiabi_r,			0x2000002c
  71              		.equ xiabi_i,			0x20000030
  72              		.equ shangxiabi_qiehuan,	0x20000034
  73              		.equ liangcheng,		0x20000038
  74              		.equ z_r,			0x2000003c
  75              		.equ z_i,			0x20000040
  76              		.equ dma_r,			0x20000044
  77              		.equ dma_i,			0x20000048
  78              		.equ huandangyanshi,		0x2000004c
  79              		.equ shangbi_rr,		0x20000050
  80              		.equ shangbi_ii,		0x20000054
  81              		.equ xiabi_rr,			0x20000058
  82              		.equ xiabi_ii,			0x2000005c
  83              		.equ jishu,			0x20000060
  84              		.equ xianshi_biaozhi,		0x20000064
  85              		.equ z_fudu,			0x20000068
  86              		.equ cossin,			0x2000006c
  87              		.equ pinlv,			0x20000070
  88              		.equ anjian,			0x20000074
  89              		.equ shezhi_pinlv,		0x20000078
  90              		.equ dianyabiao,		0x20000100
  91              		.equ lvboqizhizhen,		0x200008d0
  92              		.equ lvboqihuanchong,		0x200008d8
  93              		.equ lvboqizhizhen1,            0x200009e0
  94              		.equ lvboqihuanchong1,          0x200009e8
  95              	        .equ lvboqizhizhen2,            0x20000af0
  96              		.equ lvboqihuanchong2,          0x20000af8
  97              		.equ lvboqizhizhen3,            0x20000c00
  98              		.equ lvboqihuanchong3,          0x20000c08
  99              		
 100              		
ARM GAS  1.s 			page 4


 101              		.section .text
 102              	
 103              	vectors:
 104 0000 00100020 		.word STACKINIT
 105 0004 B1000000 		.word _start + 1
 106 0008 B90C0000 		.word _nmi_handler + 1
 107 000c BB0C0000 		.word _hard_fault  + 1
 108 0010 00000000 		.word 0
 109 0014 00000000 		.word 0
 110 0018 00000000 		.word 0
 111 001c 00000000 		.word 0
 112 0020 00000000 		.word 0
 113 0024 00000000 		.word 0
 114 0028 00000000 		.word 0
 115 002c BD0C0000 		.word _svc_handler +1
 116 0030 00000000 		.word 0
 117 0034 00000000 		.word 0
 118 0038 BF0C0000 		.word _pendsv_handler +1
 119 003c C10C0000 		.word _systickzhongduan +1           @ 15
 120 0040 8B0D0000 		.word aaa +1     @ _wwdg +1          @ 0
 121 0044 8B0D0000 		.word aaa +1     @_pvd +1            @ 1
 122 0048 8B0D0000 		.word aaa +1     @_rtc +1            @ 2
 123 004c 8B0D0000 		.word aaa +1     @_flash +1          @ 3
 124 0050 8B0D0000 		.word aaa +1	@ _rcc + 1           @ 4
 125 0054 8B0D0000 		.word aaa +1      @_exti0_1  +1      @ 5
 126 0058 8B0D0000 		.word aaa +1      @ _exti2_3 +1      @ 6
 127 005c 8B0D0000 		.word aaa +1       @_exti4_15 +1     @ 7
 128 0060 8B0D0000 		.word aaa +1                         @ 8
 129 0064 8B0D0000 		.word aaa +1	@__dma_wan  +1	     @ 9
 130 0068 8B0D0000 		.word aaa +1    @_dma1_2_3 +1        @ 10
 131 006c 8B0D0000 		.word aaa +1       @_dma1_4_5 +1     @ 11
 132 0070 8B0D0000 		.word aaa +1	 @_adc1 +1           @ 12
 133 0074 8B0D0000 		.word aaa +1       @_tim1_brk_up +1  @ 13
 134 0078 8B0D0000 		.word aaa +1        @ _tim1_cc +1    @ 14
 135 007c 8B0D0000 		.word aaa +1         @_tim2 +1       @ 15
 136 0080 8B0D0000 		.word aaa +1          @_tim3 +1      @ 16
 137 0084 8B0D0000 		.word aaa +1                         @ 17
 138 0088 8B0D0000 		.word aaa +1		             @ 18
 139 008c 8B0D0000 		.word aaa +1	@_tim14 +1           @ 19
 140 0090 8B0D0000 		.word aaa +1                         @ 20
 141 0094 8B0D0000 		.word aaa +1         @_tim16 +1      @ 21
 142 0098 8B0D0000 		.word aaa +1         @_tim17 +1      @ 22
 143 009c 8B0D0000 		.word aaa +1          @_i2c   +1     @ 23
 144 00a0 8B0D0000 		.word aaa +1                         @ 24
 145 00a4 8B0D0000 		.word aaa +1           @_spi   +1    @ 25
 146 00a8 8B0D0000 		.word aaa +1                         @ 26
 147 00ac 8B0D0000 		.word aaa +1         @_usart1 +1     @ 27
 148              		.align 2
 149              	_start:
 150              	shizhong:
 151 00b0 4E4A     		ldr r2, = 0x40022000   @FLASH访问控制
 152 00b2 3221     		movs r1, # 0x32
 153 00b4 1160     		str r1, [r2]           @FLASH缓冲 缓冲开启
 154 00b6 4E48     		ldr r0, = 0x40021000 @ rcc
 155 00b8 4E49     		ldr r1, = 0x10001
 156 00ba 0160     		str r1, [r0]
 157              	denghse:
ARM GAS  1.s 			page 5


 158 00bc 0168     		ldr r1, [r0]
 159 00be 8903     		lsls r1, r1, # 14
 160 00c0 FCD5     		bpl denghse
 161              	dengpllguan:
 162 00c2 0168     		ldr r1, [r0]
 163 00c4 8901     		lsls r1, r1, # 6
 164 00c6 FCD4     		bmi dengpllguan
 165 00c8 4B49     		ldr r1, = 0x150002	@0x150002
 166 00ca 0046     		mov r0, r0
 167 00cc 4160     		str r1, [r0, # 0x04]
 168 00ce 0046     		mov r0, r0
 169 00d0 4A49     		ldr r1, = 0x1010000
 170 00d2 0046     		mov r0, r0
 171 00d4 0160     		str r1, [r0]
 172              	
 173              	dengpll:
 174 00d6 0168     		ldr r1, [r0]
 175 00d8 8901     		lsls r1, # 6
 176 00da FCD5     		bpl dengpll
 177              	
 178              	
 179 00dc 4849     		ldr r1, = 100
 180 00de 0163     		str r1, [r0, # 0x30]
 181              	
 182              	_waisheshizhong:	                         @ 外设时钟
 183              		@+0x14=RCC_AHBENR
 184              		@ 0=DMA @ 2=SRAM @ 4=FLITF@ 6=CRC @ 17=PA @ 18=PB @ 19=PC @ 20=PD @ 22=PF
 185 00e0 4348     		ldr r0, = 0x40021000
 186 00e2 4849     		ldr r1, = 0x60001
 187 00e4 4161     		str r1, [r0, # 0x14]
 188              	
 189              		@+0x18外设时钟使能寄存器 (RCC_APB2ENR)
 190              		@0=SYSCFG @5=USART6EN @9=ADC @11=TIM1 @12=SPI1 @14=USART1 @16=TIM15 @17=TIM16 @18=TIM17 @22=DBGMCU
 191 00e6 4849     		ldr r1, = 0x1a00
 192 00e8 8161     		str r1, [r0, # 0x18]
 193              		@+0X1C=RCC_APB1ENR
 194              		@ 1=TIM3 @ 4=TIM6 @ 5=TIM7 @ 8=TIM14 @ 11=WWDG @ 14=SPI @ 17=USRT2 @ 18=USART3 @ 20=USART5 @ 21=I2
 195              		@ 22=I2C2 @ 23=USB @ 28=PWR
 196 00ea 484A     		ldr r2, = 0x902
 197 00ec C261     		str r2, [r0, # 0x1c]
 198              	
 199              	_neicunqingling:
 200 00ee 4848     		ldr r0, = 0x20000000
 201 00f0 0021     		movs r1, # 0
 202 00f2 484B     		ldr r3, = 0x1000
 203              	_neicunqinglingxunhuan:
 204 00f4 043B     		subs r3, # 4
 205 00f6 C150     		str r1, [r0, r3]
 206 00f8 FCD1     		bne _neicunqinglingxunhuan
 207              	
 208              	_waishezhongduan:					@外设中断
 209              		@0xE000E100    0-31  写1开，写0没效
 210              		@0XE000E180    0-31 写1关，写0没效
 211              		@0XE000E200    0-31 挂起，写0没效
 212              		@0XE000E280    0-31 清除， 写0没效
 213 00fa 4748     		ldr r0, =  0xe000e100
 214 00fc 4749     		ldr r1, = 0x200 @0x10200  @ 0x10000
ARM GAS  1.s 			page 6


 215 00fe 0160     		str r1, [r0]
 216              		
 217              	@_kanmengou:
 218              	@	ldr r0, = 0x40003000
 219              	@	ldr r1, = 0x5555
 220              	@	str r1, [r0]
 221              	@	movs r1, # 7
 222              	@	str r1, [r0, # 4]
 223              	@	ldr r1, = 0xfff
 224              	@	str r1, [r0, # 8]
 225              	@	ldr r1, = 0xaaaa
 226              	@	str r1, [r0]
 227              	@	ldr r1, = 0xcccc
 228              	@	str r1, [r0]
 229              		
 230              	io_she_zhi:
 231              		@@@@@@@@@@@@@@@@@@@@@@@@@@@@@@@@@@@@@@@@@@@@@@@@@@@@@@@@@@@@@@@@@@@@@@@@@@@@@@@@@@@@@@@@@@@@@@
 232              		@a(0x48000000)b(0x48000400)c(0x48000800)d(0x48000c00)f(0x48001400)
 233              		@ 输入（00），通用输出（01），复用功能（10），模拟（11）
 234              		@偏移0x4 = 端口输出类型 @ （0 推挽），（ 1 开漏）
 235              		@偏移0x8 = 输出速度  00低速， 01中速， 11高速
 236              		@偏移0xC = 上拉下拉 (00无上下拉，  01 上拉， 10下拉)
 237              		@偏移0x10 = 输入数据寄存器
 238              		@偏移0x14 = 输出数据寄存器
 239              		@偏移0x18 = 端口开  0-15置位
 240              		@偏移0x28 = 端口关
 241              		@0X20 = 复用低
 242              		@GPIO口0（0-3位）每个IO口占用4位
 243              		@ AF0 = 0X0000, AF1 = 0X0001, AF2 = 0X0010 AF3 = 0X0011, AF4 = 0X0100
 244              		@ AF5 = 0X0101, AF6 = 0X0111, AF7 = 0X1000
 245              		@0x24 = 复用高
 246              		@GPIO口8 （0-3位）每个IO口占用4位
 247              		@ AF0 = 0X0000, AF1 = 0X0001, AF2 = 0X0010 AF3 = 0X0011, AF4 = 0X0100
 248              		@ AF5 = 0X0101, AF6 = 0X0111, AF7 = 0X1000
 249              		@@@@@@@@@@@@@@@@@@@@@@@@@@@@@@@@@@@@@@@@@@@@@@@@@@@@@@@@@@@@@@@@@@@@@@@@@@@@@@@@@@@@@@@@@@@@@@
 250              	
 251 0100 4748     		ldr r0, = 0x48000000
 252 0102 4849     		ldr r1, = 0x28249a57
 253 0104 0160     		str r1, [r0]
 254 0106 B021     		movs r1, 0xb0
 255 0108 4160     		str r1, [r0, # 0x04]
 256 010a 4749     		ldr r1, = 0x30cf00
 257 010c 8160     		str r1, [r0, # 0x08]
 258 010e 4349     		ldr r1, = 0x200
 259 0110 4162     		str r1, [r0, # 0x24]
 260              		
 261 0112 4648     	        ldr r0, = 0x48000400
 262 0114 0421     		movs r1, # 0x04
 263 0116 0160     		str r1, [r0]
 264              	
 265              	spi_chushihua:
 266 0118 4548     		ldr r0, = 0x40013000
 267 011a 4649     		ldr  r1, = 0x708
 268 011c 4160     		str r1, [r0, # 0x04]
 269 011e 4649     		ldr r1, = 0x5c
 270 0120 0160     		str r1, [r0]
 271              	
ARM GAS  1.s 			page 7


 272              	_lcdchushihua:
 273 0122 3320     		movs r0, # 0x33
 274 0124 0021     		movs r1, # 0
 275 0126 00F084FC 		bl _xielcd
 276 012a 00F07DFC 		bl _lcdyanshi
 277              	
 278 012e 3220     		movs r0, # 0x32
 279 0130 0021     		movs r1, # 0
 280 0132 00F07EFC 		bl _xielcd
 281 0136 00F077FC 		bl _lcdyanshi
 282 013a 2820     		movs r0, # 0x28
 283 013c 0021     		movs r1, # 0
 284 013e 00F078FC 		bl _xielcd
 285 0142 00F071FC 		bl _lcdyanshi
 286 0146 0C20     		movs r0, # 0x0c
 287 0148 0021     		movs r1, # 0
 288 014a 00F072FC 		bl _xielcd
 289 014e 00F06BFC 		bl _lcdyanshi
 290 0152 0120     		movs r0, # 0x01
 291 0154 0021     		movs r1, # 0
 292 0156 00F06CFC 		bl _xielcd
 293 015a 00F065FC 		bl _lcdyanshi
 294              	
 295 015e 8020     		movs r0, # 0x80
 296 0160 3649     		ldr r1, = yjmwxwx
 297 0162 1022     		movs r2, # 16
 298 0164 00F052FC 		bl _lcdxianshi
 299 0168 3548     		ldr r0, = 0xffffff
 300              	yjmwxwx_yanshi:
 301 016a 0138     		subs r0, r0, # 1
 302 016c FDD1     		bne yjmwxwx_yanshi
 303              	
 304 016e 0120     		movs r0, # 0x01
 305 0170 0021     		movs r1, # 0
 306 0172 00F05EFC 		bl _xielcd
 307 0176 00F057FC 		bl _lcdyanshi
 308              			
 309              	_adcchushihua:
 310 017a 3248     		ldr r0, = 0x40012400  @ adc基地址
 311 017c 3249     		ldr r1, = 0x80000000
 312 017e 8160     		str r1, [r0, # 0x08]  @ ADC 控制寄存器 (ADC_CR)  @adc校准
 313              	_dengadcjiaozhun:
 314 0180 8168     		ldr r1, [r0, # 0x08]
 315 0182 0900     		movs r1, r1
 316 0184 FCD4     		bmi _dengadcjiaozhun   @ 等ADC校准
 317 0186 0121     		movs r1, # 1
 318 0188 0160     		str r1, [r0]
 319              	_kaiadc:
 320 018a 8168     		ldr r1, [r0, # 0x08]
 321 018c 0122     		movs r2, # 0x01
 322 018e 1143     		orrs r1, r1, r2
 323 0190 8160     		str r1, [r0, # 0x08]
 324              	_deng_adc_wen_ding:
 325 0192 0168     		ldr r1, [r0]
 326 0194 C907     		lsls r1, r1, # 31
 327 0196 FCD5     		bpl _deng_adc_wen_ding @ 等ADC稳定
 328              	_tongdaoxuanze:
ARM GAS  1.s 			page 8


 329 0198 2C49     		ldr r1, = 0x40000000
 330 019a 0161     		str r1, [r0, # 0x10]
 331 019c 2C49     		ldr r1, = 0x01
 332 019e 8162     		str r1, [r0, # 0x28]    @ 通道选择寄存器 (ADC_CHSELR)
 333 01a0 2C49     		ldr r1, = 0x8c3 @ 0xc43		@TIM3 0x8c3 @0x2003 @0x8c3
 334 01a2 C160     		str r1, [r0, # 0x0c]    @ 配置寄存器 1 (ADC_CFGR1)
 335 01a4 0021     		movs r1, # 0
 336 01a6 4161     		str r1, [r0, # 0x14]    @ ADC 采样时间寄存器 (ADC_SMPR)
 337 01a8 8168     		ldr r1, [r0, # 0x08]
 338 01aa 2B4A     		ldr r2, = 0x04         @ 开始转换
 339 01ac 1143     		orrs r1, r1, r2
 340 01ae 8160     		str r1, [r0, # 0x08]    @ 控制寄存器 (ADC_CR)
 341              	
 342              	
 343              	
 344              	
 345              		
 346 01b0 0120     		movs r0, # 1
 347 01b2 00F059F8 		bl __pinlv_shezhi
 348 01b6 00F02FFA 		bl __pin_lv_xian_shi
 349 01ba 2848     		ldr r0, = liangcheng
 350 01bc 0E21     		movs r1, # 14
 351 01be 0160     		str r1, [r0]
 352              	
 353              	
 354              		
 355              	ting:
 356 01c0 2748     		ldr r0, = shezhi_pinlv
 357 01c2 0068     		ldr r0, [r0]
 358 01c4 00F050F8 		bl __pinlv_shezhi
 359 01c8 00F026FA 		bl __pin_lv_xian_shi
 360              	__tiaoguo_pinlv_shezhi:	
 361 01cc 00F09EFA 		bl __jisuan_zukang
 362 01d0 8E20     		movs r0, # 0x8e
 363 01d2 224A     		ldr r2, = liangcheng
 364 01d4 2349     		ldr r1, = zukang_danwei
 365 01d6 1268     		ldr r2, [r2]
 366 01d8 9200     		lsls r2, r2, # 2
 367 01da 8918     		adds r1, r1, r2
 368 01dc 0222     		movs r2, # 2
 369 01de 00F015FC 		bl _lcdxianshi
 370 01e2 00F0EBFA 		bl __xianshi_zukang
 371 01e6 00F032FB 		bl __xianshi_liangcheng
 372 01ea E9E7     		b ting
 373 01ec 00200240 		.ltorg
 373      00100240 
 373      01000100 
 373      02001500 
 373      00000101 
 374              	
 375              	__pinlv_shezhi:
 376              		@入口R0
 377              		@1=100, 2=1KHZ, 3=10KHZ, 4=100KHZ
 378 0268 06B5     		push {r1-r2,lr}
 379 026a 3249     		ldr r1, = pinlv
 380 026c 0A68     		ldr r2, [r1]
 381 026e 8242     		cmp r2, r0
ARM GAS  1.s 			page 9


 382 0270 16D0     		beq __pinlv_shezhi_fanhui
 383 0272 0128     		cmp r0, # 1
 384 0274 03D1     		bne __pl1
 385 0276 0860     		str r0, [r1]
 386 0278 00F013F8 		bl __pinlv_100
 387 027c 10E0     		b __pinlv_shezhi_fanhui
 388              	__pl1:
 389 027e 0228     		cmp r0, # 2
 390 0280 03D1     		bne __pl2
 391 0282 0860     		str r0, [r1]
 392 0284 00F08CF8 		bl __pinlv_1K
 393 0288 0AE0     		b __pinlv_shezhi_fanhui
 394              	__pl2:
 395 028a 0328     		cmp r0, # 3
 396 028c 03D1     		bne __pl3
 397 028e 0860     		str r0, [r1]
 398 0290 00F000F9 		bl __pinlv_10K
 399 0294 04E0     		b __pinlv_shezhi_fanhui
 400              	__pl3:
 401 0296 0428     		cmp r0, # 4
 402 0298 02D1     		bne __pinlv_shezhi_fanhui
 403 029a 0860     		str r0, [r1]
 404 029c 00F074F9 		bl __pinlv_100K
 405              	__pinlv_shezhi_fanhui:
 406 02a0 06BD     		pop {r1-r2,pc}
 407              	__pinlv_100:
 408 02a2 0FB5     		push {r0-r3,lr}
 409 02a4 2448     		ldr r0, = 0x40022000
 410 02a6 2549     		ldr r1, = 0x800
 411 02a8 C160     		str r1, [r0, # 0x0c]
 412 02aa 2548     	        ldr r0, = 0xe000e010
 413 02ac 0021     		movs r1, # 0
 414 02ae 0160     		str r1, [r0]
 415 02b0 2448     		ldr r0, = 0x40012408
 416              	__deng_adc_ting:	
 417 02b2 0168     		ldr r1, [r0]
 418 02b4 4906     		lsls r1, r1, # 25
 419 02b6 FCD4     		bmi __deng_adc_ting
 420              		@tim1ch3DMA
 421 02b8 2348     		ldr r0, = 0x40020000
 422 02ba 0021     		movs r1, # 0
 423 02bc 8165     		str r1, [r0, # 0x58]
 424 02be 8160     		str r1, [r0, # 0x08]
 425 02c0 2249     		ldr r1, = 0x40012c3c @ 外设地址
 426 02c2 0166     		str r1, [r0, # 0x60]
 427 02c4 2249     		ldr r1, = zheng_xian_100hz @ 储存器地址
 428 02c6 4166     		str r1, [r0, # 0x64]
 429 02c8 2249     		ldr r1, = 5000             @点数
 430 02ca C165     		str r1, [r0, # 0x5c]
 431 02cc 2249     		ldr r1, = 0x31b1         @ 储存到外设
 432 02ce 8165     		str r1, [r0, # 0x58]
 433              		
 434              	        @ adc dma
 435 02d0 2249     		ldr r1, = 0x40012440
 436 02d2 0161     		str r1, [r0, # 0x10]
 437 02d4 2249     		ldr r1, = dianyabiao
 438 02d6 4161     		str r1, [r0, # 0x14]
ARM GAS  1.s 			page 10


 439 02d8 2249     		ldr r1, = 1000
 440 02da C160     		str r1, [r0, # 0x0c]
 441 02dc 2249     		ldr r1, = 0x5a1 @  0x583        @ 5a1
 442 02de 8160     		str r1, [r0, # 0x08]
 443              		
 444              		@tim3chushihua:
 445 02e0 224B     		ldr r3, = 0x40000400 @ tim3_cr1
 446 02e2 234A     		ldr r2, = 0
 447 02e4 9A62     		str r2, [r3, # 0x28] @ psc
 448 02e6 234A     		ldr r2, = 559
 449 02e8 DA62     		str r2, [r3, # 0x2c] @ ARR
 450 02ea 2022     		movs r2, # 0x20
 451 02ec 5A60     		str r2, [r3, # 0x04] @ TRGO
 452 02ee 0622     		movs r2, # 0x06
 453 02f0 9A60     		str r2, [r3, # 0x08]
 454 02f2 8022     		movs r2, # 0x80
 455              		@tim1chushiha:
 456 02f4 2048     		ldr r0, = 0x40012c00 @ tim1_cr1
 457 02f6 0021     		movs r1, # 0
 458 02f8 8162     		str r1, [r0, # 0x28] @ psc
 459 02fa 2049     		ldr r1, = 111
 460 02fc C162     		str r1, [r0, # 0x2c] @ ARR
 461 02fe 2021     		movs r1, # 0x20
 462 0300 4160     		str r1, [r0, # 0x04] @ TRGO
 463 0302 1F49     		ldr r1, = 0x68
 464 0304 C161     		str r1, [r0, # 0x1c] @ ccmr2  CC3
 465 0306 1F49     		ldr r1, = 0x100    @  CC3
 466 0308 0162     		str r1, [r0, # 0x20] @ ccer
 467 030a 1F49     		ldr r1, = 0x8000
 468 030c 4164     		str r1, [r0, # 0x44] @ BDTR
 469 030e 0B49     		ldr r1, = 0x800 @ CC3 DMA
 470 0310 C160     		str r1, [r0, # 0x0c] @ DIER
 471 0312 1E49     		ldr r1, = 0x81
 472 0314 0160     		str r1, [r0]
 473 0316 1A60     		str r2, [r3]
 474 0318 0948     		ldr r0, = 0xe000e010
 475 031a 1D49     		ldr r1, = 559999
 476 031c 4160     		str r1, [r0, # 4]
 477 031e 8160     		str r1, [r0, # 8]
 478 0320 0721     		movs r1, # 0x07
 479 0322 0160     		str r1, [r0]    @systick 开
 480 0324 1B48     	        ldr r0, = cossin
 481 0326 1C49     		ldr r1, = cos_sin_biao_100_1k
 482 0328 0160     		str r1, [r0]
 483 032a 1C48     		ldr r0, = lcd_beiguang
 484 032c C021     		movs r1, # 0xc0
 485 032e 0160     		str r1, [r0]
 486 0330 0FBD     		pop {r0-r3,pc}
 487 0332 00007000 		.ltorg
 487      00200020 
 487      02400008 
 487      000010E0 
 487      00E00824 
 488              		
 489              	__pinlv_1K:
 490 03a0 0FB5     		push {r0-r3,lr}
 491 03a2 2348     		ldr r0, = 0x40022000
ARM GAS  1.s 			page 11


 492 03a4 2349     		ldr r1, = 0x800
 493 03a6 C160     		str r1, [r0, # 0x0c]
 494 03a8 2348     	        ldr r0, = 0xe000e010
 495 03aa 0021     		movs r1, # 0
 496 03ac 0160     		str r1, [r0]
 497 03ae 2348     	        ldr r0, = 0x40012408
 498              	__deng_adc_ting1:
 499 03b0 0168     		ldr r1, [r0]
 500 03b2 4906     		lsls r1, r1, # 25
 501 03b4 FCD4     		bmi __deng_adc_ting1
 502              		@tim1ch3DMA
 503 03b6 2248     		ldr r0, = 0x40020000
 504 03b8 0021     		movs r1, # 0
 505 03ba 8165     		str r1, [r0, # 0x58]
 506 03bc 8160     		str r1, [r0, # 0x08]
 507 03be 2149     		ldr r1, = 0x40012c3c @ 外设地址
 508 03c0 0166     		str r1, [r0, # 0x60]
 509 03c2 2149     		ldr r1, = zheng_xian_1khz @ 储存器地址
 510 03c4 4166     		str r1, [r0, # 0x64]
 511 03c6 2149     		ldr r1, = 1000             @点数
 512 03c8 C165     		str r1, [r0, # 0x5c]
 513 03ca 2149     		ldr r1, = 0x31b1         @ 储存到外设
 514 03cc 8165     		str r1, [r0, # 0x58]
 515              		@ adc dma
 516 03ce 2149     		ldr r1, = 0x40012440
 517 03d0 0161     		str r1, [r0, # 0x10]
 518 03d2 2149     		ldr r1, = dianyabiao
 519 03d4 4161     		str r1, [r0, # 0x14]
 520 03d6 1D49     		ldr r1, = 1000
 521 03d8 C160     		str r1, [r0, # 0x0c]
 522 03da 2049     		ldr r1, = 0x5a1 @  0x583        @ 5a1
 523 03dc 8160     		str r1, [r0, # 0x08]
 524              		
 525              		
 526              		@tim3chushihua:
 527 03de 204B     		ldr r3, = 0x40000400 @ tim3_cr1
 528 03e0 204A     		ldr r2, = 0
 529 03e2 9A62     		str r2, [r3, # 0x28] @ psc
 530 03e4 204A     		ldr r2, = 27
 531 03e6 DA62     		str r2, [r3, # 0x2c] @ ARR
 532 03e8 2022     		movs r2, # 0x20
 533 03ea 5A60     		str r2, [r3, # 0x04] @ TRGO
 534 03ec 0622     		movs r2, # 0x06
 535 03ee 9A60     		str r2, [r3, # 0x08]
 536 03f0 8022     		movs r2, # 0x80
 537              		@tim1chushiha:
 538 03f2 1E48     		ldr r0, = 0x40012c00 @ tim1_cr1
 539 03f4 0021     		movs r1, # 0
 540 03f6 8162     		str r1, [r0, # 0x28] @ psc
 541 03f8 1D49     		ldr r1, = 55
 542 03fa C162     		str r1, [r0, # 0x2c] @ ARR
 543 03fc 2021     		movs r1, # 0x20
 544 03fe 4160     		str r1, [r0, # 0x04] @ TRGO
 545 0400 1C49     		ldr r1, = 0x68
 546 0402 C161     		str r1, [r0, # 0x1c] @ ccmr2  CC3
 547 0404 1C49     		ldr r1, = 0x100    @  CC3
 548 0406 0162     		str r1, [r0, # 0x20] @ ccer
ARM GAS  1.s 			page 12


 549 0408 1C49     		ldr r1, = 0x8000
 550 040a 4164     		str r1, [r0, # 0x44] @ BDTR
 551 040c 0949     		ldr r1, = 0x800 @ CC3 DMA
 552 040e C160     		str r1, [r0, # 0x0c] @ DIER
 553 0410 1B49     		ldr r1, = 0x81
 554 0412 0160     		str r1, [r0]
 555 0414 1A60     		str r2, [r3]
 556 0416 0848     	        ldr r0, = 0xe000e010
 557 0418 1A49     		ldr r1, = 55999
 558 041a 4160     		str r1, [r0, # 4]
 559 041c 8160     		str r1, [r0, # 8]
 560 041e 0721     		movs r1, # 0x07
 561 0420 0160     		str r1, [r0]    @systick 开
 562 0422 1948     		ldr r0, = cossin
 563 0424 1949     		ldr r1, = cos_sin_biao_100_1k
 564 0426 0160     		str r1, [r0]
 565 0428 1948     		ldr r0, = lcd_beiguang
 566 042a C021     		movs r1, # 0xc0
 567 042c 0160     		str r1, [r0]
 568 042e 0FBD     		pop {r0-r3,pc}
 569 0430 00200240 		.ltorg
 569      00080000 
 569      10E000E0 
 569      08240140 
 569      00000240 
 570              	
 571              		
 572              	__pinlv_10K:
 573 0494 0FB5     		push {r0-r3,lr}
 574 0496 2348     		ldr r0, = 0x40022000
 575 0498 2349     		ldr r1, = 0x800
 576 049a C160     		str r1, [r0, # 0x0c]
 577 049c 2348     	        ldr r0, = 0xe000e010
 578 049e 0021     		movs r1, # 0
 579 04a0 0160     		str r1, [r0]
 580 04a2 2348     	        ldr r0, = 0x40012408
 581              	__deng_adc_ting2:
 582 04a4 0168     		ldr r1, [r0]
 583 04a6 4906     		lsls r1, r1, # 25
 584 04a8 FCD4     		bmi __deng_adc_ting2
 585              		@tim1ch3DMA
 586 04aa 2248     		ldr r0, = 0x40020000
 587 04ac 0021     		movs r1, # 0
 588 04ae 8165     		str r1, [r0, # 0x58]
 589 04b0 8160     		str r1, [r0, # 0x08]
 590 04b2 2149     		ldr r1, = 0x40012c3c @ 外设地址
 591 04b4 0166     		str r1, [r0, # 0x60]
 592 04b6 2149     		ldr r1, = zheng_xian_10khz @ 储存器地址
 593 04b8 4166     		str r1, [r0, # 0x64]
 594 04ba 2149     		ldr r1, = 200             @点数
 595 04bc C165     		str r1, [r0, # 0x5c]
 596 04be 2149     		ldr r1, = 0x31b1         @ 储存到外设
 597 04c0 8165     		str r1, [r0, # 0x58]
 598              		@ adc dma
 599 04c2 2149     		ldr r1, = 0x40012440
 600 04c4 0161     		str r1, [r0, # 0x10]
 601 04c6 2149     		ldr r1, = dianyabiao
ARM GAS  1.s 			page 13


 602 04c8 4161     		str r1, [r0, # 0x14]
 603 04ca 2149     		ldr r1, = 1000
 604 04cc C160     		str r1, [r0, # 0x0c]
 605 04ce 2149     		ldr r1, = 0x5a1 @  0x583        @ 5a1
 606 04d0 8160     		str r1, [r0, # 0x08]
 607              		
 608              		@tim3chushihua:
 609 04d2 214B     		ldr r3, = 0x40000400 @ tim3_cr1
 610 04d4 214A     		ldr r2, = 0
 611 04d6 9A62     		str r2, [r3, # 0x28] @ psc
 612 04d8 214A     		ldr r2, = 27
 613 04da DA62     		str r2, [r3, # 0x2c] @ ARR
 614 04dc 2022     		movs r2, # 0x20
 615 04de 5A60     		str r2, [r3, # 0x04] @ TRGO
 616 04e0 0622     		movs r2, # 0x06
 617 04e2 9A60     		str r2, [r3, # 0x08]
 618 04e4 8022     		movs r2, # 0x80
 619              		@tim1chushiha:
 620 04e6 1F48     		ldr r0, = 0x40012c00 @ tim1_cr1
 621 04e8 0021     		movs r1, # 0
 622 04ea 8162     		str r1, [r0, # 0x28] @ psc
 623 04ec 1C49     		ldr r1, = 27
 624 04ee C162     		str r1, [r0, # 0x2c] @ ARR
 625 04f0 2021     		movs r1, # 0x20
 626 04f2 4160     		str r1, [r0, # 0x04] @ TRGO
 627 04f4 1C49     		ldr r1, = 0x68
 628 04f6 C161     		str r1, [r0, # 0x1c] @ ccmr2  CC3
 629 04f8 1C49     		ldr r1, = 0x100    @  CC3
 630 04fa 0162     		str r1, [r0, # 0x20] @ ccer
 631 04fc 1C49     		ldr r1, = 0x8000
 632 04fe 4164     		str r1, [r0, # 0x44] @ BDTR
 633 0500 0949     		ldr r1, = 0x800 @ CC3 DMA
 634 0502 C160     		str r1, [r0, # 0x0c] @ DIER
 635 0504 1B49     		ldr r1, = 0x81
 636 0506 0160     		str r1, [r0]
 637 0508 1A60     		str r2, [r3]
 638 050a 0848     		ldr r0, = 0xe000e010
 639 050c 1A49     		ldr r1, = 55999
 640 050e 4160     		str r1, [r0, # 4]
 641 0510 8160     		str r1, [r0, # 8]
 642 0512 0721     		movs r1, # 0x07
 643 0514 0160     		str r1, [r0]    @systick 开
 644 0516 1948     	        ldr r0, = cossin
 645 0518 1949     		ldr r1, = cos_sin_biao_10k
 646 051a 0160     		str r1, [r0]
 647 051c 1948     		ldr r0, = lcd_beiguang
 648 051e C021     		movs r1, # 0xc0
 649 0520 0160     		str r1, [r0]
 650 0522 0FBD     		pop {r0-r3,pc}
 651 0524 00200240 		.ltorg
 651      00080000 
 651      10E000E0 
 651      08240140 
 651      00000240 
 652              	__pinlv_100K:
 653 0588 0FB5     		push {r0-r3,lr}
 654 058a 2A48     		ldr r0, = 0x40022000
ARM GAS  1.s 			page 14


 655 058c 2A49     		ldr r1, = 0x800
 656 058e C160     		str r1, [r0, # 0x0c]
 657 0590 2A48     	        ldr r0, = 0xe000e010
 658 0592 0021     		movs r1, # 0
 659 0594 0160     		str r1, [r0]
 660 0596 2A48     	        ldr r0, = 0x40012408
 661              	__deng_adc_ting3:
 662 0598 0168     		ldr r1, [r0]
 663 059a 4906     		lsls r1, r1, # 25
 664 059c FCD4     		bmi __deng_adc_ting3
 665              		
 666              	        @tim1ch3DMA
 667 059e 2948     		ldr r0, = 0x40020000
 668 05a0 0021     		movs r1, # 0
 669 05a2 8165     		str r1, [r0, # 0x58]
 670 05a4 8160     		str r1, [r0, # 0x08]
 671 05a6 2849     		ldr r1, = 0x40012c3c @ 外设地址
 672 05a8 0166     		str r1, [r0, # 0x60]
 673 05aa 2849     		ldr r1, = zheng_xian_100khz @ 储存器地址
 674 05ac 4166     		str r1, [r0, # 0x64]
 675 05ae 2849     		ldr r1, = 20             @点数
 676 05b0 C165     		str r1, [r0, # 0x5c]
 677 05b2 2849     		ldr r1, = 0x31b1         @ 储存到外设
 678 05b4 8165     		str r1, [r0, # 0x58]
 679              		@ adc dma
 680 05b6 2849     		ldr r1, = 0x40012440
 681 05b8 0161     		str r1, [r0, # 0x10]
 682 05ba 2849     		ldr r1, = dianyabiao
 683 05bc 4161     		str r1, [r0, # 0x14]
 684 05be 2849     		ldr r1, = 1000
 685 05c0 C160     		str r1, [r0, # 0x0c]
 686 05c2 2849     		ldr r1, = 0x5a1 @  0x583        @ 5a1
 687 05c4 8160     		str r1, [r0, # 0x08]
 688              		
 689              	@tim3chushihua:
 690 05c6 284B     		ldr r3, = 0x40000400 @ tim3_cr1
 691 05c8 284A     		ldr r2, = 0
 692 05ca 9A62     		str r2, [r3, # 0x28] @ psc
 693 05cc 284A     		ldr r2, = 27
 694 05ce DA62     		str r2, [r3, # 0x2c] @ ARR
 695 05d0 2022     		movs r2, # 0x20
 696 05d2 5A60     		str r2, [r3, # 0x04] @ TRGO
 697 05d4 0622     		movs r2, # 0x06
 698 05d6 9A60     		str r2, [r3, # 0x08]
 699 05d8 8022     		movs r2, # 0x80
 700              	@tim1chushiha:
 701 05da 2648     		ldr r0, = 0x40012c00 @ tim1_cr1
 702 05dc 0021     		movs r1, # 0
 703 05de 8162     		str r1, [r0, # 0x28] @ psc
 704 05e0 2349     		ldr r1, = 27
 705 05e2 C162     		str r1, [r0, # 0x2c] @ ARR
 706 05e4 2021     		movs r1, # 0x20
 707 05e6 4160     		str r1, [r0, # 0x04] @ TRGO
 708 05e8 2349     		ldr r1, = 0x68
 709 05ea C161     		str r1, [r0, # 0x1c] @ ccmr2  CC3
 710 05ec 2349     		ldr r1, = 0x100    @  CC3
 711 05ee 0162     		str r1, [r0, # 0x20] @ ccer
ARM GAS  1.s 			page 15


 712 05f0 2349     		ldr r1, = 0x8000
 713 05f2 4164     		str r1, [r0, # 0x44] @ BDTR
 714 05f4 1049     		ldr r1, = 0x800 @ CC3 DMA
 715 05f6 C160     		str r1, [r0, # 0x0c] @ DIER
 716 05f8 2249     		ldr r1, = 0x81
 717 05fa 0160     		str r1, [r0]
 718 05fc 1A60     		str r2, [r3]
 719 05fe 0F48     		ldr r0, = 0xe000e010
 720 0600 2149     		ldr r1, = 55999
 721 0602 4160     		str r1, [r0, # 4]
 722 0604 8160     		str r1, [r0, # 8]
 723 0606 0721     		movs r1, # 0x07
 724 0608 0160     		str r1, [r0]    @systick 开
 725 060a 2048     		ldr r0, = cossin
 726 060c 2049     		ldr r1, = cos_sin_biao_100k
 727 060e 0160     		str r1, [r0]
 728 0610 2048     		ldr r0, = lcd_beiguang
 729 0612 0021     		movs r1, # 0
 730 0614 0160     		str r1, [r0]
 731 0616 0FBD     		pop {r0-r3,pc}
 732              	
 733              	
 734              	__pin_lv_xian_shi:
 735 0618 0FB5     		push {r0-r3,lr}
 736 061a 1F48     		ldr r0, = pinlv
 737 061c 0121     		movs r1, # 1
 738 061e 0068     		ldr r0, [r0]
 739 0620 1E4A     		ldr r2, = asciimabiao
 740 0622 FF23     		movs r3, # 0xff
 741 0624 00F038FA 		bl _zhuanascii
 742 0628 8020     		movs r0, # 0x80
 743 062a 1C49     		ldr r1, = asciimabiao
 744 062c 0122     		movs r2, # 1
 745 062e 00F0EDF9 		bl _lcdxianshi
 746 0632 0FBD     		pop {r0-r3,pc}
 747 0634 00200240 		.ltorg
 747      00080000 
 747      10E000E0 
 747      08240140 
 747      00000240 
 748              		
 749              	__jisuan_z_fudu:
 750 06a0 07B5     		push {r0-r2,lr}
 751 06a2 3548     		ldr r0, = xiabi_rr
 752 06a4 3549     		ldr r1, = xiabi_ii
 753 06a6 0068     		ldr r0, [r0]
 754 06a8 0968     		ldr r1, [r1]
 755 06aa 4012     		asrs r0, r0, # 9
 756 06ac 4912     		asrs r1, r1, # 9
 757 06ae 00F040F8 		bl __ji_suan_fu_du
 758 06b2 0246     		mov r2, r0
 759 06b4 3248     		ldr r0, = shangbi_rr
 760 06b6 3349     		ldr r1, = shangbi_ii
 761 06b8 0068     		ldr r0, [r0]
 762 06ba 0968     		ldr r1, [r1]
 763 06bc 4012     		asrs r0, r0, # 9
 764 06be 4912     		asrs r1, r1, # 9
ARM GAS  1.s 			page 16


 765 06c0 00F037F8 		bl __ji_suan_fu_du
 766 06c4 1146     		mov r1, r2
 767 06c6 304A     		ldr r2, = 1000
 768 06c8 5043     		muls r0, r0, r2
 769 06ca 00F0E2FA 		bl _chufa
 770 06ce 2F49     		ldr r1, = z_fudu
 771 06d0 C008     		lsrs r0, r0, # 3
 772 06d2 0860     		str r0, [r1]
 773 06d4 07BD     		pop {r0-r2,pc}
 774              	
 775              	
 776              		
 777              	__zidong_dangwei:
 778 06d6 0FB5     		push {r0-r3,lr}
 779              	__huan_dang:
 780 06d8 2C48     		ldr r0, = z_fudu
 781 06da 0068     		ldr r0, [r0]
 782 06dc 2C4B     		ldr r3, = 112 @ 900
 783 06de 9842     		cmp r0, r3
 784 06e0 0BD3     		bcc __dang_wei_jian
 785 06e2 2C4B     		ldr r3, = 375 @3000
 786 06e4 9842     		cmp r0, r3
 787 06e6 10D3     		bcc __zi_dong_dang_wei_fan_hui
 788 06e8 2B48     		ldr r0, = liangcheng
 789 06ea 0168     		ldr r1, [r0]
 790 06ec 0131     		adds r1, r1, # 1
 791 06ee 0160     		str r1, [r0]
 792 06f0 0F29     		cmp r1, # 15
 793 06f2 0AD1     		bne __zi_dong_dang_wei_fan_hui
 794 06f4 0E21     		movs r1, # 14
 795 06f6 0160     		str r1, [r0]
 796 06f8 07E0     		b __zi_dong_dang_wei_fan_hui
 797              	__dang_wei_jian:
 798 06fa 2748     		ldr r0, = liangcheng
 799 06fc 0168     		ldr r1, [r0]
 800 06fe 0139     		subs r1, r1, # 1
 801 0700 0160     		str r1, [r0]
 802 0702 FF29     		cmp r1, # 0xff
 803 0704 01D3     		bcc __zi_dong_dang_wei_fan_hui
 804 0706 0021     		movs r1, # 0
 805 0708 0160     		str r1, [r0]
 806              	__zi_dong_dang_wei_fan_hui:
 807 070a 0FBD     		pop {r0-r3,pc}
 808              	
 809              	__jisuan_zukang:
 810 070c 1FB5     		push {r0-r4,lr}
 811 070e 2348     		ldr r0, = shangbi_r
 812 0710 2349     		ldr r1, = shangbi_i
 813 0712 244A     		ldr r2, = xiabi_r
 814 0714 244B     		ldr r3, = xiabi_i
 815 0716 1C4C     		ldr r4, = 1000
 816 0718 0068     		ldr r0, [r0]
 817 071a 0968     		ldr r1, [r1]
 818 071c 1268     		ldr r2, [r2]
 819 071e 1B68     		ldr r3, [r3]
 820 0720 6043     		muls r0, r0, r4
 821 0722 6143     		muls r1, r1, r4
ARM GAS  1.s 			page 17


 822 0724 00F0D1F9 		bl __fu_shu_chu_fa
 823 0728 2048     		ldr r0, = z_r
 824 072a 214B     		ldr r3, = z_i
 825 072c 1960     		str r1, [r3]
 826 072e 0260     		str r2, [r0]
 827 0730 1FBD     		pop {r0-r4,pc}
 828              		
 829              	__ji_suan_fu_du:	    @ 计算幅度
 830              		@ 入r0= 实部，r1= 虚部
 831              		@ 出r0 = 幅度
 832              		@ Mag ~=Alpha * max(|I|, |Q|) + Beta * min(|I|, |Q|)
 833              		@ Alpha * Max + Beta * Min
 834 0732 0EB5     		push {r1-r3,lr}
 835 0734 0000     		movs r0, r0
 836 0736 01D5     		bpl _shibubushifushu
 837 0738 C043     		mvns r0, r0                             @ 是负数转成正数
 838 073a 0130     		adds r0, r0, # 1
 839              	_shibubushifushu:	                               @ 实部不是负数
 840 073c 0900     		movs r1, r1
 841 073e 01D5     		bpl _xububushifushu
 842 0740 C943     		mvns r1, r1                             @ 是负数转成正数
 843 0742 0131     		adds r1, r1, # 1
 844              	_xububushifushu:	                                @ 虚部不是负数
 845 0744 0028     		cmp r0, # 0
 846 0746 01D1     		bne _panduanxubushibushi0
 847 0748 0846     		mov r0, r1
 848 074a 0EBD     		pop {r1-r3,pc}
 849              	_panduanxubushibushi0:
 850 074c 0029     		cmp r1, # 0
 851 074e 00D1     		bne _jisuanfudu1
 852 0750 0EBD     		pop {r1-r3,pc}
 853              	_jisuanfudu1:
 854 0752 184A     		ldr r2, = 31066		@ Alpha q15 0.948059448969
 855 0754 184B     		ldr r3, = 12867		@ Beta q15 0.392699081699
 856 0756 8142     		cmp r1, r0
 857 0758 06D8     		bhi _alpha_min_beta_max
 858              	_alpha_max_beta_min:
 859 075a 5043     		muls r0, r0, r2
 860 075c 5943     		muls r1, r1, r3
 861 075e C013     		asrs r0, r0, # 15
 862 0760 C913     		asrs r1, r1, # 15
 863 0762 4018     		adds r0, r0, r1
 864 0764 0121     		movs r1, # 1
 865 0766 0EBD     		pop {r1-r3,pc}
 866              	_alpha_min_beta_max:
 867 0768 5843     		muls r0, r0, r3
 868 076a 5143     		muls r1, r1, r2
 869 076c C013     		asrs r0, r0, # 15
 870 076e C913     		asrs r1, r1, # 15
 871 0770 4018     		adds r0, r0, r1
 872 0772 0021     		movs r1, # 0
 873 0774 0EBD     		pop {r1-r3,pc}
 874 0776 00005800 		.ltorg
 874      00205C00 
 874      00205000 
 874      00205400 
 874      0020E803 
ARM GAS  1.s 			page 18


 875              	__xianshi_zukang:
 876 07bc 3FB5     		push {r0-r5,lr}
 877 07be 824C     		ldr r4, = z_r
 878 07c0 824D     		ldr r5, = z_i
 879 07c2 2468     		ldr r4, [r4]
 880 07c4 2D68     		ldr r5, [r5]
 881 07c6 8249     		ldr r1, = liangcheng
 882 07c8 8248     		ldr r0, = zukang_huansuan_biao
 883 07ca 0968     		ldr r1, [r1]
 884 07cc 8900     		lsls r1, r1, # 2
 885 07ce 4058     		ldr r0, [r0, r1]
 886 07d0 4443     		muls r4, r4, r0
 887 07d2 4543     		muls r5, r5, r0
 888 07d4 E413     		asrs r4, r4, # 15
 889 07d6 ED13     		asrs r5, r5, # 15
 890 07d8 2400     		movs r4, r4
 891 07da 07D5     		bpl aaa1
 892 07dc 8220     		movs r0, # 0x82
 893 07de 7E49     		ldr r1, = _fu
 894 07e0 0122     		movs r2, # 1
 895 07e2 00F013F9 		bl _lcdxianshi
 896 07e6 E443     		mvns r4, r4
 897 07e8 0134     		adds r4, r4, # 1
 898 07ea 04E0     		b aaa2
 899              	aaa1:
 900 07ec 8220     		movs r0, # 0x82
 901 07ee 7B49     		ldr r1, = kong
 902 07f0 0122     		movs r2, # 1
 903 07f2 00F00BF9 		bl _lcdxianshi
 904              	aaa2:
 905 07f6 2046     		mov r0, r4
 906 07f8 0521     		movs r1, # 5
 907 07fa 794A     		ldr r2, = asciimabiao
 908 07fc 794C     	        ldr r4, = zukang_xiaoshu_dian
 909 07fe 744B     		ldr r3, = liangcheng
 910 0800 1B68     		ldr r3, [r3]
 911 0802 E35C     		ldrb r3, [r4, r3]
 912 0804 00F048F9 		bl _zhuanascii
 913 0808 8320     		movs r0, # 0x83
 914 080a 7549     		ldr r1, = asciimabiao
 915 080c 0522     		movs r2, # 5
 916 080e 00F0FDF8 		bl _lcdxianshi
 917              	
 918              	
 919 0812 2C00     		movs r4, r5
 920 0814 07D5     		bpl bbb1
 921 0816 8820     		movs r0, # 0x88
 922 0818 6F49     		ldr r1, = _fu
 923 081a 0122     		movs r2, # 1
 924 081c 00F0F6F8 		bl _lcdxianshi
 925 0820 E443     		mvns r4, r4
 926 0822 0134     		adds r4, r4, # 1
 927 0824 04E0     		b bbb2
 928              	bbb1:
 929 0826 8820     		movs r0, # 0x88
 930 0828 6C49     		ldr r1, = kong
 931 082a 0122     		movs r2, # 1
ARM GAS  1.s 			page 19


 932 082c 00F0EEF8 		bl _lcdxianshi
 933              	bbb2:
 934 0830 2046     		mov r0, r4
 935 0832 0521     		movs r1, # 5
 936 0834 6A4A     		ldr r2, = asciimabiao
 937 0836 6B4D     		ldr r5, = zukang_xiaoshu_dian
 938 0838 654B     		ldr r3, = liangcheng
 939 083a 1B68     		ldr r3, [r3]
 940 083c EB5C     		ldrb r3, [r5, r3]
 941 083e 00F02BF9 		bl _zhuanascii
 942 0842 8920     		movs r0, # 0x89
 943 0844 6649     		ldr r1, = asciimabiao
 944 0846 0522     		movs r2, # 5
 945 0848 00F0E0F8 		bl _lcdxianshi
 946 084c 3FBD     		pop {r0-r5,pc}
 947              	
 948              	
 949              	__xianshi_liangcheng:
 950 084e 0FB5     		push {r0-r3,lr}
 951 0850 5F48     	        ldr r0, = liangcheng
 952 0852 0221     		movs r1, # 2
 953 0854 0068     		ldr r0, [r0]
 954 0856 624A     		ldr r2, = asciimabiao
 955 0858 FF23     		movs r3, # 0xff
 956 085a 00F01DF9 		bl _zhuanascii
 957 085e C020     		movs r0, # 0xc0
 958 0860 5F49     		ldr r1, = asciimabiao
 959 0862 0222     		movs r2, # 2
 960 0864 00F0D2F8 		bl _lcdxianshi
 961 0868 0FBD     		pop {r0-r3,pc}
 962              		
 963              	__xianshi_shangxia_bi:
 964 086a FFB5     		push {r0-r7,lr}
 965 086c 5E48     		ldr r0, = shangbi_r
 966 086e 5F4A     		ldr r2, = shangbi_i
 967 0870 0168     		ldr r1, [r0]
 968 0872 1768     		ldr r7, [r2]
 969 0874 0C00     		movs r4, r1
 970 0876 07D5     		bpl aa1
 971 0878 8020     		movs r0, # 0x80
 972 087a 5749     		ldr r1, = _fu
 973 087c 0122     		movs r2, # 1
 974 087e 00F0C5F8 		bl _lcdxianshi
 975 0882 E443     		mvns r4, r4
 976 0884 0134     		adds r4, r4, # 1
 977 0886 04E0     		b aa2
 978              	aa1:
 979 0888 8020     		movs r0, # 0x80
 980 088a 5449     		ldr r1, = kong
 981 088c 0122     		movs r2, # 1
 982 088e 00F0BDF8 		bl _lcdxianshi
 983              	aa2:
 984 0892 2046     		mov r0, r4
 985 0894 0521     		movs r1, # 5
 986 0896 524A     		ldr r2, = asciimabiao
 987 0898 FF23     		movs r3, # 0xff
 988 089a 00F0FDF8 		bl _zhuanascii
ARM GAS  1.s 			page 20


 989 089e 8120     		movs r0, # 0x81
 990 08a0 4F49     		ldr r1, = asciimabiao
 991 08a2 0522     		movs r2, # 5
 992 08a4 00F0B2F8 		bl _lcdxianshi
 993              	
 994              	
 995 08a8 3C00     		movs r4, r7
 996 08aa 07D5     		bpl bb1
 997 08ac 8A20     		movs r0, # 0x8a
 998 08ae 4A49     		ldr r1, = _fu
 999 08b0 0122     		movs r2, # 1
 1000 08b2 00F0ABF8 		bl _lcdxianshi
 1001 08b6 E443     		mvns r4, r4
 1002 08b8 0134     		adds r4, r4, # 1
 1003 08ba 04E0     		b bb2
 1004              	bb1:
 1005 08bc 8A20     		movs r0, # 0x8a
 1006 08be 4749     		ldr r1, = kong
 1007 08c0 0122     		movs r2, # 1
 1008 08c2 00F0A3F8 		bl _lcdxianshi
 1009              	bb2:
 1010 08c6 2046     		mov r0, r4
 1011 08c8 0521     		movs r1, # 5
 1012 08ca 454A     		ldr r2, = asciimabiao
 1013 08cc FF23     		movs r3, # 0xff
 1014 08ce 00F0E3F8 		bl _zhuanascii
 1015 08d2 8B20     		movs r0, # 0x8b
 1016 08d4 4249     		ldr r1, = asciimabiao
 1017 08d6 0522     		movs r2, # 5
 1018 08d8 00F098F8 		bl _lcdxianshi
 1019              	
 1020 08dc 4448     	        ldr r0, = xiabi_r
 1021 08de 454A     		ldr r2, = xiabi_i
 1022 08e0 0168     		ldr r1, [r0]
 1023 08e2 1768     		ldr r7, [r2]
 1024 08e4 0C00     		movs r4, r1
 1025 08e6 07D5     		bpl cc1
 1026 08e8 C020     		movs r0, # 0xc0
 1027 08ea 3B49     		ldr r1, = _fu
 1028 08ec 0122     		movs r2, # 1
 1029 08ee 00F08DF8 		bl _lcdxianshi
 1030 08f2 E443     		mvns r4, r4
 1031 08f4 0134     		adds r4, r4, # 1
 1032 08f6 04E0     		b cc2
 1033              	cc1:
 1034 08f8 C020     		movs r0, # 0xc0
 1035 08fa 3849     		ldr r1, = kong
 1036 08fc 0122     		movs r2, # 1
 1037 08fe 00F085F8 		bl _lcdxianshi
 1038              	cc2:
 1039 0902 2046     		mov r0, r4
 1040 0904 0521     		movs r1, # 5
 1041 0906 364A     		ldr r2, = asciimabiao
 1042 0908 FF23     		movs r3, # 0xff
 1043 090a 00F0C5F8 		bl _zhuanascii
 1044 090e C120     		movs r0, # 0xc1
 1045 0910 3349     		ldr r1, = asciimabiao
ARM GAS  1.s 			page 21


 1046 0912 0522     		movs r2, # 5
 1047 0914 00F07AF8 		bl _lcdxianshi
 1048              	
 1049              	
 1050 0918 3C00     		movs r4, r7
 1051 091a 07D5     		bpl dd1
 1052 091c CA20     		movs r0, # 0xca
 1053 091e 2E49     		ldr r1, = _fu
 1054 0920 0122     		movs r2, # 1
 1055 0922 00F073F8 		bl _lcdxianshi
 1056 0926 E443     		mvns r4, r4
 1057 0928 0134     		adds r4, r4, # 1
 1058 092a 04E0     		b dd2
 1059              	dd1:
 1060 092c CA20     		movs r0, # 0xca
 1061 092e 2B49     		ldr r1, = kong
 1062 0930 0122     		movs r2, # 1
 1063 0932 00F06BF8 		bl _lcdxianshi
 1064              	dd2:
 1065 0936 2046     		mov r0, r4
 1066 0938 0521     		movs r1, # 5
 1067 093a 294A     		ldr r2, = asciimabiao
 1068 093c FF23     		movs r3, # 0xff
 1069 093e 00F0ABF8 		bl _zhuanascii
 1070 0942 CB20     		movs r0, # 0xcb
 1071 0944 2649     		ldr r1, = asciimabiao
 1072 0946 0522     		movs r2, # 5
 1073 0948 00F060F8 		bl _lcdxianshi
 1074 094c FFBD     		pop {r0-r7,pc}
 1075              	
 1076              	__dft:
 1077 094e FCB5     		push {r2-r7,lr}
 1078 0950 4246     		mov r2, r8
 1079 0952 4B46     		mov r3, r9
 1080 0954 0CB4     		push {r2,r3}
 1081 0956 2848     		ldr r0, = 0x12345678
 1082 0958 8146     		mov r9, r0
 1083 095a 2848     		ldr r0, = dianyabiao
 1084 095c 2849     		ldr r1, = cossin
 1085 095e 0968     		ldr r1, [r1]
 1086 0960 284B     		ldr r3, = 1984	@ 点数*2-16
 1087 0962 294C     		ldr r4, = 2048
 1088 0964 1B18     		adds r3, r3, r0
 1089 0966 9846     		mov r8, r3
 1090 0968 0022     		movs r2, # 0
 1091 096a 1746     		mov r7, r2
 1092              	__dft_xunhuan:
 1093 096c 0388     		ldrh r3, [r0]
 1094 096e 0D68     		ldr r5, [r1]
 1095 0970 4D45     		cmp r5, r9
 1096 0972 02D1     		bne __du_sin
 1097 0974 2249     		ldr r1, = cossin
 1098 0976 0968     		ldr r1, [r1]
 1099 0978 0D68     		ldr r5, [r1]
 1100              	__du_sin:	
 1101 097a 4E68     		ldr r6, [r1, # 0x04]
 1102 097c 1B1B     		subs r3, r3, r4
ARM GAS  1.s 			page 22


 1103 097e 5D43     		muls r5, r5, r3
 1104 0980 ED13     		asrs r5, r5, # 15
 1105 0982 5E43     		muls r6, r6, r3
 1106 0984 F613     		asrs r6, r6, # 15
 1107 0986 5219     		adds r2, r2, r5
 1108 0988 BF19     		adds r7, r7, r6
 1109 098a 0230     		adds r0, r0, # 0x02
 1110 098c 0831     		adds r1, r1, # 0x08
 1111 098e 4045     		cmp r0, r8
 1112 0990 ECD1     		bne __dft_xunhuan
 1113 0992 1046     		mov r0, r2
 1114 0994 3946     		mov r1, r7
 1115 0996 0CBC     		pop {r2,r3}
 1116 0998 9046     		mov r8, r2
 1117 099a 9946     		mov r9, r3
 1118 099c FCBD     		pop {r2-r7,pc}
 1119              		
 1120              	__lv_bo_qi:
 1121              		@地址顺序：指针，累加值，缓冲区
 1122              		@入口R0=缓冲区，R1=数据, r2,=指针
 1123              		@出口R0
 1124 099e 78B5     		push {r3-r6,lr}
 1125 09a0 4024     		movs r4, # 64
 1126 09a2 1568     		ldr r5, [r2]
 1127 09a4 2B46     		mov r3, r5
 1128 09a6 AB00     		lsls r3, r5, # 2
 1129 09a8 C658     		ldr r6, [r0, r3]
 1130 09aa C150     		str r1, [r0, r3]
 1131 09ac 0135     		adds r5, r5, # 1
 1132 09ae 1560     		str r5, [r2]
 1133 09b0 A542     		cmp r5, r4
 1134 09b2 01D1     		bne __huanchong_leijia
 1135 09b4 0025     		movs r5, # 0
 1136 09b6 1560     		str r5, [r2]
 1137              	__huanchong_leijia:
 1138 09b8 0438     		subs r0, r0, # 4
 1139 09ba 0568     		ldr r5, [r0]
 1140 09bc 4919     		adds r1, r1, r5
 1141 09be 891B     		subs r1, r1, r6
 1142 09c0 0160     		str r1, [r0]
 1143 09c2 0813     		asrs r0, r1, # 12 @  7	@128
 1144 09c4 78BD     		pop {r3-r6,pc}
 1145 09c6 00003C00 		.ltorg
 1145      00204000 
 1145      00203800 
 1145      0020F03E 
 1145      0000743F 
 1146              	
 1147              		
 1148              	_lcdxianshi:		  		@r0=LCD位置，r1=数据地址，r2=长度
 1149 0a0c 1FB5     		push {r0-r4,lr}
 1150 0a0e 0C46     		mov r4, r1
 1151              	
 1152 0a10 0021     		movs r1, # 0
 1153 0a12 00F00EF8 		bl _xielcd
 1154              	
 1155 0a16 0121     		movs r1, # 1
ARM GAS  1.s 			page 23


 1156 0a18 0023     		movs r3, # 0
 1157              	_lcdxianshixunhuan:
 1158 0a1a E05C     		ldrb r0, [r4,r3]
 1159 0a1c 00F009F8 		bl _xielcd
 1160 0a20 0133     		adds r3, r3, # 1
 1161 0a22 9342     		cmp r3, r2
 1162 0a24 F9D1     		bne _lcdxianshixunhuan
 1163 0a26 1FBD     		pop {r0-r4,pc}
 1164              	
 1165              	_lcdyanshi:
 1166 0a28 20B5     		push {r5,lr}
 1167 0a2a D84D     		ldr r5, = 0x1000
 1168              	_lcdyanshixunhuan:
 1169 0a2c 013D     		subs r5, r5, # 1
 1170 0a2e FDD1     		bne _lcdyanshixunhuan
 1171 0a30 20BD     		pop {r5,pc}
 1172              	_xielcd:					@入R0=8位,r1=0命令,r1=1数据
 1173 0a32 3FB5     		push {r0-r5,lr}
 1174 0a34 D64C     		ldr r4, = lcd_beiguang  @ 量程开关 (第6位和第7位)
 1175 0a36 0246     		mov r2, r0
 1176 0a38 2568     		ldr r5, [r4]
 1177 0a3a 1209     		lsrs r2, r2, # 4
 1178 0a3c 9200     		lsls r2, r2, # 2	@ 高四位
 1179 0a3e 0007     		lsls r0, r0, # 28
 1180 0a40 800E     		lsrs r0, r0, # 26	@ 低四位
 1181 0a42 C907     		lsls r1, r1, # 31
 1182 0a44 01D5     		bpl __lcd_ming_ling
 1183              	__lcd_shu_ju:
 1184 0a46 0323     		movs r3, # 0x03		@ RS = 1 E = 1
 1185 0a48 00E0     		b __xie_lcd_shu_ju
 1186              	__lcd_ming_ling:
 1187 0a4a 0223     		movs r3, # 0x02		@ RS = 0 E = 1
 1188              	__xie_lcd_shu_ju:
 1189 0a4c 5B19     		adds r3, r3, r5
 1190 0a4e 0146     		mov r1, r0
 1191 0a50 D218     		adds r2, r2, r3
 1192 0a52 D04D     		ldr r5, = 0x4001300c
 1193 0a54 1000     		movs r0, r2
 1194 0a56 2870     		strb r0, [r5]
 1195 0a58 00F016F8 		bl __spi_mang
 1196 0a5c 00F018F8 		bl __yanshi_595
 1197 0a60 0238     		subs r0, r0, # 0x02
 1198 0a62 2870     		strb r0, [r5]
 1199 0a64 00F010F8 		bl __spi_mang
 1200 0a68 00F012F8 		bl __yanshi_595
 1201 0a6c 0846     		mov r0, r1
 1202 0a6e C018     		adds r0, r0, r3
 1203 0a70 2870     		strb r0, [r5]
 1204 0a72 00F009F8 		bl __spi_mang
 1205 0a76 00F00BF8 		bl __yanshi_595
 1206 0a7a 0238     		subs r0, r0, # 0x02
 1207 0a7c 2870     		strb r0, [r5]
 1208 0a7e 00F003F8 		bl __spi_mang
 1209 0a82 00F005F8 		bl __yanshi_595
 1210 0a86 3FBD     		pop {r0-r5,pc}
 1211              	__spi_mang:
 1212 0a88 AA68     		ldr r2, [r5, # 0x08]
ARM GAS  1.s 			page 24


 1213 0a8a 1206     		lsls r2, r2, # 24
 1214 0a8c FCD4     		bmi __spi_mang
 1215 0a8e F746     		mov pc, lr
 1216              	__yanshi_595:
 1217 0a90 C14A     		ldr r2, = 0x2000
 1218              	__yanshi__595:
 1219 0a92 013A     		subs r2, r2, # 1
 1220 0a94 FDD1     		bne __yanshi__595
 1221 0a96 F746     		mov pc, lr
 1222              		
 1223              	
 1224              	_zhuanascii:						@ 16进制转ASCII
 1225              		@ R0要转的数据， R1长度，R2结果表首地址, r3=小数点位置
 1226 0a98 FFB5     		push {r0-r7,lr}
 1227 0a9a 1F46     		mov r7, r3
 1228 0a9c 0546     		mov r5, r0
 1229 0a9e 0E46     		mov r6, r1
 1230 0aa0 0A21     		movs r1, # 10
 1231              	_xunhuanqiuma:
 1232 0aa2 00F0F6F8 		bl _chufa
 1233 0aa6 0446     		mov r4, r0
 1234 0aa8 4C43     		muls r4, r1
 1235 0aaa 2B1B     		subs r3, r5, r4
 1236 0aac 3033     		adds r3, r3, # 0x30
 1237 0aae 0546     		mov r5, r0
 1238 0ab0 013E     		subs r6, r6, # 1
 1239 0ab2 08D0     		beq _qiumafanhui
 1240 0ab4 BE42     		cmp r6, r7
 1241 0ab6 02D1     		bne _meidaoxiaoshudian
 1242 0ab8 2E24     		movs r4, # 0x2e		@小数点
 1243 0aba 9455     		strb r4, [r2,r6]	@插入小数点
 1244 0abc 013E     		subs r6, r6, # 1
 1245              	_meidaoxiaoshudian:
 1246 0abe 9355     		strb r3, [r2,r6]
 1247 0ac0 3600     		movs r6, r6
 1248 0ac2 EED1     		bne _xunhuanqiuma
 1249 0ac4 FFBD     		pop {r0-r7,pc}
 1250              	_qiumafanhui:
 1251 0ac6 9355     		strb r3, [r2, r6]
 1252 0ac8 FFBD     		pop {r0-r7,pc}
 1253              	
 1254              	__fu_shu_chu_fa:
 1255              		@入口R0=a R1=b,R2=c R3=d
 1256              		@出口R2=实部 R1=虚部
 1257 0aca F0B5     		push {r4-r7,lr}
 1258 0acc 002A     		cmp r2, # 0
 1259 0ace 03D1     		bne __tiao_guo_bei_chu_shu_0_pan_duan
 1260 0ad0 002B     		cmp r3, # 0
 1261 0ad2 01D1     		bne __tiao_guo_bei_chu_shu_0_pan_duan
 1262 0ad4 0246     		mov r2, r0
 1263 0ad6 F0BD     		pop {r4-r7,pc}
 1264              	__tiao_guo_bei_chu_shu_0_pan_duan:
 1265 0ad8 4446     		mov r4, r8
 1266 0ada 4D46     		mov r5, r9
 1267 0adc 5646     		mov r6, r10
 1268 0ade 5F46     		mov r7, r11
 1269 0ae0 F0B4     		push {r4-r7}
ARM GAS  1.s 			page 25


 1270              	__ji_suan_chu_fa:
 1271 0ae2 8046     		mov r8, r0	@a
 1272 0ae4 8946     		mov r9, r1	@b
 1273 0ae6 9246     		mov r10, r2	@c
 1274 0ae8 9B46     		mov r11, r3	@d
 1275 0aea 0027     		movs r7, # 0
 1276              		@ (a+bi)/(c+di)=(ac+bd)/(c*c+d*d)+(bc-ad)/(c*c+d*d)
 1277 0aec 0000     		movs r0, r0
 1278 0aee 02D5     		bpl b1
 1279 0af0 C043     		mvns r0, r0
 1280 0af2 0130     		adds r0, r0, # 1
 1281 0af4 0127     		movs r7, # 1
 1282              	b1:
 1283 0af6 5146     		mov r1, r10
 1284 0af8 0900     		movs r1, r1
 1285 0afa 02D5     		bpl b2
 1286 0afc C943     		mvns r1, r1
 1287 0afe 0131     		adds r1, r1, # 1
 1288 0b00 0137     		adds r7, r7, # 1
 1289              	b2:
 1290 0b02 00F0A1F8 		bl __chengfa
 1291              	b3:
 1292 0b06 012F     		cmp r7, # 1
 1293 0b08 01D1     		bne a1
 1294 0b0a C043     		mvns r0, r0
 1295 0b0c C943     		mvns r1, r1
 1296              	a1:
 1297 0b0e 0446     		mov r4, r0	@a*c高32
 1298 0b10 0D46     		mov r5, r1	@a*c低32
 1299 0b12 0027     		movs r7, # 0
 1300 0b14 4846     		mov r0, r9
 1301 0b16 5946     		mov r1, r11
 1302 0b18 0000     		movs r0, r0
 1303 0b1a 02D5     		bpl b4
 1304 0b1c C043     		mvns r0, r0
 1305 0b1e 0130     		adds r0, r0, # 1
 1306 0b20 0137     		adds r7, r7, # 1
 1307              	b4:
 1308 0b22 0900     		movs r1, r1
 1309 0b24 02D5     		bpl b5
 1310 0b26 C943     		mvns r1, r1
 1311 0b28 0131     		adds r1, r1, # 1
 1312 0b2a 0137     		adds r7, r7, # 1
 1313              	b5:
 1314 0b2c 00F08CF8 		bl __chengfa
 1315              	b6:
 1316 0b30 012F     		cmp r7, # 1
 1317 0b32 01D1     		bne a2
 1318 0b34 C043     		mvns r0, r0
 1319 0b36 C943     		mvns r1, r1
 1320              	a2:
 1321 0b38 4919     		adds r1, r1, r5	@ac+bd低32
 1322 0b3a 6041     		adcs r0, r0, r4	@ac+bd高32
 1323 0b3c 0646     		mov r6, r0
 1324 0b3e 0F46     		mov r7, r1
 1325 0b40 5046     		mov r0, r10
 1326 0b42 4043     		muls r0, r0, r0
ARM GAS  1.s 			page 26


 1327 0b44 0446     		mov r4, r0	@c*c
 1328 0b46 5846     		mov r0, r11
 1329 0b48 4043     		muls r0, r0, r0
 1330 0b4a 0019     		adds r0, r0, r4
 1331 0b4c 01B4     		push {r0}
 1332 0b4e 3946     		mov r1, r7
 1333 0b50 0027     		movs r7, # 0
 1334 0b52 0200     		movs r2, r0
 1335 0b54 02D5     		bpl b7
 1336 0b56 D243     		mvns r2, r2
 1337 0b58 0132     		adds r2, r2, # 1
 1338 0b5a 0137     		adds r7, r7, # 1
 1339              	b7:
 1340 0b5c 3000     		movs r0, r6
 1341 0b5e 02D5     		bpl b8
 1342 0b60 C043     		mvns r0, r0
 1343 0b62 C943     		mvns r1, r1
 1344 0b64 0137     		adds r7, r7, # 1
 1345              	b8:
 1346 0b66 00F04BF8 		bl __chufa64
 1347 0b6a 012F     		cmp r7, # 1
 1348 0b6c 01D1     		bne __bao_cun_chu_fa_shi_bu_jie_guo
 1349 0b6e C043     		mvns r0, r0
 1350 0b70 C943     		mvns r1, r1
 1351              	__bao_cun_chu_fa_shi_bu_jie_guo:
 1352 0b72 0646     		mov r6, r0	@实部高32
 1353 0b74 0F46     		mov r7, r1	@实部低32
 1354              		@r8=a, r9=b, r10=c, r11=d
 1355              		@(b*c-a*d)/(c*c+d*d)
 1356 0b76 0025     		movs r5, # 0
 1357 0b78 4846     		mov r0, r9
 1358 0b7a 0000     		movs r0, r0
 1359 0b7c 02D5     		bpl b9
 1360 0b7e C043     		mvns r0, r0
 1361 0b80 0130     		adds r0, r0, # 1
 1362 0b82 0135     		adds r5, r5, # 1
 1363              	b9:
 1364 0b84 5146     		mov r1, r10
 1365 0b86 0900     		movs r1, r1
 1366 0b88 02D5     		bpl b10
 1367 0b8a C943     		mvns r1, r1
 1368 0b8c 0131     		adds r1, r1, # 1
 1369 0b8e 0135     		adds r5, r5, # 1
 1370              	b10:
 1371 0b90 00F05AF8 		bl __chengfa
 1372 0b94 012D     		cmp r5, # 1
 1373 0b96 01D1     		bne a3
 1374 0b98 C043     		mvns r0, r0
 1375 0b9a C943     		mvns r1, r1
 1376              	a3:
 1377 0b9c 0446     		mov r4, r0      @b*c高32
 1378 0b9e 0D46     		mov r5, r1      @b*c低32
 1379 0ba0 0023     		movs r3, # 0
 1380 0ba2 4046     		mov r0, r8
 1381 0ba4 0000     		movs r0, r0
 1382 0ba6 02D5     		bpl b11
 1383 0ba8 C043     		mvns r0, r0
ARM GAS  1.s 			page 27


 1384 0baa 0130     		adds r0, r0, # 1
 1385 0bac 0133     		adds r3, r3, # 1
 1386              	b11:
 1387 0bae 5946     		mov r1, r11
 1388 0bb0 0900     		movs r1, r1
 1389 0bb2 02D5     		bpl b12
 1390 0bb4 C943     		mvns r1, r1
 1391 0bb6 0131     		adds r1, r1, # 1
 1392 0bb8 0133     		adds r3, r3, # 1
 1393              	b12:
 1394 0bba 00F045F8 		bl __chengfa
 1395 0bbe 012B     		cmp r3, # 1
 1396 0bc0 01D1     		bne a4
 1397 0bc2 C043     		mvns r0, r0
 1398 0bc4 C943     		mvns r1, r1
 1399              	a4:
 1400 0bc6 6D1A     		subs r5, r5, r1 @bc-ad低32
 1401 0bc8 8441     		sbcs r4, r4, r0 @bc-ad高32
 1402 0bca 04BC     		pop {r2}
 1403 0bcc 2946     		mov r1, r5
 1404 0bce 0025     		movs r5, # 0
 1405 0bd0 1200     		movs r2, r2
 1406 0bd2 02D5     		bpl b13
 1407 0bd4 D243     		mvns r2, r2
 1408 0bd6 0132     		adds r2, r2, # 1
 1409 0bd8 0135     		adds r5, r5, # 1
 1410              	b13:
 1411 0bda 2000     		movs r0, r4
 1412 0bdc 02D5     		bpl b14
 1413 0bde C043     		mvns r0, r0
 1414 0be0 C943     		mvns r1, r1
 1415 0be2 0135     		adds r5, r5, # 1
 1416              	b14:
 1417 0be4 00F00CF8 		bl __chufa64
 1418 0be8 012D     		cmp r5, # 1
 1419 0bea 02D1     		bne __bao_cun_chu_fa_xu_bu_jie_guo
 1420 0bec C943     		mvns r1, r1
 1421 0bee C043     		mvns r0, r0
 1422 0bf0 0131     		adds r1, r1, # 1
 1423              	__bao_cun_chu_fa_xu_bu_jie_guo:
 1424 0bf2 3A46     		mov r2, r7
 1425 0bf4 F0BC     		pop {r4-r7}
 1426 0bf6 A046     		mov r8, r4
 1427 0bf8 A946     		mov r9, r5
 1428 0bfa B246     		mov r10, r6
 1429 0bfc BB46     		mov r11, r7
 1430 0bfe F0BD     		pop {r4-r7,pc}
 1431              	
 1432              	__chufa64:
 1433              		@64位除32位
 1434              		@ （R0=高32位R1=低32位）除（R2)= （R0高32）（R1低32）
 1435 0c00 F8B5     		push {r3-r7,lr}
 1436 0c02 002A     		cmp r2, # 0
 1437 0c04 1DD0     		beq __chu_fa64_fan_hui0
 1438 0c06 0029     		cmp r1, # 0
 1439 0c08 01D1     		bne __chu_fa64_ji_suan
 1440 0c0a 0028     		cmp r0, # 0
ARM GAS  1.s 			page 28


 1441 0c0c 19D0     		beq __chu_fa64_fan_hui0
 1442              	__chu_fa64_ji_suan:
 1443 0c0e 0024     		movs r4, # 0
 1444 0c10 2746     		mov r7, r4
 1445 0c12 2346     		mov r3, r4
 1446 0c14 2546     		mov r5, r4
 1447 0c16 0126     		movs r6, # 1
 1448 0c18 F607     		lsls r6, r6, # 31
 1449              	__chu_fa64_xun_huan:
 1450 0c1a 4900     		lsls r1, r1, # 1
 1451 0c1c 4041     		adcs r0, r0, r0
 1452 0c1e 6441     		adcs r4, r4, r4
 1453 0c20 9442     		cmp r4, r2
 1454 0c22 02D3     		bcc __chu_fa_yi_wei
 1455 0c24 9B19     		adds r3, r3, r6
 1456 0c26 7D41     		adcs r5, r5, r7
 1457 0c28 A41A     		subs r4, r4, r2
 1458              	__chu_fa_yi_wei:
 1459 0c2a 3600     		movs r6, r6
 1460 0c2c 04D0     		beq __di_yi_wei
 1461 0c2e 7608     		lsrs r6, r6, # 1        @高32位移位
 1462 0c30 F3D1     		bne __chu_fa64_xun_huan
 1463 0c32 0127     		movs r7, # 1
 1464 0c34 FF07     		lsls r7, r7, # 31
 1465 0c36 F0E7     		b __chu_fa64_xun_huan
 1466              	__di_yi_wei:	            @低32位移位
 1467 0c38 7F08     		lsrs r7, r7, # 1
 1468 0c3a EED1     		bne __chu_fa64_xun_huan
 1469 0c3c 1846     		mov r0, r3
 1470 0c3e 2946     		mov r1, r5
 1471 0c40 F8BD     		pop {r3-r7,pc}
 1472              	__chu_fa64_fan_hui0:
 1473 0c42 0020     		movs r0, # 0
 1474 0c44 0021     		movs r1, # 0
 1475 0c46 F8BD     		pop {r3-r7,pc}
 1476              	__chengfa:
 1477              		@入R0 乘以 R1
 1478              		@出 R0高32 ， R1低32
 1479              		@0xffffffff*0xffffffff
 1480              		@4        F F F E 0 0 0 1                       @4
 1481              		@3                F F F E 0 0 0 1               @3
 1482              		@2                F F F E 0 0 0 1               @2
 1483              		@1                        F F F E 0 0 0 1       @1
 1484              		@         F F F F F F F E 0 0 0 0 0 0 0 1
 1485 0c48 FCB5     		push {r2-r7,lr}
 1486 0c4a 0028     		cmp r0, # 0
 1487 0c4c 1ED0     		beq __cheng_fa_fan_hui
 1488 0c4e 0029     		cmp r1, # 0
 1489 0c50 1CD0     		beq __cheng_fa_fan_hui
 1490              	__ji_suan_cheng_fa:
 1491 0c52 0246     		mov r2, r0
 1492 0c54 0B46     		mov r3, r1
 1493 0c56 000C     		lsrs r0, r0, # 16       @高16
 1494 0c58 1204     		lsls r2, r2, # 16       @ 低16
 1495 0c5a 120C     		lsrs r2, r2, # 16
 1496 0c5c 090C     		lsrs r1, r1, # 16       @高16
 1497 0c5e 1B04     		lsls r3, r3, # 16       @低16
ARM GAS  1.s 			page 29


 1498 0c60 1B0C     		lsrs r3, r3, # 16
 1499 0c62 1446     		mov r4, r2
 1500 0c64 0546     		mov r5, r0
 1501 0c66 5A43     		muls r2, r2, r3         @1
 1502 0c68 5843     		muls r0, r0, r3         @2
 1503 0c6a 4C43     		muls r4, r4, r1         @3
 1504 0c6c 4D43     		muls r5, r5, r1         @4
 1505 0c6e 0646     		mov r6, r0
 1506 0c70 2746     		mov r7, r4
 1507 0c72 0004     		lsls r0, r0, # 16       @2低32
 1508 0c74 2404     		lsls r4, r4, # 16       @3低32
 1509 0c76 360C     		lsrs r6, r6, # 16       @2高32
 1510 0c78 3F0C     		lsrs r7, r7, # 16       @3高32
 1511 0c7a 0021     		movs r1, # 0
 1512 0c7c 1218     		adds r2, r2, r0         @低32
 1513 0c7e 4E41     		adcs r6, r6, r1         @高32
 1514 0c80 1219     		adds r2, r2, r4
 1515 0c82 7E41     		adcs r6, r6, r7
 1516 0c84 7619     		adds r6, r6, r5
 1517 0c86 3046     		mov r0, r6
 1518 0c88 1146     		mov r1, r2
 1519 0c8a FCBD     		pop {r2-r7,pc}
 1520              	__cheng_fa_fan_hui:
 1521 0c8c 0020     		movs r0, # 0
 1522 0c8e 0021     		movs r1, # 0
 1523 0c90 FCBD     		pop {r2-r7,pc}
 1524              		
 1525              	_chufa:				@软件除法
 1526              		@ r0 除以 r1 等于 商(r0)
 1527 0c92 1EB5     		push {r1-r4,lr}
 1528 0c94 0028     		cmp r0, # 0
 1529 0c96 0ED0     		beq _chufafanhui
 1530 0c98 0029     		cmp r1, # 0
 1531 0c9a 0CD0     		beq _chufafanhui
 1532 0c9c 0246     		mov r2, r0
 1533 0c9e 0123     		movs r3, # 1
 1534 0ca0 DB07     		lsls r3, r3, # 31
 1535 0ca2 0020     		movs r0, # 0
 1536 0ca4 0446     		mov r4, r0
 1537              	_chufaxunhuan:
 1538 0ca6 5200     		lsls r2, r2, # 1
 1539 0ca8 6441     		adcs r4, r4, r4
 1540 0caa 8C42     		cmp r4, r1
 1541 0cac 01D3     		bcc _chufaweishubudao0
 1542 0cae C018     		adds r0, r0, r3
 1543 0cb0 641A     		subs r4, r4, r1
 1544              	_chufaweishubudao0:
 1545 0cb2 5B08     		lsrs r3, r3, # 1
 1546 0cb4 F7D1     		bne _chufaxunhuan
 1547              	_chufafanhui:
 1548 0cb6 1EBD     		pop {r1-r4,pc}
 1549              	
 1550              	_nmi_handler:
 1551 0cb8 7047     		bx lr
 1552              	_hard_fault:
 1553 0cba 7047     		bx lr
 1554              	_svc_handler:
ARM GAS  1.s 			page 30


 1555 0cbc 7047     		bx lr
 1556              	_pendsv_handler:
 1557 0cbe 7047     		bx lr
 1558              	_systickzhongduan:
 1559 0cc0 10B5     		push {r4,lr}
 1560 0cc2 3648     		ldr r0, = 0xe0000d04
 1561 0cc4 3649     		ldr r1, = 0x02000000
 1562 0cc6 0160     		str r1, [r0]                 @ 清除SYSTICK中断
 1563 0cc8 364A     		ldr r2, = shangxiabi_qiehuan
 1564 0cca 1368     		ldr r3, [r2]
 1565 0ccc 012B     		cmp r3, # 1
 1566 0cce 28D1     		bne __shangbi_dft
 1567 0cd0 0023     	        movs r3, # 0
 1568 0cd2 1360     		str r3, [r2]
 1569 0cd4 344A     		ldr r2, = 0x48000400
 1570 0cd6 0223     		movs r3, #  0x02
 1571 0cd8 9362     		str r3, [r2, # 0x28]    @cd4053_9_10 上臂开
 1572 0cda 3448     		ldr r0, = liangcheng
 1573 0cdc 3449     		ldr r1, = shangbi_liangcheng
 1574 0cde 0068     		ldr r0, [r0]
 1575 0ce0 4000     		lsls r0, r0, # 1
 1576 0ce2 344A     		ldr r2, = 0x48000000
 1577 0ce4 0B5A     		ldrh  r3, [r1, r0]
 1578 0ce6 5361     		str r3, [r2, # 0x14]
 1579 0ce8 334A     		ldr r2, = dma_r
 1580 0cea 3448     		ldr r0, = 0x40020000
 1581 0cec C068     		ldr r0, [r0, # 0x0c]
 1582 0cee 1060     		str r0, [r2]
 1583 0cf0 FFF72DFE 		bl __dft
 1584 0cf4 C043     		mvns r0, r0
 1585 0cf6 C943     		mvns r1, r1
 1586 0cf8 0130     		adds r0, r0, # 1
 1587 0cfa 0131     		adds r1, r1, # 1
 1588 0cfc 304A     		ldr r2, = xiabi_rr
 1589 0cfe 314B     		ldr r3, = xiabi_ii
 1590 0d00 1060     		str r0, [r2]
 1591 0d02 1960     		str r1, [r3]
 1592 0d04 0446     	        mov r4, r0
 1593 0d06 304A     		ldr r2, = lvboqizhizhen3
 1594 0d08 3048     		ldr r0, =lvboqihuanchong3
 1595 0d0a FFF748FE 		bl __lv_bo_qi
 1596 0d0e 3049     		ldr r1, = xiabi_i
 1597 0d10 0860     		str r0, [r1]
 1598 0d12 2146     		mov r1, r4
 1599 0d14 2F4A     		ldr r2, = lvboqizhizhen2
 1600 0d16 3048     		ldr r0, = lvboqihuanchong2
 1601 0d18 FFF741FE 		bl __lv_bo_qi
 1602 0d1c 2F49     		ldr r1, = xiabi_r
 1603 0d1e 0860     		str r0, [r1]
 1604 0d20 32E0     		b __systick_fanhui
 1605              		
 1606              	__shangbi_dft:
 1607 0d22 0123     		movs r3, # 1
 1608 0d24 1360     		str r3, [r2]
 1609 0d26 204A     		ldr r2, = 0x48000400
 1610 0d28 0223     	        movs r3, #  0x02
 1611 0d2a 9361     		str r3, [r2, # 0x18]    @cd4053_9_10 下臂开
ARM GAS  1.s 			page 31


 1612 0d2c 1F48     	        ldr r0, = liangcheng
 1613 0d2e 2C49     		ldr r1, = xiabi_liangcheng
 1614 0d30 0068     		ldr r0, [r0]
 1615 0d32 4000     		lsls r0, r0, # 1
 1616 0d34 1F4A     		ldr r2, = 0x48000000
 1617 0d36 0B5A     		ldrh r3, [r1, r0]
 1618 0d38 5361     		str r3, [r2, # 0x14]
 1619 0d3a 2A4A     		ldr r2, = dma_i
 1620 0d3c 1F48     		ldr r0, = 0x40020000
 1621 0d3e C068     		ldr r0, [r0, # 0x0c]
 1622 0d40 1060     		str r0, [r2]
 1623 0d42 FFF704FE 		bl __dft
 1624 0d46 284A     		ldr r2, = shangbi_rr
 1625 0d48 284B     		ldr r3, = shangbi_ii
 1626 0d4a 1060     		str r0, [r2]
 1627 0d4c 1960     		str r1, [r3]
 1628 0d4e 0446     		mov r4, r0
 1629 0d50 274A     		ldr r2, = lvboqizhizhen1
 1630 0d52 2848     		ldr r0, =lvboqihuanchong1
 1631 0d54 FFF723FE 		bl __lv_bo_qi
 1632 0d58 2749     		ldr r1, = shangbi_i
 1633 0d5a 0860     		str r0, [r1]
 1634 0d5c 2146     		mov r1, r4
 1635 0d5e 274A     	        ldr r2, = lvboqizhizhen
 1636 0d60 2748     		ldr r0, =lvboqihuanchong
 1637 0d62 FFF71CFE 		bl __lv_bo_qi
 1638 0d66 2749     		ldr r1, = shangbi_r
 1639 0d68 0860     		str r0, [r1]
 1640 0d6a 2748     		ldr r0, = jishu
 1641 0d6c 0168     		ldr r1, [r0]
 1642 0d6e 0131     		adds r1, r1, # 1
 1643 0d70 0160     		str r1, [r0]
 1644 0d72 0329     		cmp r1, # 3
 1645 0d74 08D1     		bne __systick_fanhui
 1646 0d76 0021     		movs r1, # 0
 1647 0d78 0160     		str r1, [r0]
 1648 0d7a 2448     		ldr r0, = xianshi_biaozhi
 1649 0d7c 0121     		movs r1, # 1
 1650 0d7e 0160     		str r1, [r0]
 1651 0d80 FFF78EFC 		bl __jisuan_z_fudu
 1652 0d84 FFF7A7FC 		bl __zidong_dangwei
 1653              	__systick_fanhui:	
 1654 0d88 10BD     		pop {r4,pc}
 1655              	aaa:
 1656 0d8a 7047     		bx lr
 1657 0d8c 00100000 		.ltorg
 1657      20000020 
 1657      0C300140 
 1657      00200000 
 1657      040D00E0 
 1658              		.end
ARM GAS  1.s 			page 32


DEFINED SYMBOLS
                 1.s:9      .data:0000000000000000 zheng_xian_100khz
                 1.s:11     .data:0000000000000014 $d
                 1.s:12     .data:0000000000000020 zheng_xian_10khz
                 1.s:15     .data:00000000000000f0 zheng_xian_1khz
                 1.s:18     .data:00000000000004e0 zheng_xian_100hz
                 1.s:22     .data:0000000000001870 cos_sin_biao_100k
                 1.s:24     .data:0000000000001914 cos_sin_biao_10k
                 1.s:26     .data:0000000000001f58 cos_sin_biao_100_1k
                 1.s:28     .data:0000000000003e98 shangbi_liangcheng
                 1.s:33     .data:0000000000003eb6 xiabi_liangcheng
                 1.s:39     .data:0000000000003ee0 zukang_xiaoshu_dian
                 1.s:45     .data:0000000000003ef0 zukang_huansuan_biao
                 1.s:50     .data:0000000000003f2c zukang_danwei
                 1.s:58     .data:0000000000003f70 kong
                 1.s:60     .data:0000000000003f74 _fu
                 1.s:62     .data:0000000000003f75 yjmwxwx
                 1.s:65     *ABS*:0000000020001000 STACKINIT
                 1.s:66     *ABS*:0000000020000000 asciimabiao
                 1.s:67     *ABS*:0000000020000020 lcd_beiguang
                 1.s:68     *ABS*:0000000020000024 shangbi_r
                 1.s:69     *ABS*:0000000020000028 shangbi_i
                 1.s:70     *ABS*:000000002000002c xiabi_r
                 1.s:71     *ABS*:0000000020000030 xiabi_i
                 1.s:72     *ABS*:0000000020000034 shangxiabi_qiehuan
                 1.s:73     *ABS*:0000000020000038 liangcheng
                 1.s:74     *ABS*:000000002000003c z_r
                 1.s:75     *ABS*:0000000020000040 z_i
                 1.s:76     *ABS*:0000000020000044 dma_r
                 1.s:77     *ABS*:0000000020000048 dma_i
                 1.s:78     *ABS*:000000002000004c huandangyanshi
                 1.s:79     *ABS*:0000000020000050 shangbi_rr
                 1.s:80     *ABS*:0000000020000054 shangbi_ii
                 1.s:81     *ABS*:0000000020000058 xiabi_rr
                 1.s:82     *ABS*:000000002000005c xiabi_ii
                 1.s:83     *ABS*:0000000020000060 jishu
                 1.s:84     *ABS*:0000000020000064 xianshi_biaozhi
                 1.s:85     *ABS*:0000000020000068 z_fudu
                 1.s:86     *ABS*:000000002000006c cossin
                 1.s:87     *ABS*:0000000020000070 pinlv
                 1.s:88     *ABS*:0000000020000074 anjian
                 1.s:89     *ABS*:0000000020000078 shezhi_pinlv
                 1.s:90     *ABS*:0000000020000100 dianyabiao
                 1.s:91     *ABS*:00000000200008d0 lvboqizhizhen
                 1.s:92     *ABS*:00000000200008d8 lvboqihuanchong
                 1.s:93     *ABS*:00000000200009e0 lvboqizhizhen1
                 1.s:94     *ABS*:00000000200009e8 lvboqihuanchong1
                 1.s:95     *ABS*:0000000020000af0 lvboqizhizhen2
                 1.s:96     *ABS*:0000000020000af8 lvboqihuanchong2
                 1.s:97     *ABS*:0000000020000c00 lvboqizhizhen3
                 1.s:98     *ABS*:0000000020000c08 lvboqihuanchong3
                 1.s:103    .text:0000000000000000 vectors
                 1.s:149    .text:00000000000000b0 _start
                 1.s:1550   .text:0000000000000cb8 _nmi_handler
                 1.s:1552   .text:0000000000000cba _hard_fault
                 1.s:1554   .text:0000000000000cbc _svc_handler
                 1.s:1556   .text:0000000000000cbe _pendsv_handler
ARM GAS  1.s 			page 33


                 1.s:1558   .text:0000000000000cc0 _systickzhongduan
                 1.s:1655   .text:0000000000000d8a aaa
                            .text:0000000000000000 $d
                 1.s:148    .text:00000000000000b0 $t
                 1.s:150    .text:00000000000000b0 shizhong
                 1.s:157    .text:00000000000000bc denghse
                 1.s:161    .text:00000000000000c2 dengpllguan
                 1.s:173    .text:00000000000000d6 dengpll
                 1.s:182    .text:00000000000000e0 _waisheshizhong
                 1.s:199    .text:00000000000000ee _neicunqingling
                 1.s:203    .text:00000000000000f4 _neicunqinglingxunhuan
                 1.s:208    .text:00000000000000fa _waishezhongduan
                 1.s:230    .text:0000000000000100 io_she_zhi
                 1.s:265    .text:0000000000000118 spi_chushihua
                 1.s:272    .text:0000000000000122 _lcdchushihua
                 1.s:1172   .text:0000000000000a32 _xielcd
                 1.s:1165   .text:0000000000000a28 _lcdyanshi
                 1.s:1148   .text:0000000000000a0c _lcdxianshi
                 1.s:300    .text:000000000000016a yjmwxwx_yanshi
                 1.s:309    .text:000000000000017a _adcchushihua
                 1.s:313    .text:0000000000000180 _dengadcjiaozhun
                 1.s:319    .text:000000000000018a _kaiadc
                 1.s:324    .text:0000000000000192 _deng_adc_wen_ding
                 1.s:328    .text:0000000000000198 _tongdaoxuanze
                 1.s:375    .text:0000000000000268 __pinlv_shezhi
                 1.s:734    .text:0000000000000618 __pin_lv_xian_shi
                 1.s:355    .text:00000000000001c0 ting
                 1.s:360    .text:00000000000001cc __tiaoguo_pinlv_shezhi
                 1.s:809    .text:000000000000070c __jisuan_zukang
                 1.s:875    .text:00000000000007bc __xianshi_zukang
                 1.s:949    .text:000000000000084e __xianshi_liangcheng
                 1.s:373    .text:00000000000001ec $d
                 1.s:378    .text:0000000000000268 $t
                 1.s:405    .text:00000000000002a0 __pinlv_shezhi_fanhui
                 1.s:388    .text:000000000000027e __pl1
                 1.s:407    .text:00000000000002a2 __pinlv_100
                 1.s:394    .text:000000000000028a __pl2
                 1.s:489    .text:00000000000003a0 __pinlv_1K
                 1.s:400    .text:0000000000000296 __pl3
                 1.s:572    .text:0000000000000494 __pinlv_10K
                 1.s:652    .text:0000000000000588 __pinlv_100K
                 1.s:416    .text:00000000000002b2 __deng_adc_ting
                 1.s:487    .text:0000000000000332 $d
                 1.s:487    .text:0000000000000334 $d
                 1.s:490    .text:00000000000003a0 $t
                 1.s:498    .text:00000000000003b0 __deng_adc_ting1
                 1.s:569    .text:0000000000000430 $d
                 1.s:573    .text:0000000000000494 $t
                 1.s:581    .text:00000000000004a4 __deng_adc_ting2
                 1.s:651    .text:0000000000000524 $d
                 1.s:653    .text:0000000000000588 $t
                 1.s:661    .text:0000000000000598 __deng_adc_ting3
                 1.s:1224   .text:0000000000000a98 _zhuanascii
                 1.s:747    .text:0000000000000634 $d
                 1.s:749    .text:00000000000006a0 __jisuan_z_fudu
                 1.s:750    .text:00000000000006a0 $t
                 1.s:829    .text:0000000000000732 __ji_suan_fu_du
ARM GAS  1.s 			page 34


                 1.s:1525   .text:0000000000000c92 _chufa
                 1.s:777    .text:00000000000006d6 __zidong_dangwei
                 1.s:779    .text:00000000000006d8 __huan_dang
                 1.s:797    .text:00000000000006fa __dang_wei_jian
                 1.s:806    .text:000000000000070a __zi_dong_dang_wei_fan_hui
                 1.s:1254   .text:0000000000000aca __fu_shu_chu_fa
                 1.s:839    .text:000000000000073c _shibubushifushu
                 1.s:844    .text:0000000000000744 _xububushifushu
                 1.s:849    .text:000000000000074c _panduanxubushibushi0
                 1.s:853    .text:0000000000000752 _jisuanfudu1
                 1.s:866    .text:0000000000000768 _alpha_min_beta_max
                 1.s:858    .text:000000000000075a _alpha_max_beta_min
                 1.s:874    .text:0000000000000776 $d
                 1.s:874    .text:0000000000000778 $d
                 1.s:876    .text:00000000000007bc $t
                 1.s:899    .text:00000000000007ec aaa1
                 1.s:904    .text:00000000000007f6 aaa2
                 1.s:928    .text:0000000000000826 bbb1
                 1.s:933    .text:0000000000000830 bbb2
                 1.s:963    .text:000000000000086a __xianshi_shangxia_bi
                 1.s:978    .text:0000000000000888 aa1
                 1.s:983    .text:0000000000000892 aa2
                 1.s:1004   .text:00000000000008bc bb1
                 1.s:1009   .text:00000000000008c6 bb2
                 1.s:1033   .text:00000000000008f8 cc1
                 1.s:1038   .text:0000000000000902 cc2
                 1.s:1059   .text:000000000000092c dd1
                 1.s:1064   .text:0000000000000936 dd2
                 1.s:1076   .text:000000000000094e __dft
                 1.s:1092   .text:000000000000096c __dft_xunhuan
                 1.s:1100   .text:000000000000097a __du_sin
                 1.s:1120   .text:000000000000099e __lv_bo_qi
                 1.s:1137   .text:00000000000009b8 __huanchong_leijia
                 1.s:1145   .text:00000000000009c6 $d
                 1.s:1145   .text:00000000000009c8 $d
                 1.s:1149   .text:0000000000000a0c $t
                 1.s:1157   .text:0000000000000a1a _lcdxianshixunhuan
                 1.s:1168   .text:0000000000000a2c _lcdyanshixunhuan
                 1.s:1186   .text:0000000000000a4a __lcd_ming_ling
                 1.s:1183   .text:0000000000000a46 __lcd_shu_ju
                 1.s:1188   .text:0000000000000a4c __xie_lcd_shu_ju
                 1.s:1211   .text:0000000000000a88 __spi_mang
                 1.s:1216   .text:0000000000000a90 __yanshi_595
                 1.s:1218   .text:0000000000000a92 __yanshi__595
                 1.s:1231   .text:0000000000000aa2 _xunhuanqiuma
                 1.s:1250   .text:0000000000000ac6 _qiumafanhui
                 1.s:1245   .text:0000000000000abe _meidaoxiaoshudian
                 1.s:1264   .text:0000000000000ad8 __tiao_guo_bei_chu_shu_0_pan_duan
                 1.s:1270   .text:0000000000000ae2 __ji_suan_chu_fa
                 1.s:1282   .text:0000000000000af6 b1
                 1.s:1289   .text:0000000000000b02 b2
                 1.s:1476   .text:0000000000000c48 __chengfa
                 1.s:1291   .text:0000000000000b06 b3
                 1.s:1296   .text:0000000000000b0e a1
                 1.s:1307   .text:0000000000000b22 b4
                 1.s:1313   .text:0000000000000b2c b5
                 1.s:1315   .text:0000000000000b30 b6
ARM GAS  1.s 			page 35


                 1.s:1320   .text:0000000000000b38 a2
                 1.s:1339   .text:0000000000000b5c b7
                 1.s:1345   .text:0000000000000b66 b8
                 1.s:1432   .text:0000000000000c00 __chufa64
                 1.s:1351   .text:0000000000000b72 __bao_cun_chu_fa_shi_bu_jie_guo
                 1.s:1363   .text:0000000000000b84 b9
                 1.s:1370   .text:0000000000000b90 b10
                 1.s:1376   .text:0000000000000b9c a3
                 1.s:1386   .text:0000000000000bae b11
                 1.s:1393   .text:0000000000000bba b12
                 1.s:1399   .text:0000000000000bc6 a4
                 1.s:1410   .text:0000000000000bda b13
                 1.s:1416   .text:0000000000000be4 b14
                 1.s:1423   .text:0000000000000bf2 __bao_cun_chu_fa_xu_bu_jie_guo
                 1.s:1472   .text:0000000000000c42 __chu_fa64_fan_hui0
                 1.s:1442   .text:0000000000000c0e __chu_fa64_ji_suan
                 1.s:1449   .text:0000000000000c1a __chu_fa64_xun_huan
                 1.s:1458   .text:0000000000000c2a __chu_fa_yi_wei
                 1.s:1466   .text:0000000000000c38 __di_yi_wei
                 1.s:1520   .text:0000000000000c8c __cheng_fa_fan_hui
                 1.s:1490   .text:0000000000000c52 __ji_suan_cheng_fa
                 1.s:1547   .text:0000000000000cb6 _chufafanhui
                 1.s:1537   .text:0000000000000ca6 _chufaxunhuan
                 1.s:1544   .text:0000000000000cb2 _chufaweishubudao0
                 1.s:1606   .text:0000000000000d22 __shangbi_dft
                 1.s:1653   .text:0000000000000d88 __systick_fanhui
                 1.s:1657   .text:0000000000000d8c $d

NO UNDEFINED SYMBOLS
