ARM GAS  1.s 			page 1


   1              		 .thumb                 
   2              	         .syntax unified
   3              	.section .data
   4              		.equ STACKINIT,         0x20005000
   5              		.equ systickms, 	0x20000000
   6              	cordicbiao:
   7 0000 43320000 		.int 0x00003243, 0x00001DAC, 0x00000FAD, 0x000007F5, 0x000003FE, 0x000001FF, 0x000000FF, 0x0000007
   7      AC1D0000 
   7      AD0F0000 
   7      F5070000 
   7      FE030000 
   8              	
   9              	zhengxianbiao:
  10 0040 100E0B0F 		.short 0xe10,0xf0b,0x1005,0x10fc,0x11f0,0x12df,0x13c8,0x14aa,0x1584,0x1654,0x171a,0x17d5,0x1883,0x
  10      0510FC10 
  10      F011DF12 
  10      C813AA14 
  10      84155416 
  11              		
  12              	.section .text
  13              	_xiangliangbiao:
  14 0000 00500020 		.word STACKINIT
  15 0004 0D010000 		.word _start + 1
  16 0008 A1020000 		.word _nmi_handler + 1
  17 000c A3020000 		.word _hard_fault  + 1
  18 0010 A5020000 		.word _memory_fault + 1
  19 0014 A7020000 		.word _bus_fault + 1
  20 0018 A9020000 		.word _usage_fault + 1
  21 001c 00000000 		.word 0
  22 0020 00000000 		.word 0
  23 0024 00000000 		.word 0
  24 0028 00000000 		.word 0
  25 002c 00000000 		.word 0
  26 0030 00000000 		.word 0
  27 0034 00000000 		.word 0
  28 0038 00000000 		.word 0
  29 003c AB020000 		.word systickdingshiqi +1
  30 0040 00000000 		.word	0 @WWDG  	0
  31 0044 00000000 		.word	0 @PVD  	1
  32 0048 00000000 		.word	0 @TAMPER	2
  33 004c 00000000 		.word	0 @RTC		3
  34 0050 00000000 		.word	0 @FLASH	4
  35 0054 00000000 		.word	0 @RCC		5
  36 0058 00000000 		.word	0 @EXTI0	6
  37 005c 00000000 		.word	0 @EXTI1	7
  38 0060 00000000 		.word	0 @EXTI2	8
  39 0064 00000000 		.word	0 @EXTI3	9
  40 0068 00000000 		.word	0 @EXTI4	10
  41 006c 00000000 		.word	0 @DMA11	11
  42 0070 00000000 		.word	0 @DMA12	12
  43 0074 00000000 		.word	0 @DMA13	13
  44 0078 00000000 		.word	0 @DMA14	14
  45 007c 00000000 		.word	0 @DMA15	15
  46 0080 00000000 		.word	0 @DMA16	16
  47 0084 00000000 		.word	0 @DMA17	17
  48 0088 00000000 		.word	0 @ADC1_2 	18
  49 008c 00000000 		.word	0 @USB_HP_CAN1_TX 19
ARM GAS  1.s 			page 2


  50 0090 00000000 		.word	0 @USB_LP_CAN1_RX0 20
  51 0094 00000000 		.word	0 @CAN1_RX1	21
  52 0098 00000000 		.word	0 @CAN1_SCE	22
  53 009c 00000000 		.word	0 @EXTI9_5	23
  54 00a0 00000000 		.word	0 @TIM1_BRK	24
  55 00a4 00000000 		.word	0 @TIM1_UP	25
  56 00a8 00000000 		.word	0 @TIM1_TRG_COM	26
  57 00ac 00000000 		.word	0 @TIM1_CC	27
  58 00b0 00000000 		.word	0 @tim2dingshiqi +1  @TIM2 28
  59 00b4 00000000 		.word	0 @tim3dingshiqi +1  @TIM3		29
  60 00b8 00000000 		.word	0 @TIM4		30
  61 00bc 00000000 		.word	0 @I2C1_EV	31
  62 00c0 00000000 		.word	0 @I2C1_ER	32
  63 00c4 00000000 		.word	0 @I2C2_EV	33
  64 00c8 00000000 		.word	0 @I2C2_ER	34
  65 00cc 00000000 		.word	0 @SPI1		35
  66 00d0 00000000 		.word	0 @SPI2		36
  67 00d4 00000000 		.word	0 @USART1	37
  68 00d8 00000000 		.word	0 @USART2	38
  69 00dc 00000000 		.word	0 @USART3	39
  70 00e0 00000000 		.word	0 @EXTI15_10	40
  71 00e4 00000000 		.word	0 @RTCAlarm_IRQ	41
  72 00e8 00000000 		.word	0 @USBWakeUp	42
  73 00ec 00000000 		.word	0	
  74 00f0 00000000 		.word	0	
  75 00f4 00000000 		.word	0
  76 00f8 00000000 		.word	0
  77 00fc 00000000 		.word	0
  78 0100 00000000 		.word	0
  79 0104 00000000 		.word	0
  80 0108 00000000 		.word	0 @BootRAM   
  81              	_start:
  82 010c 6748     		ldr r0, = 0x40010004
  83 010e 4FF00071 		ldr r1, = 0x02000000
  84 0112 0160     		str r1, [r0]
  85 0114 4160     		str r1, [r0, # 0x04]
  86              		
  87 0116 6648     		ldr r0, = 0x40021000
  88 0118 4FF00101 		mov r1, # 1
  89 011c 0160     		str r1, [r0]
  90              	_gsszbz: 
  91 011e 0268     		ldr r2, [r0]
  92 0120 1142     		tst r1, r2           @HSI时钟标志位           
  93 0122 00D1     		bne _rccchushihua
  94 0124 FBE7     		b _gsszbz
  95              	_rccchushihua: 
  96 0126 634C     		ldr r4, = 0x40022000
  97 0128 4FF03201 		mov r1, # 0x00000032
  98 012c 2160     		str r1, [r4]           @FLASH缓冲 缓冲开启 
  99 012e 4FF4E011 		ldr r1, = 0x1c0000
 100 0132 4160     		str r1, [r0, # 0x04]
 101 0134 5E48     		ldr r0, = 0x40021000
 102 0136 6049     		ldr r1, = 0x1000001
 103 0138 0160     		str r1, [r0]
 104              	_chaxun:
 105 013a 0268     		ldr r2, [r0]
 106 013c 4FF00071 		ldr r1, = 0x2000000
ARM GAS  1.s 			page 3


 107 0140 1142     		tst r1, r2
 108 0142 00D1     		bne _rccgg               @等待PLL稳定
 109 0144 F9E7     		b _chaxun
 110              	_rccgg:
 111 0146 5D48     		ldr r0, = 0x40021004
 112 0148 5D49     		ldr r1, = 0x1c0002
 113 014a 0160     		str r1, [r0]            @ PLL作为系统时钟
 114              	
 115              	_neicunqingling:                  @ 无聊把内存清0
 116 014c 4FF00050 		ldr r0, = 0x20000000
 117 0150 44F6FF72 		ldr r2, = 0x4fff         @ 区域是0X4FFF大的地方
 118 0154 4FF00001 		mov r1, # 0              @ 写0
 119              	_qingling_xunhuan:                
 120 0158 40F8041B 		str r1, [r0], 4         
 121 015c 013A     		subs r2, # 1
 122 015e FBD1     		bne _qingling_xunhuan     @ 循环清0
 123              	
 124              		
 125              	systick:
 126              		@0xe000e010 SYSTICK控制状态寄存器
 127              		@0=定时器使能
 128              		@1=（1倒数到0发出异常请，0无动作）
 129              		@2=（0外部始终1内核时钟）
 130              		@16= 如果赏赐读取本寄存器后SYSTICK已经数到0则该位为1如果读取该位则清0
 131              		@0xe000e014 重载值寄存器 数到0将要被重载的值
 132              		@0xe000e018 当前值，写清0
 133              		@0e000e01c
 134              		@0-23 10MS的时间内倒计数的格数
 135              		@ 30=(1教准不是准确的10MS)（0教准是准确的10MS）
 136 0160 5848     		ldr r0, = 0xe000e010
 137 0162 4FF00001 		mov r1, # 0               
 138 0166 0160     		str r1, [r0]            @ 关掉SYSTICK
 139 0168 42F22831 		ldr r1, = 9000      @ 重载数
 140 016c 4160     		str r1, [r0, # 4]       @ 写进重载数
 141 016e 8160     		str r1, [r0, # 8]       @ 清0当前数          
 142 0170 554B     		ldr r3, = 0xe000ed23  @systick优先级
 143 0172 4FF0F001 		mov r1, # 240
 144 0176 1960     		str r1, [r3]
 145 0178 4FF00301 		mov r1, # 3
 146 017c 0160     		str r1, [r0] @ 开定时器
 147              		
 148              	_waisheshizhong:
 149              	
 150              		@AHBENR=0x40021014
 151              		@0=DMA1,1=DMA2,2=SRAMEN,4=FLITFEN,6=CRCEN,8=FSMCEN,10=SDIOEN
 152              		
 153              		@APB2_ENR=0X40021018 0(AFIO)1(保留)2(PA)3(PB)4(PC)5(PD)6(PE)78(保留)
 154              		@9(ADC1)10(ADC2)11(TIM1)12(SPI1)13(保留)14（USART1）15(保留)
 155              		@APB1_ENR=0X4002101C
 156              		@0=TIM2,1=TIM3,2=TIM4,3=TIM5,4=TIM6,5=TIM7,11=WWDG
 157              		@14=SP12,15=SP13,17=UART3,19=UART4,20=UART5
 158              		@21=I2C,22=I2C2,23=USB,25=CAN,27=BKPT,28=PWR,29=DACEN
 159              	
 160 017e 5348     		ldr r0, = 0x40021014
 161 0180 4FF00101 		mov r1, # 1
 162 0184 0160     		str r1, [r0]
 163              		
ARM GAS  1.s 			page 4


 164 0186 5248     	        ldr r0, = 0x40021018 @ APB2_ENR
 165 0188 40F63C01 	        ldr r1, = 0x83c
 166 018c 0160     	        str r1, [r0]
 167              		
 168              	_zhongduankongzhi:
 169              		@SETENA0=0XE000E100,SETENA1=0XE000E104 @中断使能
 170              		@CLRENA0=0XE000E180,CLRENA1=0XE000E184 @中断除能
 171              		@SETPEND0=0XE000E200,SETPPEND1=0XE000E204 @中断悬起
 172              		@CLRPEND0=0XE000E280,CLRPEND1=0XE000E284  @中断解悬
 173              		@ACTIVE0=0XE000E300,ACTIVE1=0XE000E304   @ 中断活动状态
 174              		@0XE000E400-0XE000E43C 中断优先级阵列每个占8位
 175              		@0XE000ED00=CPUID，0XE000ED04=中断控制及状态寄存器
 176              		@0xe000ed08=向量表偏移，0xe000ed0c=应用程序中断及复位
 177              		@0xe000ed10=系统控制，0XE000ED14=配置与控制
 178              		@0xe000ed18-0xe000ed23=系统异常优先级阵列
 179 018e 5148     		ldr r0, = 0xe000ed0c
 180 0190 5149     		ldr r1, = 0x5fa0500
 181 0192 0160     		str r1, [r0]
 182 0194 5148     		ldr r0, = 0xe000e400
 183 0196 4FF0C801 		mov r1, # 200
 184 019a C161     		str r1, [r0, # 28] @ tim2优先级
 185 019c 4FF0C801 		mov r1, # 200
 186 01a0 C0F81D10 		str r1, [r0, # 29] @ tim3 优先级
 187              		
 188              		
 189 01a4 4E48     		ldr r0, = 0xe000e100 @ 中断使能
 190              		@0-31号使能，0x300000000 = TIM2和TIM3
 191 01a6 4FF04051 		ldr r1, = 0x30000000
 192 01aa 0160     		str r1, [r0]
 193              		
 194              	_tim1chushihua:
 195              		@tim1=0x40012c00
 196              		@+0=CR1 控制寄存器
 197              		@+4=CR2 控制寄存器2
 198              		@+8=SMCR 从模式控制寄存器
 199              		@+c=DIER 中断使能寄存器
 200              		@+10=SR 状态寄存器
 201              		@+14=EGR 事件产生寄存器
 202              		@+18=CCMR1 捕获/比较模式寄存器1
 203              		@+1C=CCMR2 捕获/比较模式寄存器2
 204              		@+20=CCER 捕获/比较使能寄存器
 205              		@+24=CNT 计数器
 206              		@+28=PSC 预分频器
 207              		@+2C=ARR 重载寄存器
 208              		@+30=RCR 重复计数寄存器
 209              		@+34=CCR1 捕获/比较寄存器1
 210              		@+38=CCR2 捕获/比较寄存器2
 211              		@+3C=CCR3 捕获/比较寄存器3
 212              		@+40=CCR4 捕获/比较寄存器4
 213              		@+44=BDTR 刹车/死区寄存器
 214              		@+48=DCR DMA控制器
 215              		@+4C=DMAR 连续模式的DMA地址
 216              		@TIM2=0x40000000
 217              		@18=CCMR1,18=OCMR1,1C=CCMR2,1C=OCMR2
 218              		@CNT与CCR比较占空，ARR与PSC决定频率。主频除以PSC=计数频率
 219              	
 220 01ac 4D48     		ldr r0, = 0x40012c00 @ tim1
ARM GAS  1.s 			page 5


 221 01ae 0021     		ldr r1, = 0
 222 01b0 8162     		str r1, [r0, # 0x28] @ 分频
 223 01b2 4FF4E151 		ldr r1, = 7200
 224 01b6 C162     		str r1, [r0, # 0x2c] @ 重载
 225 01b8 46F66801 		ldr r1, =  0x6868
 226 01bc 8161     		str r1, [r0, # 0x18] @ 捕获/比较模式
 227 01be 4FF06801 		mov r1, # 0x68
 228 01c2 C161     		str r1, [r0, # 0x1c]
 229 01c4 40F25551 		ldr r1, =  0x555
 230 01c8 0162     		str r1, [r0, # 0x20]
 231 01ca 48F27701 		ldr r1, = 0x8077
 232 01ce 4164     		str r1, [r0, # 0x44]
 233 01d0 0021     		ldr r1, = 0
 234 01d2 C160     		str r1, [r0, # 0x0c]
 235 01d4 4FF0E101 		mov r1, # 0xe1
 236 01d8 0160     		str r1, [r0]
 237              		
 238              	_ioshezhi:
 239              		
 240              		@PA=0x40010800 PB=0x40010c00 PC=0x40011000 
 241              		@PD=0x40011400 PE=0x40011800 PF=0x40011c00 
 242              		@ IO 1(通用推挽10M)2(通用推挽2M)3(通用推挽50M)
 243              		@4(浮空输入)5(通用开漏输出10M)6(通用开漏输出2M)
 244              		@7(通用开漏输出50M)8(上拉下拉输入)9(复用功能推挽输出10M)
 245              		@A(复用功能推挽输出2M)B(复用功能推挽输出50M)C(保留)
 246              		@D(复用功能开溜输出10M)E(复用功能开漏输出2M)F(复用功能开漏输出50M)
 247              		@ 偏移0X8=IDR 输入数据寄存器
 248              		@偏移0XC=ODR 输出数据寄存器
 249              		@偏移0X10=BSRR IO开
 250              		@偏移0X14=BRR  IO关
 251 01da 4348     		ldr r0, = 0x40010800
 252 01dc 4349     		ldr r1, = 0x44444bbb
 253 01de 4160     		str r1, [r0, # 0x04]
 254 01e0 4348     		ldr r0, = 0x40010c00
 255 01e2 4449     		ldr r1, = 0xbbb44444
 256 01e4 4160     		str r1, [r0, # 0x04]
 257              	_dmachushihua:
 258              		DMA1= 0x40020000
 259              		@+0=LSR,+4=IFCR,
 260              		@+8=CCR1,+c=CNDTR1,+10=CPAR1+14=CMAR1,
 261              		@+1c=CCR2,+20=CNDTR2,+24=CPAR2,+28=CMAR2
 262              		@+30=CCR3,+34=CNDTR3,+38=CPAR2,+3c=CMAR3
 263              		@+44=CCR4,+48=CNDTR4,+4c=CPAR4,+50=CMAR4
 264              		@+58=CCR5,+5c=CNDTR5,+60=CPAR5,+64=CMAR5
 265              		@+6C=CCR6,+70=CNDTR6,+74=CPAR6,+78=CMAR6
 266              		@+80=CCR7,+84=CNDTR7,+88=CPAR7,+8c=CMAR7
 267 01e6 4448     		ldr r0, = 0x40020000
 268 01e8 4449     		ldr r1, = 0x40012c34 @ tim1_ch1
 269 01ea 4162     		str r1, [r0, # 0x24]
 270 01ec 4449     		ldr r1, = zhengxianbiao
 271 01ee 8162     		str r1, [r0, # 0x28]
 272 01f0 5A21     		ldr r1, = 90
 273 01f2 0162     		str r1, [r0, # 0x20]
 274 01f4 42F2B151 		ldr r1, = 0x25b1
 275 01f8 C161     		str r1, [r0, # 0x1c]
 276              		
 277 01fa 4249     		ldr r1, = 0x40012c38 @ tim1_ch2
ARM GAS  1.s 			page 6


 278 01fc 8163     		str r1, [r0, # 0x38]
 279 01fe 4049     		ldr r1, = zhengxianbiao
 280 0200 C163     		str r1, [r0, # 0x3c]
 281 0202 5A21     		ldr r1, = 90
 282 0204 4163     		str r1, [r0, # 0x34]
 283 0206 42F2B151 		ldr r1, = 0x25b1
 284 020a 0163     		str r1, [r0, # 0x30]
 285              	
 286 020c 3E49     		ldr r1, = 0x40012c3c @ tim1_ch3
 287 020e 4167     		str r1, [r0, # 0x74]
 288 0210 3B49     		ldr r1, = zhengxianbiao
 289 0212 8167     		str r1, [r0, # 0x78]
 290 0214 5A21     		ldr r1, = 90
 291 0216 0167     		str r1, [r0, # 0x70]
 292 0218 42F2B151 		ldr r1, = 0x25b1
 293 021c C166     		str r1, [r0, # 0x6c]
 294              		
 295              		
 296 021e 3148     		ldr r0, = 0x40012c00
 297 0220 4FF40071 		ldr r1, = 0x200
 298 0224 C160     		str r1, [r0, # 0x0c]
 299              	
 300 0226 3C25     		ldr r5, = 60
 301              		
 302              	_chaxunch1:
 303 0228 334E     		ldr r6, = 0x40020000
 304 022a 376A     		ldr r7, [r6, # 0x20]
 305 022c AF42     		cmp r7, r5
 306 022e FBD8     		bhi _chaxunch1
 307              		
 308 0230 4FF4C061 		ldr r1, = 0x600
 309 0234 C160     		str r1, [r0, # 0x0c]
 310              	
 311 0236 1E24     		ldr r4, = 30
 312              		
 313              	_chaxunch2:
 314 0238 2F4E     		ldr r6, = 0x40020000
 315 023a 376A     		ldr r7, [r6, # 0x20]
 316 023c A742     		cmp r7, r4
 317 023e FBD8     		bhi _chaxunch2
 318              		
 319 0240 4FF46061 		ldr r1, = 0xe00
 320 0244 C160     		str r1, [r0, # 0x0c]
 321              		
 322              	_tingle:
 323 0246 FEE7     		b _tingle
 324              	
 325              		
 326              	_cordic: @ 入 R0， 出R12
 327              		@16384 ×3.1415927/2 = 25734
 328              		@r0=x,r2=y,r0=z,r4=d,r5=k,r6=cordic_mabiao
 329 0248 FFB5     		push {r0-r7,lr}
 330 024a 4FF00005 		mov r5, # 0
 331 024e 2A46     		mov r2, r5
 332 0250 2C46     		mov r4, r5
 333 0252 42F2DD61 		ldr r1, = 0x26dd
 334              	_cordicxunhuan:
ARM GAS  1.s 			page 7


 335 0256 4FEAE034 		asr r4, r0, # 15
 336              		@ x
 337 025a 1746     		mov r7, r2
 338 025c 42FA05F2 		asr r2, r5
 339 0260 82EA0402 		eor r2, r4
 340 0264 A2EB0402 		sub r2, r4
 341 0268 A1EB0203 		sub r3, r1, r2
 342              		@ y
 343 026c 0E46     		mov r6, r1
 344 026e 41FA05F1 		asr r1, r5
 345 0272 81EA0401 		eor r1, r4
 346 0276 A1EB0401 		sub r1, r4
 347 027a 0F44     		add r7, r1
 348              		@ z
 349 027c 234E     		ldr r6, = cordicbiao
 350 027e 4FEA8502 		lsl r2, r5, # 2
 351 0282 B158     		ldr r1, [r6, r2]
 352 0284 81EA0401 		eor r1, r4
 353 0288 A1EB0401 		sub r1, r4
 354 028c A0EB0100 		sub r0, r1
 355 0290 BC46     		mov r12, r7 @ 正弦
 356 0292 1946     		mov r1, r3
 357 0294 3A46     		mov r2, r7
 358 0296 05F10105 		add r5, # 1
 359 029a 102D     		cmp r5, # 16
 360 029c DBD1     		bne _cordicxunhuan
 361 029e FFBD     		pop {r0-r7,pc}
 362              		
 363              		
 364              		
 365              	_nmi_handler:
 366 02a0 7047     		bx lr
 367              	_hard_fault:
 368 02a2 7047     		bx lr
 369              	_memory_fault:
 370 02a4 7047     		bx lr
 371              	_bus_fault:
 372 02a6 7047     		bx lr
 373              	_usage_fault:
 374 02a8 7047     	 	bx lr
 375              	systickdingshiqi:	              @ SYSTICK定时期中断服务函数
 376 02aa 70470400 		bx lr
 376      01400010 
 376      02400020 
 376      02400100 
 376      00010410 
ARM GAS  1.s 			page 8


DEFINED SYMBOLS
                 1.s:4      *ABS*:20005000 STACKINIT
                 1.s:5      *ABS*:20000000 systickms
                 1.s:6      .data:00000000 cordicbiao
                 1.s:9      .data:00000040 zhengxianbiao
                 1.s:13     .text:00000000 _xiangliangbiao
                 1.s:81     .text:0000010c _start
                 1.s:365    .text:000002a0 _nmi_handler
                 1.s:367    .text:000002a2 _hard_fault
                 1.s:369    .text:000002a4 _memory_fault
                 1.s:371    .text:000002a6 _bus_fault
                 1.s:373    .text:000002a8 _usage_fault
                 1.s:375    .text:000002aa systickdingshiqi
                            .text:00000000 $d
                 1.s:82     .text:0000010c $t
                 1.s:90     .text:0000011e _gsszbz
                 1.s:95     .text:00000126 _rccchushihua
                 1.s:104    .text:0000013a _chaxun
                 1.s:110    .text:00000146 _rccgg
                 1.s:115    .text:0000014c _neicunqingling
                 1.s:119    .text:00000158 _qingling_xunhuan
                 1.s:125    .text:00000160 systick
                 1.s:148    .text:0000017e _waisheshizhong
                 1.s:168    .text:0000018e _zhongduankongzhi
                 1.s:194    .text:000001ac _tim1chushihua
                 1.s:238    .text:000001da _ioshezhi
                 1.s:257    .text:000001e6 _dmachushihua
                 1.s:258    *ABS*:40020000 DMA1
                 1.s:302    .text:00000228 _chaxunch1
                 1.s:313    .text:00000238 _chaxunch2
                 1.s:322    .text:00000246 _tingle
                 1.s:326    .text:00000248 _cordic
                 1.s:334    .text:00000256 _cordicxunhuan
                 1.s:376    .text:000002ac $d

NO UNDEFINED SYMBOLS
