ARM GAS  1.s 			page 1


   1              		@@ 单片机stm32f030f4p6
   2              		@lcr_2
   3              		@作者：yjmwxwx
   4              		@时间：2022-01-01
   5              		@编译器：ARM-NONE-EABI
   6              		.thumb
   7              		.syntax unified
   8              		.section .data
   9              	kailu:
  10 0000 6B616920 		.ascii "kai lu jiao zhun"
  10      6C75206A 
  10      69616F20 
  10      7A68756E 
  11              	duanlu:
  12 0010 6475616E 		.ascii "duan lu jiaozhun"
  12      206C7520 
  12      6A69616F 
  12      7A68756E 
  13              	H:
  14 0020 2048     		.ascii " H"
  15              	mH:
  16 0022 6D48     		.ascii "mH"
  17              	uH:
  18 0024 7548     		.ascii "uH"
  19              	nH:
  20 0026 6E48     		.ascii "nH"
  21 0028 00000000 		.align 4
  21      00000000 
  22              	diangan_danwei:
  23 0030 40000000 		.word diangan_danwei100hz
  24 0034 A0000000 		.word diangan_danwei1khz
  25 0038 00010000 		.word diangan_danwei10khz
  26 003c 60010000 		.word diangan_danwei100khz
  27              	diangan_danwei100hz:
  28 0040 24000000 		.word uH,uH,uH,uH,uH,uH,uH,mH
  28      24000000 
  28      24000000 
  28      24000000 
  28      24000000 
  29 0060 22000000 		.word mH,mH,mH,mH,mH,mH,mH,H
  29      22000000 
  29      22000000 
  29      22000000 
  29      22000000 
  30 0080 20000000 		.word H,H,H,H,H,H,H,H
  30      20000000 
  30      20000000 
  30      20000000 
  30      20000000 
  31              	diangan_danwei1khz:
  32 00a0 26000000 		.word nH,uH,uH,uH,uH,uH,uH,uH
  32      24000000 
  32      24000000 
  32      24000000 
  32      24000000 
  33 00c0 24000000 		.word uH,mH,mH,mH,mH,mH,mH,mH
  33      22000000 
ARM GAS  1.s 			page 2


  33      22000000 
  33      22000000 
  33      22000000 
  34 00e0 22000000 		.word mH,mH,H,H,H,H,H,H
  34      22000000 
  34      20000000 
  34      20000000 
  34      20000000 
  35              	diangan_danwei10khz:
  36 0100 26000000 		.word nH,uH,uH,uH,uH,uH,uH,uH
  36      24000000 
  36      24000000 
  36      24000000 
  36      24000000 
  37 0120 24000000 		.word uH,uH,uH,uH,mH,mH,mH,mH
  37      24000000 
  37      24000000 
  37      24000000 
  37      22000000 
  38 0140 22000000 		.word mH,mH,mH,mH,mH,H,H,H
  38      22000000 
  38      22000000 
  38      22000000 
  38      22000000 
  39              	diangan_danwei100khz:
  40 0160 26000000 		.word nH,nH,nH,uH,uH,uH,uH,uH
  40      26000000 
  40      26000000 
  40      24000000 
  40      24000000 
  41 0180 24000000 		.word uH,uH,uH,uH,uH,uH,uH,mH
  41      24000000 
  41      24000000 
  41      24000000 
  41      24000000 
  42 01a0 22000000 		.word mH,mH,mH,mH,mH,mH,mH,mH
  42      22000000 
  42      22000000 
  42      22000000 
  42      22000000 
  43              	diangan_xiaoshudian:
  44 01c0 D0010000 		.word diangan_100hz
  45 01c4 E8010000 		.word diangan_1khz
  46 01c8 00020000 		.word diangan_10khz
  47 01cc 18020000 		.word diangan_100khz
  48              	diangan_100hz:
  49 01d0 03040404 		.byte 3,4,4,4,0xff,0xff,0xff,3
  49      FFFFFF03 
  50 01d8 03030404 		.byte 3,3,4,4,4,0xff,0xff,2
  50      04FFFF02 
  51 01e0 03030304 		.byte 3,3,3,4,4,4,0xff,0xff
  51      0404FFFF 
  52              	diangan_1khz:
  53 01e8 FF030303 		.byte 0xff,3,3,3,4,4,4,0xff
  53      040404FF 
  54 01f0 FF020303 		.byte 0xff,2,3,3,3,4,4,0xff
  54      030404FF 
ARM GAS  1.s 			page 3


  55 01f8 FFFF0203 		.byte 0xff,0xff,2,3,3,3,4,0xff
  55      030304FF 
  56              	diangan_10khz:
  57 0200 04020202 		.byte 4,2,2,2,3,3,3,4
  57      03030304 
  58 0208 04FFFFFF 		.byte 4,0xff,0xff,0xff,2,3,3,4
  58      02030304 
  59 0210 0404FFFF 		.byte 4,4,0xff,0xff,0xff,2,3,4
  59      FF020304 
  60              	diangan_100khz:
  61 0218 03040401 		.byte 3,4,4,1,2,2,2,3
  61      02020203 
  62 0220 03040404 		.byte 3,4,4,4,0xff,0xff,0xff,3
  62      FFFFFF03 
  63 0228 03030404 		.byte 3,3,4,4,4,0xff,0xff,0xff
  63      04FFFFFF 
  64              		
  65              		
  66              	MF:
  67 0230 6D46     		.ascii "mF"
  68              	UF:
  69 0232 7546     		.ascii "uF"
  70              	NF:
  71 0234 6E46     		.ascii "nF"
  72              	PF:
  73 0236 7046     		.ascii "pF"
  74 0238 00000000 		.align 4
  74      00000000 
  75              	dianrong_danwei:
  76 0240 50020000 		.word dianrong_danwei100hz
  77 0244 B0020000 		.word dianrong_danwei1khz
  78 0248 10030000 		.word dianrong_danwei10khz
  79 024c 70030000 		.word dianrong_danwei100khz
  80              	dianrong_danwei100hz:
  81 0250 30020000 		.word MF,UF,UF,UF,UF,UF,UF,UF
  81      32020000 
  81      32020000 
  81      32020000 
  81      32020000 
  82 0270 32020000 		.word UF,UF,UF,UF,NF,NF,NF,NF
  82      32020000 
  82      32020000 
  82      32020000 
  82      34020000 
  83 0290 34020000 		.word NF,NF,NF,PF,PF,PF,PF,PF
  83      34020000 
  83      34020000 
  83      36020000 
  83      36020000 
  84              	dianrong_danwei1khz:
  85 02b0 30020000 		.word MF,UF,UF,UF,UF,UF,UF,NF
  85      32020000 
  85      32020000 
  85      32020000 
  85      32020000 
  86 02d0 34020000 		.word NF,NF,NF,NF,NF,NF,NF,NF
  86      34020000 
ARM GAS  1.s 			page 4


  86      34020000 
  86      34020000 
  86      34020000 
  87 02f0 34020000 		.word NF,NF,PF,PF,PF,PF,PF,PF
  87      34020000 
  87      36020000 
  87      36020000 
  87      36020000 
  88              	dianrong_danwei10khz:
  89 0310 32020000 		.word UF,UF,UF,UF,UF,UF,UF,NF
  89      32020000 
  89      32020000 
  89      32020000 
  89      32020000 
  90 0330 34020000 		.word NF,NF,NF,NF,NF,NF,NF,NF
  90      34020000 
  90      34020000 
  90      34020000 
  90      34020000 
  91 0350 36020000 		.word PF,PF,PF,PF,PF,PF,PF,PF
  91      36020000 
  91      36020000 
  91      36020000 
  91      36020000 
  92              	dianrong_danwei100khz:
  93 0370 32020000 		.word UF,UF,UF,UF,NF,NF,NF,NF
  93      32020000 
  93      32020000 
  93      32020000 
  93      34020000 
  94 0390 34020000 		.word NF,NF,NF,NF,NF,PF,PF,PF
  94      34020000 
  94      34020000 
  94      34020000 
  94      34020000 
  95 03b0 36020000 		.word PF,PF,PF,PF,PF,PF,PF,PF
  95      36020000 
  95      36020000 
  95      36020000 
  95      36020000 
  96              	dianrong_xiaoshudian:
  97 03d0 E0030000 		.word dianrong_xiaoshudian100hz
  98 03d4 F8030000 		.word dianrong_xiaoshudian1khz
  99 03d8 10040000 		.word dianrong_xiaoshudian10khz
 100 03dc 28040000 		.word dianrong_xiaoshudian100khz
 101              	dianrong_xiaoshudian100hz:
 102 03e0 04040404 		.byte 4,4,4,4,4,4,3,2
 102      04040302 
 103 03e8 02020303 		.byte 2,2,3,3,3,3,3,3
 103      03030303 
 104 03f0 03030304 		.byte 3,3,3,4,4,4,4,3
 104      04040403 
 105              	dianrong_xiaoshudian1khz:
 106 03f8 03040302 		.byte 3,4,3,2,2,2,2,4
 106      02020204 
 107 0400 03020202 		.byte 3,2,2,2,2,2,2,1
 107      02020201 
ARM GAS  1.s 			page 5


 108 0408 01010403 		.byte 1,1,4,3,3,3,3,3
 108      03030303 
 109              	dianrong_xiaoshudian10khz:
 110 0410 FF030303 		.byte 0xff,3,3,3,2,2,1,3
 110      02020103 
 111 0418 03030202 		.byte 3,3,2,2,2,1,1,1
 111      02010101 
 112 0420 03030303 		.byte 3,3,3,3,2,2,2,2
 112      02020202 
 113              	dianrong_xiaoshudian100khz:
 114 0428 04010101 		.byte 4,1,1,1,3,3,3,2
 114      03030302 
 115 0430 02020101 		.byte 2,2,1,1,1,3,3,3
 115      01030303 
 116 0438 02020202 		.byte 2,2,2,2,2,1,1,1
 116      02010101 
 117              	dianrong_weishu:
 118 0440 50040000 		.word dianrong_weishu100hz
 119 0444 80040000 		.word dianrong_weishu1khz
 120 0448 B0040000 		.word dianrong_weishu10khz
 121 044c E0040000 		.word dianrong_weishu100khz
 122              	dianrong_weishu100hz:	
 123 0450 E8030A00 		.short 1000,10,10,10,100,100,10,10
 123      0A000A00 
 123      64006400 
 123      0A000A00 
 124 0460 0A006400 		.short 10,100,1000,1000,1000,10,10,100
 124      E803E803 
 124      E8030A00 
 124      0A006400 
 125 0470 0A000A00 		.short 10,10,100,10,10,100,100,100
 125      64000A00 
 125      0A006400 
 125      64006400 
 126              	dianrong_weishu1khz:
 127 0480 E8036400 		.short 1000,100,10,1,1,1,1,10
 127      0A000100 
 127      01000100 
 127      01000A00 
 128 0490 01000100 		.short 1,1,1,1,10,10,10,10
 128      01000100 
 128      0A000A00 
 128      0A000A00 
 129 04a0 0A000A00 		.short 10,10,100,10,10,100,100,1000
 129      64000A00 
 129      0A006400 
 129      6400E803 
 130              	dianrong_weishu10khz:
 131 04b0 E8036400 		.short 1000,100,100,100,100,100,10,10
 131      64006400 
 131      64006400 
 131      0A000A00 
 132 04c0 0A006400 		.short 10,100,10,10,100,10,10,100
 132      0A000A00 
 132      64000A00 
 132      0A006400 
 133 04d0 0A000A00 		.short 10,10,100,100,10,100,100,1000
ARM GAS  1.s 			page 6


 133      64006400 
 133      0A006400 
 133      6400E803 
 134              	dianrong_weishu100khz:
 135 04e0 E8030A00 		.short 1000,10,10,10,10,10,10,10
 135      0A000A00 
 135      0A000A00 
 135      0A000A00 
 136 04f0 0A006400 		.short 10,100,10,10,100,10,10,100
 136      0A000A00 
 136      64000A00 
 136      0A006400 
 137 0500 0A000A00 		.short 10,10,100,100,100,100,100,1000
 137      64006400 
 137      64006400 
 137      6400E803 
 138              		
 139              	jiaozhun_0.5555:
 140 0510 20353535 		.ascii " 555 "
 140      20
 141              	jiaozhun_1.666:
 142 0515 20313636 		.ascii " 1663"
 142      33
 143              	jiaozhun_3.333:
 144 051a 20333333 		.ascii " 3333"
 144      33
 145              	jiaozhun_5.555:
 146 051f 20353535 		.ascii " 5555"
 146      35
 147              	jiaozhun_10:
 148 0524 20313020 		.ascii " 10  "
 148      20
 149              	jiaozhun_16.66:
 150 0529 31362E36 		.ascii "16.66"
 150      36
 151              	jiaozhun_33.33:
 152 052e 33332E33 		.ascii "33.33"
 152      33
 153              	jiaozhun_100:
 154 0533 20313030 		.ascii " 100 "
 154      20
 155              	jiaozhun_300:
 156 0538 20333030 		.ascii " 300 "
 156      20
 157              	jiaozhun_600:
 158 053d 20363030 		.ascii " 600 "
 158      20
 159              	jiaozhun_1k:	
 160 0542 20313030 		.ascii " 1000"
 160      30
 161              	jiaozhun_3k:
 162 0547 20333030 		.ascii " 3000"
 162      30
 163              	jiaozhun_6k:
 164 054c 20363030 		.ascii " 6000"
 164      30
 165              	jiaozhun_10k:
ARM GAS  1.s 			page 7


 166 0551 20203130 		.ascii "  10 "
 166      20
 167              	jiaozhun_30k:
 168 0556 20203330 		.ascii "  30 "
 168      20
 169              	jiaozhun_60k:
 170 055b 20203630 		.ascii "  60 "
 170      20
 171              	jiaozhun_100k:
 172 0560 20313030 		.ascii " 100 "
 172      20
 173              	jiaozhun_300k:
 174 0565 20333030 		.ascii " 300 "
 174      20
 175              	jiaozhun_600k:
 176 056a 20363030 		.ascii " 600 "
 176      20
 177              	jiaozhun_1M:
 178 056f 20203120 		.ascii "  1  "
 178      20
 179              	jiaozhun_1.8M:
 180 0574 20312E38 		.ascii " 1.8 "
 180      20
 181              	jiaozhun_3M:
 182 0579 20203320 		.ascii "  3  "
 182      20
 183              	jiaozhun_6M:
 184 057e 20203620 		.ascii "  6  "
 184      20
 185              	jiaozhun_18M:
 186 0583 20203138 		.ascii "  18 "
 186      20
 187              	jiaozhun:	
 188 0588 6A69616F 		.ascii "jiaozhun"
 188      7A68756E 
 189              	jiaozhun_wancheng:
 190 0590 6A69616F 		.ascii "jiao zhun wan le"
 190      207A6875 
 190      6E207761 
 190      6E206C65 
 191              	guan_ji:
 192 05a0 2071696E 		.ascii " qing guan ji   "
 192      67206775 
 192      616E206A 
 192      69202020 
 193              	pinlv_100hz:
 194 05b0 20207069 		.ascii "  pin lv 100HZ  "
 194      6E206C76 
 194      20313030 
 194      485A2020 
 195              	pinlv_1khz:
 196 05c0 20207069 		.ascii "  pin lv 1KHZ   "
 196      6E206C76 
 196      20314B48 
 196      5A202020 
 197              	pinlv_10khz:
 198 05d0 20207069 		.ascii "  pin lv 10KHZ  "
ARM GAS  1.s 			page 8


 198      6E206C76 
 198      2031304B 
 198      485A2020 
 199              	pinlv_100khz:
 200 05e0 20207069 		.ascii "  pin lv 100KHZ "
 200      6E206C76 
 200      20313030 
 200      4B485A20 
 201              		.align 4
 202              	atan_biao:	@角度
 203 05f0 00801600 		.int 0x00168000,0x000D4853,0x000704A3,0x00039000,0x0001C9C5,0x0000E51B,0x00007295,0x0000394B,0x000
 203      53480D00 
 203      A3040700 
 203      00900300 
 203      C5C90100 
 204 0644 00000000 		.align 4
 204      00000000 
 204      00000000 
 205              	jiaodu_jiaozhun_yong_cordic:
 206 0650 0080FFFF 		.int -32768,0,0,32768,23170,23170,30274,12540,32138,6393,32610,3212,32729,1608,32758,804,32766,402
 206      00000000 
 206      00000000 
 206      00800000 
 206      825A0000 
 207              	jiaozhun_yong_cordic:
 208 0740 00800000 		.int 32768,16384,8192,4096,2048,1024,512,256,128,64,32,16,8,4,2,1,1,1,1,1,1,1,1,1,1,1,1,1,1,1
 208      00400000 
 208      00200000 
 208      00100000 
 208      00080000 
 209              	cordic_yong_cos_sin:
 210 07b8 00000000 		.int 0x0000,0x4000,0x2D41,0x2D41,0x3B20,0x187D,0x3EC5,0x0C7C,0x3FB1,0x0645,0x3FEC,0x0323,0x3FFB,0x
 210      00400000 
 210      412D0000 
 210      412D0000 
 210      203B0000 
 211              	cordic_yong_atan_biao:	@弧度
 212 0838 87640000 		.int 0x00006487,0x00003B58,0x00001F5B,0x00000FEA,0x000007FD,0x000003FF,0x000001FF,0x000000FF,0x000
 212      583B0000 
 212      5B1F0000 
 212      EA0F0000 
 212      FD070000 
 213 0878 00000000 		.align 4
 213      00000000 
 214              	zheng_xian_100khz:
 215 0880 0A0D1012 		.byte 10,13,16,18,20,20,20,18,16,13,10,7,4,2,0,0,0,2,4,7
 215      14141412 
 215      100D0A07 
 215      04020000 
 215      00020407 
 216 0894 00000000 		.align 4
 216      00000000 
 216      00000000 
 217              	zheng_xian_10khz:
 218 08a0 38003E00 		.short 56,62,69,76,82,88,93,98,102,106,108,110,111,111,110,108,106,102,98,93,88,82,76,69,62,56,49,
 218      45004C00 
 218      52005800 
ARM GAS  1.s 			page 9


 218      5D006200 
 218      66006A00 
 219 0904 00000000 		.align 4
 219      00000000 
 219      00000000 
 220              	zheng_xian_1khz:
 221 0910 8C009000 		.short 140,144,148,153,157,161,166,170,174,178,183,187,191,195,199,203,207,211,214,218,221,225,228
 221      94009900 
 221      9D00A100 
 221      A600AA00 
 221      AE00B200 
 222              		
 223              		.align 4
 224              	zheng_xian_100hz:	
 225 0aa0 18011901 		.short 280,281,283,285,287,288,290,292,294,295,297,299,301,302,304,306,308,309,311,313,315,316,318
 225      1B011D01 
 225      1F012001 
 225      22012401 
 225      26012701 
 226              		
 227              		
 228              	
 229              		.align 4
 230              	cos_sin_biao_100k:
 231 1270 00800000 		.int 0x00008000,0x00000000,0x0000678D,0xFFFFB4C4,0x0000278D,0xFFFF8644,0xFFFFD873,0xFFFF8644,0xFFF
 231      00000000 
 231      8D670000 
 231      C4B4FFFF 
 231      8D270000 
 232              		
 233              	cos_sin_biao_10k:
 234              	cos_sin_biao_1k:
 235 1314 00800000 		.int 0x8000,0x0000,0x79BC,0xFFFFD873,0x678D,0xFFFFB4C4,0x4B3C,0xFFFF9873,0x278D,0xFFFF8644,0x0000,
 235      00000000 
 235      BC790000 
 235      73D8FFFF 
 235      8D670000 
 236              	cos_sin_biao_100:
 237 13b8 00800000 		.int 0x8000,0x0000,0x7EFD,0xFFFFEFF6,0x7BFA,0xFFFFE02B,0x7702,0xFFFFD0E2,0x702A,0xFFFFC256,0x678D,
 237      00000000 
 237      FD7E0000 
 237      F6EFFFFF 
 237      FA7B0000 
 238              	shangbi_liangcheng:
 239 154c 0E000C00 		.short 0x0e,0x0c,0x0a,0x06,0x08,0x04,0x02,0x00
 239      0A000600 
 239      08000400 
 239      02000000 
 240 155c 00000000 		.short 0x00,0x00,0x200,0x200,0x200,0x40,0x40,0x40
 240      00020002 
 240      00024000 
 240      40004000 
 241 156c 40024002 		.short 0x240,0x240,0x240,0x240,0x240,0x240,0x240,0x240
 241      40024002 
 241      40024002 
 241      40024002 
 242              	xiabi_liangcheng:
ARM GAS  1.s 			page 10


 243 157c 00000000 		.short 0x00,0x00,0x00,0x00,0x00,0x00,0x00,0x00
 243      00000000 
 243      00000000 
 243      00000000 
 244 158c 02000400 		.short 0x02,0x04,0x200,0x202,0x204,0x40,0x42,0x44
 244      00020202 
 244      04024000 
 244      42004400 
 245 159c 40024202 		.short 0x240,0x242,0x244,0x248,0x246,0x24a,0x24c,0x24e
 245      44024802 
 245      46024A02 
 245      4C024E02 
 246 15ac 00000000 		.align 4
 247              	zukang_xiaoshu_dian:			@jdjd
 248 15b0 03040404 		.byte 3,4,4,4,2,2,2,3
 248      02020203 
 249 15b8 03040404 		.byte 3,4,4,4,4,2,2,3
 249      04020203 
 250 15c0 03030401 		.byte 3,3,4,1,1,2,2,3
 250      01020203 
 251 15c8 00000000 		.align 4
 251      00000000 
 252              	qiwang_fudu:	@期望幅度
 253 15d0 50C30000 		.int 50000,10000,10000,10000,10000,10000,33333,10000
 253      10270000 
 253      10270000 
 253      10270000 
 253      10270000 
 254 15f0 10270000 		.int 10000,5000,10000,10000,5000,10000,10000,5000
 254      88130000 
 254      10270000 
 254      10270000 
 254      88130000 
 255 1610 10270000 		.int 10000,10000,5000,10000,10000,1000,1000,1000
 255      10270000 
 255      88130000 
 255      10270000 
 255      10270000 
 256              	qiwang_jiaodu_100hz:
 257 1630 00000000 		.int 0,0,0,0,0,0,0,0
 257      00000000 
 257      00000000 
 257      00000000 
 257      00000000 
 258 1650 00000000 		.int 0,0,0,0,0,0,0,0
 258      00000000 
 258      00000000 
 258      00000000 
 258      00000000 
 259 1670 00000000 		.int 0,0,0,0,0,0,0,0
 259      00000000 
 259      00000000 
 259      00000000 
 259      00000000 
 260              	qiwang_jiaodu_1khz:
 261 1690 00000000 		.int 0,0,0,0,0,0,0,0
 261      00000000 
ARM GAS  1.s 			page 11


 261      00000000 
 261      00000000 
 261      00000000 
 262 16b0 00000000 		.int 0,0,0,0,0,0,0,0
 262      00000000 
 262      00000000 
 262      00000000 
 262      00000000 
 263 16d0 00000000 		.int 0,0,0,0,0,0,0,0
 263      00000000 
 263      00000000 
 263      00000000 
 263      00000000 
 264              	qiwang_jiaodu_10khz:
 265 16f0 00000000 		.int 0,0,0,0,0,0,0,0
 265      00000000 
 265      00000000 
 265      00000000 
 265      00000000 
 266 1710 00000000 		.int 0,0,0,0,0,0,0,0
 266      00000000 
 266      00000000 
 266      00000000 
 266      00000000 
 267 1730 00000000 		.int 0,0,0,0,0,0,0,0
 267      00000000 
 267      00000000 
 267      00000000 
 267      00000000 
 268              	qiwang_jiaodu_100khz:
 269 1750 00000000 		.int 0,0,0,0,0,0,0,0
 269      00000000 
 269      00000000 
 269      00000000 
 269      00000000 
 270 1770 00000000 		.int 0,0,0,0,0,0,0,0
 270      00000000 
 270      00000000 
 270      00000000 
 270      00000000 
 271 1790 00000000 		.int 0,0,0,0,0,0,0,0
 271      00000000 
 271      00000000 
 271      00000000 
 271      00000000 
 272              	qiwang_jiaodu_biao:
 273 17b0 30160000 		.word qiwang_jiaodu_100hz
 274 17b4 90160000 		.word qiwang_jiaodu_1khz
 275 17b8 F0160000 		.word qiwang_jiaodu_10khz
 276 17bc 50170000 		.word qiwang_jiaodu_100khz
 277              	zukang_dianzu_biao:
 278 17c0 03D90000 		.int 55555,16666,33333,55555,10000,16666,33333,10000
 278      1A410000 
 278      35820000 
 278      03D90000 
 278      10270000 
 279 17e0 30750000 		.int 30000,6000,10000,30000,6000,10000,30000,6000
ARM GAS  1.s 			page 12


 279      70170000 
 279      10270000 
 279      30750000 
 279      70170000 
 280 1800 10270000 		.int 10000,30000,6000,10000,18000,3000,6000,1800
 280      30750000 
 280      70170000 
 280      10270000 
 280      50460000 
 281              	zukang_danwei:
 282              		@毫欧=0XF46D，欧=0XF420, 千欧=0XF44B，兆欧=0XF44D
 283 1820 6DF40000 		.int 0xf46d,0xf46d,0xf46d,0xf46d,0xf420,0xf420,0xf420,0xf420
 283      6DF40000 
 283      6DF40000 
 283      6DF40000 
 283      20F40000 
 284 1840 20F40000 		.int 0xf420,0xf420,0xf420,0xf420,0xf420,0xf44b,0xf44b,0xf44b
 284      20F40000 
 284      20F40000 
 284      20F40000 
 284      20F40000 
 285 1860 4BF40000 		.int 0xf44b,0xf44b,0xf44b,0xf44d,0xf44d,0xf44d,0xf44d,0xf44d
 285      4BF40000 
 285      4BF40000 
 285      4DF40000 
 285      4DF40000 
 286              	pinlv_qiehuan_yanshi_biao:
 287 1880 2C010000 		.int 300,300,300,40
 287      2C010000 
 287      2C010000 
 287      28000000 
 288              		.align 4
 289              	an_jian_biao:
 290 1890 C1070000 		.word __an_jian0         	   	   +1
 291 1894 89020000 		.word __dang_wei_jia     	   	   +1
 292 1898 CB010000 		.word __pin_lv_jia      	   	   +1
 293 189c A7040000 		.word __an_jian3         	           +1
 294              	pinlv_biao:
 295 18a0 BB0D0000 		.word __pinlv_100			+1
 296 18a4 050F0000 		.word __pinlv_1K			+1
 297 18a8 F90F0000 		.word __pinlv_10K			+1
 298 18ac ED100000 		.word __pinlv_100K			+1
 299              		.align 4
 300              	pinlv_xianshi_biao:
 301 18b0 B0050000 		.word pinlv_100hz
 302 18b4 C0050000 		.word pinlv_1khz
 303 18b8 D0050000 		.word pinlv_10khz
 304 18bc E0050000 		.word pinlv_100khz
 305              	dangwei_xianshi_biao:
 306 18c0 10050000 		.word jiaozhun_0.5555
 307 18c4 15050000 		.word jiaozhun_1.666
 308 18c8 1A050000 		.word jiaozhun_3.333
 309 18cc 1F050000 		.word jiaozhun_5.555
 310 18d0 24050000 		.word jiaozhun_10
 311 18d4 29050000 		.word jiaozhun_16.66
 312 18d8 2E050000 		.word jiaozhun_33.33
 313 18dc 33050000 		.word jiaozhun_100
ARM GAS  1.s 			page 13


 314 18e0 38050000 		.word jiaozhun_300
 315 18e4 3D050000 		.word jiaozhun_600
 316 18e8 42050000 		.word jiaozhun_1k
 317 18ec 47050000 		.word jiaozhun_3k
 318 18f0 4C050000 		.word jiaozhun_6k
 319 18f4 51050000 		.word jiaozhun_10k
 320 18f8 56050000 		.word jiaozhun_30k
 321 18fc 5B050000 		.word jiaozhun_60k
 322 1900 60050000 		.word jiaozhun_100k
 323 1904 65050000 		.word jiaozhun_300k
 324 1908 6A050000 		.word jiaozhun_600k
 325 190c 6F050000 		.word jiaozhun_1M
 326 1910 74050000 		.word jiaozhun_1.8M
 327 1914 79050000 		.word jiaozhun_3M
 328 1918 7E050000 		.word jiaozhun_6M
 329 191c 83050000 		.word jiaozhun_18M
 330              		.align 4
 331              	kong:
 332 1920 20202020 		.int 0x20202020
 333              	_fu:
 334 1924 2D       		.ascii "-"
 335              	jiaodu1:
 336 1925 F23D0000 		.int 0x3df2
 337              	jiaodufuhao:
 338 1929 DF000000 		.int 0xdf
 339              	yjmwxwx:
 340 192d 796A6D77 		.ascii "yjmwxwx-20220101"
 340      7877782D 
 340      32303232 
 340      30313031 
 341 193d 000000   		.align 4
 342              		.equ STACKINIT,        	        0x20001000
 343              		.equ asciimabiao,		0x20000000
 344              		.equ lcd_beiguang,		0x20000020
 345              		.equ shangbi_r, 		0x20000024
 346              		.equ shangbi_i,			0x20000028
 347              		.equ xiabi_r,			0x2000002c
 348              		.equ xiabi_i,			0x20000030
 349              		.equ shangxiabi_qiehuan,	0x20000034
 350              		.equ liangcheng,		0x20000038
 351              		.equ z_r,			0x2000003c
 352              		.equ z_i,			0x20000040
 353              		.equ lvbo_changdu,		0x20000044
 354              		.equ lvbo_youyi,		0x20000048
 355              		.equ huandangyanshi,		0x2000004c
 356              		.equ shangbi_rr,		0x20000050
 357              		.equ shangbi_ii,		0x20000054
 358              		.equ xiabi_rr,			0x20000058
 359              		.equ xiabi_ii,			0x2000005c
 360              		.equ jishu,			0x20000060
 361              		.equ xianshi_biaozhi,		0x20000064
 362              		.equ z_fudu,			0x20000068
 363              		.equ cossin,			0x2000006c
 364              		.equ pinlv,			0x20000070
 365              		.equ anjian,			0x20000074
 366              		.equ zhenfu,			0x20000078
 367              		.equ shezhi_pinlv,		0x2000007c
ARM GAS  1.s 			page 14


 368              		.equ zidong_dangwei_kaiguan,	0x20000080
 369              		.equ z_r_jiaozhun,		0x20000084
 370              		.equ z_i_jiaozhun,		0x20000088
 371              		.equ z_jiaozhun, 		0x2000008c
 372              		.equ flash_cachu_biaozhi,	0x20000094
 373              		.equ jiaozhun_biao_zhizhen,	0x20000098
 374              		.equ cs,			0x2000009c
 375              		.equ ls,			0x200000a0
 376              		.equ osm_biao_zhizhen,		0x200000a4
 377              		.equ osm_flash_biaozhi,		0x200000a8
 378              	
 379              		
 380              		.equ dianyabiao,		0x20000100
 381              		.equ lvboqizhizhen,		0x200008d0
 382              		.equ lvboqihuanchong,		0x200008d8
 383              		.equ lvboqizhizhen1,            0x20000a68  @0x200009e0
 384              		.equ lvboqihuanchong1,          0x20000a70  @0x200009e8
 385              	        .equ lvboqizhizhen2,            0x20000c00  @0x20000af0
 386              		.equ lvboqihuanchong2,          0x20000c08  @0x20000af8
 387              		.equ lvboqizhizhen3,            0x20000d98  @0x20000c00
 388              		.equ lvboqihuanchong3,          0x20000da0  @0x20000c08
 389              		.equ fjiesuo, 	                0x1fffef62
 390              		.equ ojiesuo,                   0x1fffef6e
 391              		.equ quanca,                    0x1fffeff8
 392              		.equ yeca,                      0x1fffefda
 393              		.equ zica,                      0x1ffff020
 394              		.equ xieflash,                  0x1fffef9a
 395              		.equ zixie,                     0x1ffff048
 396              		.equ xiebaohu,                  0x1ffff0a6
 397              		.equ jiancedubaohu,             0x1ffff124
 398              		.equ flashmang,                 0x1fffef7a
 399              		
 400              		.section .text
 401              	
 402              	vectors:
 403 0000 00100020 		.word STACKINIT
 404 0004 B1000000 		.word _start + 1
 405 0008 5F1B0000 		.word _nmi_handler + 1
 406 000c 611B0000 		.word _hard_fault  + 1
 407 0010 00000000 		.word 0
 408 0014 00000000 		.word 0
 409 0018 00000000 		.word 0
 410 001c 00000000 		.word 0
 411 0020 00000000 		.word 0
 412 0024 00000000 		.word 0
 413 0028 00000000 		.word 0
 414 002c 631B0000 		.word _svc_handler +1
 415 0030 00000000 		.word 0
 416 0034 00000000 		.word 0
 417 0038 651B0000 		.word _pendsv_handler +1
 418 003c 671B0000 		.word _systickzhongduan +1           @ 15
 419 0040 031C0000 		.word aaa +1     @ _wwdg +1          @ 0
 420 0044 031C0000 		.word aaa +1     @_pvd +1            @ 1
 421 0048 031C0000 		.word aaa +1     @_rtc +1            @ 2
 422 004c 031C0000 		.word aaa +1     @_flash +1          @ 3
 423 0050 031C0000 		.word aaa +1	@ _rcc + 1           @ 4
 424 0054 031C0000 		.word aaa +1      @_exti0_1  +1      @ 5
ARM GAS  1.s 			page 15


 425 0058 031C0000 		.word aaa +1      @ _exti2_3 +1      @ 6
 426 005c 031C0000 		.word aaa +1       @_exti4_15 +1     @ 7
 427 0060 031C0000 		.word aaa +1                         @ 8
 428 0064 031C0000 		.word aaa +1	@__dma_wan  +1	     @ 9
 429 0068 031C0000 		.word aaa +1    @_dma1_2_3 +1        @ 10
 430 006c 031C0000 		.word aaa +1       @_dma1_4_5 +1     @ 11
 431 0070 031C0000 		.word aaa +1	 @_adc1 +1           @ 12
 432 0074 031C0000 		.word aaa +1       @_tim1_brk_up +1  @ 13
 433 0078 031C0000 		.word aaa +1        @ _tim1_cc +1    @ 14
 434 007c 031C0000 		.word aaa +1         @_tim2 +1       @ 15
 435 0080 031C0000 		.word aaa +1          @_tim3 +1      @ 16
 436 0084 031C0000 		.word aaa +1                         @ 17
 437 0088 031C0000 		.word aaa +1		             @ 18
 438 008c 031C0000 		.word aaa +1	@_tim14 +1           @ 19
 439 0090 031C0000 		.word aaa +1                         @ 20
 440 0094 031C0000 		.word aaa +1         @_tim16 +1      @ 21
 441 0098 031C0000 		.word aaa +1         @_tim17 +1      @ 22
 442 009c 031C0000 		.word aaa +1          @_i2c   +1     @ 23
 443 00a0 031C0000 		.word aaa +1                         @ 24
 444 00a4 031C0000 		.word aaa +1           @_spi   +1    @ 25
 445 00a8 031C0000 		.word aaa +1                         @ 26
 446 00ac 031C0000 		.word aaa +1         @_usart1 +1     @ 27
 447              		.align 2
 448              	_start:	
 449              	shizhong:
 450 00b0 554A     		ldr r2, = 0x40022000   @FLASH访问控制
 451 00b2 3221     		movs r1, # 0x32
 452 00b4 1160     		str r1, [r2]           @FLASH缓冲 缓冲开启
 453 00b6 5548     		ldr r0, = 0x40021000 @ rcc
 454 00b8 5549     		ldr r1, = 0x10001
 455 00ba 0160     		str r1, [r0]
 456              	denghse:
 457 00bc 0168     		ldr r1, [r0]
 458 00be 8903     		lsls r1, r1, # 14
 459 00c0 FCD5     		bpl denghse
 460              	dengpllguan:
 461 00c2 0168     		ldr r1, [r0]
 462 00c4 8901     		lsls r1, r1, # 6
 463 00c6 FCD4     		bmi dengpllguan
 464 00c8 5249     		ldr r1, = 0x154002	@0x150002
 465 00ca 0046     		mov r0, r0
 466 00cc 4160     		str r1, [r0, # 0x04]
 467 00ce 0046     		mov r0, r0
 468 00d0 5149     		ldr r1, = 0x1010000
 469 00d2 0046     		mov r0, r0
 470 00d4 0160     		str r1, [r0]
 471              	
 472              	dengpll:
 473 00d6 0168     		ldr r1, [r0]
 474 00d8 8901     		lsls r1, # 6
 475 00da FCD5     		bpl dengpll
 476              	
 477              	
 478 00dc 4F49     		ldr r1, = 100
 479 00de 0163     		str r1, [r0, # 0x30]
 480              	
 481              	_waisheshizhong:	                         @ 外设时钟
ARM GAS  1.s 			page 16


 482              		@+0x14=RCC_AHBENR
 483              		@ 0=DMA @ 2=SRAM @ 4=FLITF@ 6=CRC @ 17=PA @ 18=PB @ 19=PC @ 20=PD @ 22=PF
 484 00e0 4A48     		ldr r0, = 0x40021000
 485 00e2 4F49     		ldr r1, = 0x60001
 486 00e4 4161     		str r1, [r0, # 0x14]
 487              	
 488              		@+0x18外设时钟使能寄存器 (RCC_APB2ENR)
 489              		@0=SYSCFG @5=USART6EN @9=ADC @11=TIM1 @12=SPI1 @14=USART1 @16=TIM15 @17=TIM16 @18=TIM17 @22=DBGMCU
 490 00e6 4F49     		ldr r1, = 0x1a00
 491 00e8 8161     		str r1, [r0, # 0x18]
 492              		@+0X1C=RCC_APB1ENR
 493              		@ 1=TIM3 @ 4=TIM6 @ 5=TIM7 @ 8=TIM14 @ 11=WWDG @ 14=SPI @ 17=USRT2 @ 18=USART3 @ 20=USART5 @ 21=I2
 494              		@ 22=I2C2 @ 23=USB @ 28=PWR
 495 00ea 4F4A     		ldr r2, = 0x902
 496 00ec C261     		str r2, [r0, # 0x1c]
 497              	
 498 00ee 4F48     		ldr r0, = shezhi_pinlv
 499 00f0 0068     		ldr r0, [r0]
 500 00f2 0128     		cmp r0, # 1
 501 00f4 07D1     		bne _neicunqingling
 502              	_neicunqingling1:
 503 00f6 4E48     		ldr r0, = 0x20001000
 504 00f8 4E4A     		ldr r2, = 0x20000100
 505 00fa 0021     		movs r1, # 0
 506              	_neicunqinglingxunhuan1:
 507 00fc 0438     		subs r0, r0, # 4
 508 00fe 0160     		str r1, [r0]
 509 0100 9042     		cmp r0, r2
 510 0102 FBD1     		bne _neicunqinglingxunhuan1
 511 0104 06E0     		b _waishezhongduan
 512              	
 513              	
 514              		
 515              	_neicunqingling:
 516 0106 4A48     		ldr r0, = 0x20001000
 517 0108 4B4A     		ldr r2, = 0x20000000
 518 010a 0021     		movs r1, # 0
 519              	_neicunqinglingxunhuan:
 520 010c 0438     	        subs r0, r0, # 4
 521 010e 0160     		str r1, [r0]
 522 0110 9042     		cmp r0, r2
 523 0112 FBD1     		bne _neicunqinglingxunhuan
 524              	
 525              		
 526              	_waishezhongduan:		@外设中断
 527              		@0xE000E100    0-31  写1开，写0没效
 528              		@0XE000E180    0-31 写1关，写0没效
 529              		@0XE000E200    0-31 挂起，写0没效
 530              		@0XE000E280    0-31 清除， 写0没效
 531 0114 4948     		ldr r0, =  0xe000e100
 532 0116 4A49     		ldr r1, = 0x200 @0x10200  @ 0x10000
 533 0118 0160     		str r1, [r0]
 534              		
 535              	@_kanmengou:
 536              	@	ldr r0, = 0x40003000
 537              	@	ldr r1, = 0x5555
 538              	@	str r1, [r0]
ARM GAS  1.s 			page 17


 539              	@	movs r1, # 7
 540              	@	str r1, [r0, # 4]
 541              	@	ldr r1, = 0xfff
 542              	@	str r1, [r0, # 8]
 543              	@	ldr r1, = 0xaaaa
 544              	@	str r1, [r0]
 545              	@	ldr r1, = 0xcccc
 546              	@	str r1, [r0]
 547              		
 548              	io_she_zhi:
 549              		@@@@@@@@@@@@@@@@@@@@@@@@@@@@@@@@@@@@@@@@@@@@@@@@@@@@@@@@@@@@@@@@@@@@@@@@@@@@@@@@@@@@@@@@@@@@@@
 550              		@a(0x48000000)b(0x48000400)c(0x48000800)d(0x48000c00)f(0x48001400)
 551              		@ 输入（00），通用输出（01），复用功能（10），模拟（11）
 552              		@偏移0x4 = 端口输出类型 @ （0 推挽），（ 1 开漏）
 553              		@偏移0x8 = 输出速度  00低速， 01中速， 11高速
 554              		@偏移0xC = 上拉下拉 (00无上下拉，  01 上拉， 10下拉)
 555              		@偏移0x10 = 输入数据寄存器
 556              		@偏移0x14 = 输出数据寄存器
 557              		@偏移0x18 = 端口开  0-15置位
 558              		@偏移0x28 = 端口关
 559              		@0X20 = 复用低
 560              		@GPIO口0（0-3位）每个IO口占用4位
 561              		@ AF0 = 0X0000, AF1 = 0X0001, AF2 = 0X0010 AF3 = 0X0011, AF4 = 0X0100
 562              		@ AF5 = 0X0101, AF6 = 0X0111, AF7 = 0X1000
 563              		@0x24 = 复用高
 564              		@GPIO口8 （0-3位）每个IO口占用4位
 565              		@ AF0 = 0X0000, AF1 = 0X0001, AF2 = 0X0010 AF3 = 0X0011, AF4 = 0X0100
 566              		@ AF5 = 0X0101, AF6 = 0X0111, AF7 = 0X1000
 567              		@@@@@@@@@@@@@@@@@@@@@@@@@@@@@@@@@@@@@@@@@@@@@@@@@@@@@@@@@@@@@@@@@@@@@@@@@@@@@@@@@@@@@@@@@@@@@@
 568              	@	bkpt # 1
 569              	@	movs r0, # 0
 570              	@	cmp r0, # 0
 571 011a 05E0     		b __jlink_moshi
 572              	__anjian_moshi:	
 573 011c 4948     		ldr r0, = 0x48000000
 574 011e 4A49     		ldr r1, = 0x249a57 
 575 0120 0160     		str r1, [r0]
 576 0122 4A49     		ldr r1, = 0x14000000
 577 0124 C160     		str r1, [r0, # 0x0c]
 578 0126 02E0     		b __pa_shezhi
 579              	__jlink_moshi:	
 580 0128 4648     		ldr r0, = 0x48000000
 581 012a 4949     		ldr r1, = 0x28249a57
 582 012c 0160     		str r1, [r0]
 583              	__pa_shezhi:	
 584 012e B021     		movs r1, # 0xb0
 585 0130 4160     		str r1, [r0, # 0x04]
 586 0132 4849     		ldr r1, = 0x30cffc
 587 0134 8160     		str r1, [r0, # 0x08]
 588 0136 4249     		ldr r1, = 0x200
 589 0138 4162     		str r1, [r0, # 0x24]
 590              		
 591              		
 592 013a 4748     	        ldr r0, = 0x48000400
 593 013c 0421     		movs r1, # 0x04
 594 013e 0160     		str r1, [r0]
 595 0140 0C21     		movs r1, # 0x0c
ARM GAS  1.s 			page 18


 596 0142 8160     		str r1, [r0, # 0x08]
 597              		
 598              	spi_chushihua:
 599 0144 4548     		ldr r0, = 0x40013000
 600 0146 4649     		ldr  r1, = 0x708
 601 0148 4160     		str r1, [r0, # 0x04]
 602 014a 4649     		ldr r1, = 0x7c
 603 014c 0160     		str r1, [r0]
 604              	
 605              	_lcdchushihua:
 606 014e 3320     		movs r0, # 0x33
 607 0150 0021     		movs r1, # 0
 608 0152 01F0CEFA 		bl _xielcd
 609 0156 01F0C7FA 		bl _lcdyanshi
 610              	
 611 015a 3220     		movs r0, # 0x32
 612 015c 0021     		movs r1, # 0
 613 015e 01F0C8FA 		bl _xielcd
 614 0162 01F0C1FA 		bl _lcdyanshi
 615 0166 2820     		movs r0, # 0x28
 616 0168 0021     		movs r1, # 0
 617 016a 01F0C2FA 		bl _xielcd
 618 016e 01F0BBFA 		bl _lcdyanshi
 619 0172 0C20     		movs r0, # 0x0c
 620 0174 0021     		movs r1, # 0
 621 0176 01F0BCFA 		bl _xielcd
 622 017a 01F0B5FA 		bl _lcdyanshi
 623 017e 0120     		movs r0, # 0x01
 624 0180 0021     		movs r1, # 0
 625 0182 01F0B6FA 		bl _xielcd
 626 0186 01F0AFFA 		bl _lcdyanshi
 627              	
 628              	
 629              		
 630 018a 2848     		ldr r0, = shezhi_pinlv
 631 018c 0068     		ldr r0, [r0]
 632 018e 0128     		cmp r0, # 1
 633 0190 0DD0     		beq __pinlv_dangwei_chushihua
 634 0192 8020     		movs r0, # 0x80
 635 0194 3449     		ldr r1, = yjmwxwx
 636 0196 1022     		movs r2, # 16
 637 0198 01F098FA 		bl _lcdxianshi
 638 019c 3348     		ldr r0, = 0xffffff
 639              	yjmwxwx_yanshi:
 640 019e 0138     		subs r0, r0, # 1
 641 01a0 FDD1     		bne yjmwxwx_yanshi
 642              		
 643 01a2 0120     		movs r0, # 0x01
 644 01a4 0021     		movs r1, # 0
 645 01a6 01F0A4FA 		bl _xielcd
 646 01aa 01F09DFA 		bl _lcdyanshi
 647              		
 648              	
 649              	__pinlv_dangwei_chushihua:
 650              	
 651 01ae 3048     		ldr r0, = pinlv
 652 01b0 0221     		movs r1, # 2
ARM GAS  1.s 			page 19


 653 01b2 0160     		str r1, [r0]
 654 01b4 00F0F7FD 		bl __pinlv_shezhi
 655 01b8 2E48     		ldr r0, = liangcheng
 656 01ba 0021     		movs r1, # 0
 657 01bc 0160     		str r1, [r0]
 658 01be 2E48     		ldr r0, = flash_cachu_biaozhi
 659 01c0 0068     		ldr r0, [r0]
 660 01c2 0128     		cmp r0, # 1
 661 01c4 00D0     		beq __an_jian_3
 662 01c6 FBE2     		b ting
 663              		
 664              	@	b __an_jian3
 665              	
 666              	__an_jian_3:
 667 01c8 6DE1     		b __an_jian3
 668              	__pin_lv_jia:
 669 01ca 72B6     		cpsid i
 670 01cc 2848     		ldr r0, = pinlv
 671 01ce 0168     		ldr r1, [r0]
 672 01d0 0131     		adds r1, r1, # 1
 673 01d2 0160     		str r1, [r0]
 674 01d4 0429     		cmp r1, # 4
 675 01d6 01D1     		bne __pin_lv_fan_hui
 676 01d8 0021     		movs r1, # 0
 677 01da 0160     		str r1, [r0]
 678              	__pin_lv_fan_hui:
 679 01dc 0A46     		mov r2, r1
 680 01de 9200     		lsls r2, r2, # 2
 681 01e0 0120     	        movs r0, # 0x01
 682 01e2 0021     		movs r1, # 0
 683 01e4 01F085FA 		bl _xielcd
 684 01e8 01F07EFA 		bl _lcdyanshi
 685 01ec 8020     	        movs r0, # 0x80
 686 01ee 2349     		ldr r1, = pinlv_xianshi_biao
 687 01f0 8958     		ldr r1, [r1, r2]
 688 01f2 1022     		movs r2, # 16
 689 01f4 01F06AFA 		bl _lcdxianshi
 690              		
 691 01f8 1C48     		ldr r0, = 0xffffff
 692              	__pinlv_xianshi_yanshi:
 693 01fa 0138     		subs r0, r0, # 1
 694 01fc FDD1     		bne __pinlv_xianshi_yanshi
 695 01fe 2048     		ldr r0, = 0xe000ed0c
 696 0200 2049     		ldr r1, = 0x05fa0004
 697 0202 0160     		str r1, [r0]			@复位
 698 0204 01BE     		bkpt # 1
 699 0206 00000020 		.ltorg
 699      02400010 
 699      02400100 
 699      01000240 
 699      15000000 
 700              	
 701              		
 702              	__dang_wei_jia:
 703 0288 0120     		movs r0, # 0x01
 704 028a 0021     		movs r1, # 0
 705 028c 01F031FA 		bl _xielcd
ARM GAS  1.s 			page 20


 706 0290 01F02AFA 		bl _lcdyanshi
 707 0294 8020     		movs r0, # 0x80
 708 0296 6649     		ldr r1, = kailu
 709 0298 1022     		movs r2, # 16
 710 029a 01F017FA 		bl _lcdxianshi
 711 029e 0120     	        movs r0, # 0x01
 712 02a0 0021     		movs r1, # 0
 713 02a2 01F026FA 		bl _xielcd
 714 02a6 01F01FFA 		bl _lcdyanshi
 715              		
 716              		
 717              		
 718 02aa 624B     		ldr r3, = liangcheng
 719 02ac 1B68     		ldr r3, [r3]
 720 02ae 9B00     		lsls r3, r3, # 2
 721 02b0 0120     		movs r0, # 0x01
 722 02b2 0021     		movs r1, # 0
 723 02b4 01F01DFA 		bl _xielcd
 724 02b8 01F016FA 		bl _lcdyanshi
 725              	
 726 02bc 8E20     		movs r0, # 0x8e
 727 02be 5E49     		ldr r1, = zukang_danwei
 728 02c0 C918     		adds r1, r1, r3
 729 02c2 0222     		movs r2, # 2
 730 02c4 01F002FA 		bl _lcdxianshi
 731 02c8 01F00EFA 		bl _lcdyanshi
 732              	
 733 02cc 8920     		movs r0, # 0x89
 734 02ce 5B49     		ldr r1, = dangwei_xianshi_biao
 735 02d0 C958     		ldr r1, [r1, r3]
 736 02d2 0522     		movs r2, # 5
 737 02d4 01F0FAF9 		bl _lcdxianshi
 738 02d8 01F006FA 		bl _lcdyanshi
 739              	
 740 02dc 8020     		movs r0, # 0x80
 741 02de 5849     		ldr r1, = jiaozhun
 742 02e0 0822     		movs r2, # 8
 743 02e2 01F0F3F9 		bl _lcdxianshi
 744 02e6 01F0FFF9 		bl _lcdyanshi
 745              		
 746              	
 747              	
 748              	
 749              	
 750              	
 751              	
 752              		
 753              		
 754              	__deng_que_ren:
 755 02ea 564C     		ldr r4, = 0x20000090                    @0等待用户确认
 756              		@1进入校准
 757              		@其他跳过校准
 758 02ec 2168     		ldr r1, [r4]
 759 02ee 0129     		cmp r1, # 1	
 760 02f0 0BD0     		beq __jinru_kailu_duanlu_jiaozhun
 761 02f2 FAD1     		bne __deng_que_ren
 762              		
ARM GAS  1.s 			page 21


 763 02f4 0029     		cmp r1, # 0
 764 02f6 04D0     		beq __jiance_anjian1
 765 02f8 0229     		cmp r1, # 2
 766 02fa 02D1     		bne __jiance_anjian1
 767 02fc 0021     		movs r1, # 0
 768 02fe 2160     		str r1, [r4]
 769 0300 B1E1     		b __bu_jiaozhun
 770              	__jiance_anjian1:
 771 0302 00F049FD 		bl __an_jian
 772 0306 2060     		str r0, [r4]
 773 0308 EFE7     		b __deng_que_ren
 774              	__jinru_kailu_duanlu_jiaozhun:
 775 030a 4F48     		ldr r0, = osm_flash_biaozhi
 776 030c 0068     		ldr r0, [r0]
 777 030e 0128     		cmp r0, # 1
 778 0310 1ED0     		beq __kailu_duanlu_jiaozhun_kaishi
 779              	__cachu_osm_flash:
 780 0312 4E4C     		ldr r4, = fjiesuo
 781 0314 0325     		movs r5, # 3
 782 0316 7D44     		add r5, r5, pc
 783 0318 AE46     		mov lr, r5
 784 031a A746     		mov pc, r4
 785 031c 4C4C     		ldr r4, = ojiesuo
 786 031e 0325     		movs r5, # 3
 787 0320 7D44     		add r5, r5, pc
 788 0322 AE46     		mov lr, r5
 789 0324 A746     		mov pc, r4
 790 0326 4B4C     		ldr r4, = yeca
 791 0328 4B48     		ldr r0, = 0x8004000
 792 032a 0325     		movs r5, # 3
 793 032c 7D44     		add r5, r5, pc
 794 032e AE46     		mov lr, r5
 795 0330 A746     		mov pc, r4
 796 0332 4548     		ldr r0, = osm_flash_biaozhi
 797 0334 0121     		movs r1, # 1
 798 0336 0160     		str r1, [r0]
 799              		
 800              		
 801 0338 4848     		ldr r0, = pinlv
 802 033a 3E49     		ldr r1, = liangcheng
 803 033c 0022     		movs r2, # 0
 804 033e 0260     		str r2, [r0]
 805 0340 0A60     		str r2, [r1]
 806 0342 4748     		ldr r0, = zidong_dangwei_kaiguan
 807 0344 0121     		movs r1, # 1
 808 0346 0160     		str r1, [r0]    @自动档位关闭
 809 0348 4648     		ldr r0, = 0xe000ed0c
 810 034a 4749     		ldr r1, = 0x05fa0004
 811 034c 0160     		str r1, [r0]                    @复位
 812 034e 01BE     		bkpt # 1
 813              	__kailu_duanlu_jiaozhun_kaishi:	
 814 0350 4249     	        ldr r1, = pinlv
 815 0352 0B68     		ldr r3, [r1]
 816 0354 9B00     		lsls r3, r3, #2
 817 0356 C020     		movs r0, # 0xc0
 818 0358 4449     		ldr r1, = pinlv_xianshi_biao
 819 035a C958     		ldr r1, [r1, r3]
ARM GAS  1.s 			page 22


 820 035c 1022     		movs r2, # 16
 821 035e 01F0B5F9 		bl _lcdxianshi
 822              	
 823 0362 3F48     		ldr r0, = zidong_dangwei_kaiguan
 824 0364 0121     		movs r1, # 1
 825 0366 0160     		str r1, [r0]
 826              	__deng_zukang_wending1:
 827 0368 3C48     		ldr r0, = pinlv
 828 036a 0068     		ldr r0, [r0]
 829 036c 8000     		lsls r0, r0, # 2
 830 036e 404F     		ldr r7, = pinlv_qiehuan_yanshi_biao
 831 0370 3F58     		ldr r7, [r7, r0]
 832              	dzd2:
 833 0372 00F073FF 		bl __jisuan_zukang
 834 0376 01F083F8 		bl __xianshi_zukang
 835 037a 8E20     	        movs r0, # 0x8e
 836 037c 2D4A     		ldr r2, = liangcheng
 837 037e 2E49     		ldr r1, = zukang_danwei
 838 0380 1268     		ldr r2, [r2]
 839 0382 9200     		lsls r2, r2, # 2
 840 0384 8918     		adds r1, r1, r2
 841 0386 0222     		movs r2, # 2
 842 0388 01F0A0F9 		bl _lcdxianshi
 843              		
 844 038c 013F     		subs r7, r7, # 1
 845 038e F0D1     		bne dzd2
 846 0390 2E4C     		ldr r4, = fjiesuo
 847 0392 0325     		movs r5, # 3
 848 0394 7D44     		add r5, r5, pc
 849 0396 AE46     		mov lr, r5
 850 0398 A746     		mov pc, r4
 851 039a 2D4C     		ldr r4, = ojiesuo
 852 039c 0325     		movs r5, # 3
 853 039e 7D44     		add r5, r5, pc
 854 03a0 AE46     		mov lr, r5
 855 03a2 A746     		mov pc, r4
 856              	
 857              	
 858              	
 859 03a4 334B     		ldr r3, = osm_biao_zhizhen
 860 03a6 1868     		ldr r0, [r3]
 861 03a8 2B4C     		ldr r4, = 0x8004000
 862 03aa 0019     		adds r0, r0, r4                 @写地址
 863 03ac 324C     		ldr r4, = xieflash
 864 03ae 3349     		ldr r1, = z_r
 865 03b0 0968     		ldr r1, [r1]                    @数据
 866 03b2 0325     		movs r5, # 3
 867 03b4 7D44     		add r5,  r5, pc
 868 03b6 AE46     		mov lr, r5
 869 03b8 A746     		mov pc, r4
 870              	
 871 03ba 2E4B     		ldr r3, = osm_biao_zhizhen
 872 03bc 1868     		ldr r0, [r3]
 873 03be 264C     		ldr r4, = 0x8004000
 874 03c0 0019     		adds r0, r0, r4
 875 03c2 0430     		adds r0, r0, # 4
 876 03c4 2C4C     		ldr r4, = xieflash
ARM GAS  1.s 			page 23


 877 03c6 2E49     		ldr r1, = z_i
 878 03c8 0968     		ldr r1, [r1]
 879 03ca 0325     		movs r5, # 3
 880 03cc 7D44     		add r5,  r5, pc
 881 03ce AE46     		mov lr, r5
 882 03d0 A746     		mov pc, r4
 883              		
 884 03d2 284B     		ldr r3, = osm_biao_zhizhen
 885 03d4 1868     		ldr r0, [r3]
 886 03d6 0830     		adds r0, r0, # 0x08
 887 03d8 1860     		str r0, [r3]
 888 03da 2048     		ldr r0, = pinlv
 889 03dc 0068     		ldr r0, [r0]
 890 03de 0328     		cmp r0, # 3
 891 03e0 23D1     		bne __jiaozhun_qiehuan_pinlv1
 892 03e2 1848     		ldr r0, = 0x20000090
 893 03e4 0021     		movs r1, # 0
 894 03e6 0160     		str r1, [r0]
 895 03e8 1248     		ldr r0, = liangcheng
 896 03ea 0168     		ldr r1, [r0]
 897 03ec 0131     		adds r1, r1, # 1
 898 03ee 0160     		str r1, [r0]
 899 03f0 1829     		cmp r1, # 24
 900 03f2 1AD1     		bne __jiaozhun_qiehuan_pinlv1
 901 03f4 72B6     		cpsid i
 902              	_neicun_xie_0:
 903 03f6 2348     		ldr r0, = 0x20001000
 904 03f8 234A     		ldr r2, = 0x20000000
 905 03fa 0021     		movs r1, # 0
 906              	_neicun_xie_0_xunhuan:
 907 03fc 0438     		subs r0, r0, # 4
 908 03fe 0160     		str r1, [r0]
 909 0400 9042     		cmp r0, r2
 910 0402 FBD1     		bne _neicun_xie_0_xunhuan
 911              	
 912 0404 0120     		movs r0, # 0x01
 913 0406 0021     		movs r1, # 0
 914 0408 01F073F9 		bl _xielcd
 915 040c 01F06CF9 		bl _lcdyanshi
 916              	
 917 0410 8020     		movs r0, # 0x80
 918 0412 1E49     		ldr r1, = jiaozhun_wancheng
 919 0414 1022     		movs r2, # 16
 920 0416 01F059F9 		bl _lcdxianshi
 921 041a 01F065F9 		bl _lcdyanshi
 922              	
 923 041e C020     		movs r0, # 0xc0
 924 0420 1B49     		ldr r1, = guan_ji
 925 0422 1022     		movs r2, # 16
 926 0424 01F052F9 		bl _lcdxianshi
 927              		
 928 0428 02BE     		bkpt # 2
 929              	
 930              	__jiaozhun_qiehuan_pinlv1:
 931 042a CEE6     		b __pin_lv_jia
 932              		
 933              	
ARM GAS  1.s 			page 24


 934              		
 935 042c C8E1     		b ting
 936 042e 00000000 		.ltorg
 936      00003800 
 936      00202018 
 936      0000C018 
 936      00008805 
 937              	
 938              		
 939 0494 AA48     		ldr r0, = liangcheng
 940 0496 0168     		ldr r1, [r0]
 941 0498 0131     		adds r1, r1, # 1
 942 049a 0160     		str r1, [r0]
 943 049c 1729     		cmp r1, # 23
 944 049e 01D1     		bne __dang_wei_fan_hui
 945 04a0 0021     		movs r1, # 0
 946 04a2 0160     		str r1, [r0]
 947              	__dang_wei_fan_hui:
 948 04a4 04BE     		bkpt # 4
 949              		
 950              	
 951              	
 952              	
 953              	
 954              		
 955              	__an_jian3:
 956 04a6 A748     	        ldr r0, = flash_cachu_biaozhi
 957 04a8 0168     		ldr r1, [r0]
 958 04aa 0129     		cmp r1, # 1
 959 04ac 0FD0     		beq __jiaozhun_chengxu
 960              		
 961 04ae 0120     	        movs r0, # 0x01
 962 04b0 0021     		movs r1, # 0
 963 04b2 01F01EF9 		bl _xielcd
 964 04b6 01F017F9 		bl _lcdyanshi
 965 04ba 8020     		movs r0, # 0x80
 966 04bc A249     		ldr r1, = jiaozhun
 967 04be 0822     		movs r2, # 8
 968 04c0 01F004F9 		bl _lcdxianshi
 969 04c4 01F010F9 		bl _lcdyanshi
 970 04c8 A048     		ldr r0, = 0x3ffffff
 971              	__jinru_jiaozhun_yanshi:	
 972 04ca 0138     		subs r0, r0, # 1
 973 04cc FDD1     		bne __jinru_jiaozhun_yanshi	
 974              	__jiaozhun_chengxu:
 975 04ce 9C4B     		ldr r3, = liangcheng
 976 04d0 1B68     		ldr r3, [r3]
 977 04d2 9B00     		lsls r3, r3, # 2
 978 04d4 0120     		movs r0, # 0x01
 979 04d6 0021     		movs r1, # 0
 980 04d8 01F00BF9 		bl _xielcd
 981 04dc 01F004F9 		bl _lcdyanshi
 982              		
 983 04e0 8E20     		movs r0, # 0x8e
 984 04e2 9B49     		ldr r1, = zukang_danwei
 985 04e4 C918     		adds r1, r1, r3
 986 04e6 0222     		movs r2, # 2
ARM GAS  1.s 			page 25


 987 04e8 01F0F0F8 		bl _lcdxianshi
 988 04ec 01F0FCF8 		bl _lcdyanshi
 989              		
 990 04f0 8920     		movs r0, # 0x89
 991 04f2 9849     		ldr r1, = dangwei_xianshi_biao
 992 04f4 C958     		ldr r1, [r1, r3]
 993 04f6 0522     		movs r2, # 5
 994 04f8 01F0E8F8 		bl _lcdxianshi
 995 04fc 01F0F4F8 		bl _lcdyanshi
 996              	
 997 0500 8020     	        movs r0, # 0x80
 998 0502 9149     		ldr r1, = jiaozhun
 999 0504 0822     		movs r2, # 8
 1000 0506 01F0E1F8 		bl _lcdxianshi
 1001 050a 01F0EDF8 		bl _lcdyanshi
 1002              	__dangwei_qiehuan_xunhuan:
 1003 050e 924C     		ldr r4, = 0x20000090			@0等待用户确认
 1004              							@1进入校准
 1005              							@其他跳过校准
 1006 0510 2168     		ldr r1, [r4]
 1007 0512 0129     		cmp r1, # 1	
 1008 0514 0AD0     		beq __jinru_jiaozhun
 1009 0516 0029     		cmp r1, # 0
 1010 0518 04D0     		beq __jiance_anjian
 1011 051a 0229     		cmp r1, # 2
 1012 051c 02D1     		bne __jiance_anjian
 1013 051e 0021     		movs r1, # 0
 1014 0520 2160     		str r1, [r4]
 1015 0522 A0E0     		b __bu_jiaozhun
 1016              	__jiance_anjian:
 1017 0524 00F038FC 		bl __an_jian
 1018 0528 2060     		str r0, [r4]
 1019 052a F0E7     		b __dangwei_qiehuan_xunhuan
 1020              		
 1021              	__jinru_jiaozhun:
 1022 052c 8548     		ldr r0, = flash_cachu_biaozhi
 1023 052e 0068     		ldr r0, [r0]
 1024 0530 0128     		cmp r0, # 1
 1025 0532 23D0     		beq __jiaozhun_kaishi
 1026              	__cachu_flash:
 1027 0534 894C     		ldr r4, = fjiesuo
 1028 0536 0325     		movs r5, # 3
 1029 0538 7D44     		add r5, r5, pc
 1030 053a AE46     		mov lr, r5
 1031 053c A746     		mov pc, r4
 1032 053e 884C     		ldr r4, = ojiesuo
 1033 0540 0325     		movs r5, # 3
 1034 0542 7D44     		add r5, r5, pc
 1035 0544 AE46     		mov lr, r5
 1036 0546 A746     		mov pc, r4
 1037 0548 864C     		ldr r4, = yeca
 1038 054a 8748     		ldr r0, = 0x8003800
 1039 054c 0325     		movs r5, # 3
 1040 054e 7D44     		add r5, r5, pc
 1041 0550 AE46     		mov lr, r5
 1042 0552 A746     		mov pc, r4
 1043 0554 8548     		ldr r0, = 0x8003c00
ARM GAS  1.s 			page 26


 1044 0556 0325     		movs r5, # 3
 1045 0558 7D44     		add r5, r5, pc
 1046 055a AE46     		mov lr, r5
 1047 055c A746     		mov pc, r4
 1048 055e 7948     		ldr r0, = flash_cachu_biaozhi
 1049 0560 0121     		movs r1, # 1
 1050 0562 0160     		str r1, [r0]
 1051              	
 1052 0564 8248     	        ldr r0, = pinlv
 1053 0566 7649     		ldr r1, = liangcheng
 1054 0568 0022     		movs r2, # 0
 1055 056a 0260     		str r2, [r0]
 1056 056c 0A60     		str r2, [r1]
 1057 056e 8148     		ldr r0, = zidong_dangwei_kaiguan
 1058 0570 0121     		movs r1, # 1
 1059 0572 0160     		str r1, [r0]    @自动档位关闭
 1060 0574 8048     		ldr r0, = 0xe000ed0c
 1061 0576 8149     		ldr r1, = 0x05fa0004
 1062 0578 0160     		str r1, [r0]                    @复位
 1063 057a 01BE     		bkpt # 1
 1064              		
 1065              	
 1066              	__jiaozhun_kaishi:	
 1067 057c 7C49     		ldr r1, = pinlv
 1068 057e 0B68     		ldr r3, [r1]
 1069 0580 9B00     		lsls r3, r3, # 2
 1070 0582 C020     		movs r0, # 0xc0
 1071 0584 7E49     		ldr r1, = pinlv_xianshi_biao
 1072 0586 C958     		ldr r1, [r1, r3]
 1073 0588 1022     		movs r2, # 16
 1074 058a 01F09FF8 		bl _lcdxianshi
 1075              		
 1076 058e 7948     	        ldr r0, = zidong_dangwei_kaiguan
 1077 0590 0121     		movs r1, # 1
 1078 0592 0160     		str r1, [r0]
 1079              	__deng_zukang_wending:
 1080              	
 1081 0594 7648     		ldr r0, = pinlv
 1082 0596 0068     		ldr r0, [r0]
 1083 0598 8000     		lsls r0, r0, # 2
 1084 059a 7A4F     		ldr r7, = pinlv_qiehuan_yanshi_biao
 1085 059c 3F58     		ldr r7, [r7, r0]
 1086              	dzd1:
 1087 059e 00F05DFE 		bl __jisuan_zukang
 1088 05a2 00F06DFF 		bl __xianshi_zukang
 1089              	
 1090 05a6 013F     		subs r7, r7, # 1
 1091 05a8 F9D1     		bne dzd1
 1092 05aa 7748     		ldr r0, = qiwang_jiaodu_biao
 1093 05ac 7049     		ldr r1, = pinlv
 1094 05ae 644A     		ldr r2, = liangcheng
 1095 05b0 0968     		ldr r1, [r1]
 1096 05b2 1268     		ldr r2, [r2]
 1097 05b4 8900     		lsls r1, r1, # 2
 1098 05b6 4158     		ldr r1, [r0, r1]
 1099 05b8 9200     		lsls r2, r2, # 2
 1100 05ba 1646     		mov r6, r2
ARM GAS  1.s 			page 27


 1101 05bc 8858     		ldr r0, [r1, r2] 	@读出期望角度
 1102 05be 00F03BFB 		bl __jiaozhun_jiaodu
 1103 05c2 724A     		ldr r2, = z_r_jiaozhun
 1104 05c4 724B     		ldr r3, = z_i_jiaozhun
 1105 05c6 1060     		str r0, [r2]
 1106 05c8 1960     		str r1, [r3]
 1107 05ca 00F023FB 		bl __xiangwei_xuanzhuan
 1108 05ce 7148     		ldr r0, = qiwang_fudu
 1109 05d0 8059     		ldr r0, [r0, r6]	@读出期望幅度
 1110 05d2 00F003FB 		bl __jiaozhun_fudu
 1111 05d6 7049     		ldr r1, = z_jiaozhun
 1112 05d8 0860     		str r0, [r1]
 1113              	
 1114 05da 604C     		ldr r4, = fjiesuo
 1115 05dc 0325     		movs r5, # 3
 1116 05de 7D44     		add r5, r5, pc
 1117 05e0 AE46     		mov lr, r5
 1118 05e2 A746     		mov pc, r4
 1119 05e4 5E4C     		ldr r4, = ojiesuo
 1120 05e6 0325     		movs r5, # 3
 1121 05e8 7D44     		add r5, r5, pc
 1122 05ea AE46     		mov lr, r5
 1123 05ec A746     		mov pc, r4
 1124              		
 1125              		
 1126              		
 1127 05ee 6B4B     	        ldr r3, = jiaozhun_biao_zhizhen
 1128 05f0 1868     		ldr r0, [r3]
 1129 05f2 5D4C     		ldr r4, = 0x8003800
 1130 05f4 0019     		adds r0, r0, r4			@写地址
 1131 05f6 6A4C     		ldr r4, = xieflash
 1132 05f8 6449     		ldr r1, = z_r_jiaozhun
 1133 05fa 0968     		ldr r1, [r1]			@数据
 1134 05fc 0325     		movs r5, # 3
 1135 05fe 7D44     		add r5,  r5, pc
 1136 0600 AE46     		mov lr, r5
 1137 0602 A746     		mov pc, r4
 1138              	
 1139 0604 654B     		ldr r3, = jiaozhun_biao_zhizhen
 1140 0606 1868     		ldr r0, [r3]
 1141 0608 574C     		ldr r4, = 0x8003800
 1142 060a 0019     		adds r0, r0, r4
 1143 060c 0430     		adds r0, r0, # 4
 1144 060e 644C     		ldr r4, = xieflash
 1145 0610 5F49     		ldr r1, = z_i_jiaozhun
 1146 0612 0968     		ldr r1, [r1]
 1147 0614 0325     		movs r5, # 3
 1148 0616 7D44     		add r5,  r5, pc
 1149 0618 AE46     		mov lr, r5
 1150 061a A746     		mov pc, r4
 1151              	
 1152 061c 5F4B     		ldr r3, = jiaozhun_biao_zhizhen
 1153 061e 1868     		ldr r0, [r3]
 1154 0620 514C     		ldr r4, = 0x8003800
 1155 0622 0019     		adds r0, r0, r4
 1156 0624 0830     		adds r0, r0, # 8
 1157 0626 5E4C     		ldr r4, = xieflash
ARM GAS  1.s 			page 28


 1158 0628 5B49     		ldr r1, = z_jiaozhun
 1159 062a 0968     		ldr r1, [r1]
 1160 062c 0325     		movs r5, # 3
 1161 062e 7D44     		add r5,  r5, pc
 1162 0630 AE46     		mov lr, r5
 1163 0632 A746     		mov pc, r4
 1164              	
 1165 0634 594B     		ldr r3, = jiaozhun_biao_zhizhen
 1166 0636 1868     		ldr r0, [r3]
 1167 0638 4B4C     		ldr r4, = 0x8003800
 1168 063a 0019     		adds r0, r0, r4
 1169 063c 0C30     		adds r0, r0, # 0x0c
 1170 063e 584C     		ldr r4, = xieflash
 1171 0640 5849     		ldr r1, = z_r
 1172 0642 0968     		ldr r1, [r1]
 1173 0644 0325     		movs r5, # 3
 1174 0646 7D44     		add r5,  r5, pc
 1175 0648 AE46     		mov lr, r5
 1176 064a A746     		mov pc, r4
 1177              		
 1178 064c 534B     		ldr r3, = jiaozhun_biao_zhizhen
 1179 064e 1868     		ldr r0, [r3]
 1180 0650 454C     		ldr r4, = 0x8003800
 1181 0652 0019     		adds r0, r0, r4
 1182 0654 1030     		adds r0, r0, # 0x10
 1183 0656 524C     		ldr r4, = xieflash
 1184 0658 5349     		ldr r1, = z_i
 1185 065a 0968     		ldr r1, [r1]
 1186 065c 0325     		movs r5, # 3
 1187 065e 7D44     		add r5,  r5, pc
 1188 0660 AE46     		mov lr, r5
 1189 0662 A746     		mov pc, r4
 1190              		
 1191              		
 1192 0664 3FE0     		b __jiaozhun_chengxu_fanhui
 1193              	
 1194              	__bu_jiaozhun:	
 1195 0666 3D4C     	        ldr r4, = fjiesuo
 1196 0668 0325     		movs r5, # 3
 1197 066a 7D44     		add r5, r5, pc
 1198 066c AE46     		mov lr, r5
 1199 066e A746     		mov pc, r4
 1200 0670 3B4C     		ldr r4, = ojiesuo
 1201 0672 0325     		movs r5, # 3
 1202 0674 7D44     		add r5, r5, pc
 1203 0676 AE46     		mov lr, r5
 1204 0678 A746     		mov pc, r4
 1205              		
 1206 067a 484B     		ldr r3, = jiaozhun_biao_zhizhen
 1207 067c 1868     		ldr r0, [r3]
 1208 067e 3A4C     		ldr r4, = 0x8003800
 1209 0680 0019     		adds r0, r0, r4                 @写地址
 1210 0682 474C     		ldr r4, = xieflash
 1211 0684 4949     		ldr r1, = 0x8000
 1212 0686 0325     		movs r5, # 3
 1213 0688 7D44     		add r5,  r5, pc
 1214 068a AE46     		mov lr, r5
ARM GAS  1.s 			page 29


 1215 068c A746     		mov pc, r4
 1216              	
 1217 068e 434B     		ldr r3, = jiaozhun_biao_zhizhen
 1218 0690 1868     		ldr r0, [r3]
 1219 0692 354C     		ldr r4, = 0x8003800
 1220 0694 0019     		adds r0, r0, r4
 1221 0696 0430     		adds r0, r0, # 4
 1222 0698 414C     		ldr r4, = xieflash
 1223 069a 0021     		movs r1, # 0
 1224 069c 0325     		movs r5, # 3
 1225 069e 7D44     		add r5,  r5, pc
 1226 06a0 AE46     		mov lr, r5
 1227 06a2 A746     		mov pc, r4
 1228              	
 1229 06a4 3D4B     		ldr r3, = jiaozhun_biao_zhizhen
 1230 06a6 1868     		ldr r0, [r3]
 1231 06a8 2F4C     		ldr r4, = 0x8003800
 1232 06aa 0019     		adds r0, r0, r4
 1233 06ac 0830     		adds r0, r0, # 8
 1234 06ae 3C4C     		ldr r4, = xieflash
 1235 06b0 3E49     		ldr r1, = 0x8000
 1236 06b2 0325     		movs r5, # 3
 1237 06b4 7D44     		add r5,  r5, pc
 1238 06b6 AE46     		mov lr, r5
 1239 06b8 A746     		mov pc, r4
 1240              	
 1241 06ba 384B     		ldr r3, = jiaozhun_biao_zhizhen
 1242 06bc 1868     		ldr r0, [r3]
 1243 06be 2A4C     		ldr r4, = 0x8003800
 1244 06c0 0019     		adds r0, r0, r4
 1245 06c2 0C30     		adds r0, r0, # 0x0c
 1246 06c4 364C     		ldr r4, = xieflash
 1247 06c6 3949     		ldr r1, = 0x8000
 1248 06c8 0325     		movs r5, # 3
 1249 06ca 7D44     		add r5,  r5, pc
 1250 06cc AE46     		mov lr, r5
 1251 06ce A746     		mov pc, r4
 1252              	
 1253 06d0 324B     		ldr r3, = jiaozhun_biao_zhizhen
 1254 06d2 1868     		ldr r0, [r3]
 1255 06d4 244C     		ldr r4, = 0x8003800
 1256 06d6 0019     		adds r0, r0, r4
 1257 06d8 1030     		adds r0, r0, # 0x10
 1258 06da 314C     		ldr r4, = xieflash
 1259 06dc 3349     		ldr r1, = 0x8000
 1260 06de 0325     		movs r5, # 3
 1261 06e0 7D44     		add r5,  r5, pc
 1262 06e2 AE46     		mov lr, r5
 1263 06e4 A746     		mov pc, r4
 1264              		
 1265              		
 1266              	__jiaozhun_chengxu_fanhui:	
 1267 06e6 2D4B     		ldr r3, = jiaozhun_biao_zhizhen
 1268 06e8 1868     		ldr r0, [r3]
 1269 06ea 1430     		adds r0, r0, # 0x14
 1270 06ec 1860     		str r0, [r3]
 1271 06ee 2048     		ldr r0, = pinlv
ARM GAS  1.s 			page 30


 1272 06f0 0068     		ldr r0, [r0]
 1273 06f2 0328     		cmp r0, # 3
 1274 06f4 23D1     		bne __jiaozhun_qiehuan_pinlv
 1275 06f6 1848     		ldr r0, = 0x20000090
 1276 06f8 0021     		movs r1, # 0
 1277 06fa 0160     		str r1, [r0]
 1278 06fc 1048     		ldr r0, = liangcheng
 1279 06fe 0168     		ldr r1, [r0]
 1280 0700 0131     		adds r1, r1, # 1
 1281 0702 0160     		str r1, [r0]
 1282 0704 1829     		cmp r1, # 24
 1283 0706 1AD1     		bne __jiaozhun_qiehuan_pinlv
 1284 0708 72B6     		cpsid i
 1285              	_neicun_xie0:
 1286 070a 2948     		ldr r0, = 0x20001000
 1287 070c 294A     		ldr r2, = 0x20000000
 1288 070e 0021     		movs r1, # 0
 1289              	_neicun_xie0_xunhuan:
 1290 0710 0438     		subs r0, r0, # 4
 1291 0712 0160     		str r1, [r0]
 1292 0714 9042     		cmp r0, r2
 1293 0716 FBD1     		bne _neicun_xie0_xunhuan
 1294              		
 1295 0718 0120     	        movs r0, # 0x01
 1296 071a 0021     		movs r1, # 0
 1297 071c 00F0E9FF 		bl _xielcd
 1298 0720 00F0E2FF 		bl _lcdyanshi
 1299              	
 1300 0724 8020     		movs r0, # 0x80
 1301 0726 2449     		ldr r1, = jiaozhun_wancheng
 1302 0728 1022     		movs r2, # 16
 1303 072a 00F0CFFF 		bl _lcdxianshi
 1304 072e 00F0DBFF 		bl _lcdyanshi
 1305              	
 1306 0732 C020     		movs r0, # 0xc0
 1307 0734 2149     		ldr r1, = guan_ji
 1308 0736 1022     		movs r2, # 16
 1309 0738 00F0C8FF 		bl _lcdxianshi
 1310              		
 1311 073c C8BE     		bkpt # 200
 1312              	__jiaozhun_qiehuan_pinlv:	
 1313 073e 44E5     		b __pin_lv_jia
 1314 0740 38000020 		.ltorg
 1314      94000020 
 1314      88050000 
 1314      FFFFFF03 
 1314      20180000 
 1315              	
 1316              	
 1317              	__an_jian0:
 1318              	ting:
 1319 07c0 62E5     		b __dang_wei_jia
 1320              	
 1321              	
 1322              	
 1323              		
 1324 07c2 00F04BFD 		bl __jisuan_zukang
ARM GAS  1.s 			page 31


 1325 07c6 00F05BFE 		bl __xianshi_zukang
 1326 07ca F9E7     		b ting
 1327 07cc 00F08AF9 		bl __du_jiaozhun_biao
 1328 07d0 654E     		ldr r6, = z_r
 1329 07d2 664F     		ldr r7, = z_i
 1330 07d4 3068     		ldr r0, [r6]
 1331 07d6 3968     		ldr r1, [r7]
 1332 07d8 00F09BF9 		bl __xiang_wei_xuan_zhuan
 1333 07dc 644A     		ldr r2, = z_jiaozhun
 1334 07de 1268     		ldr r2, [r2]
 1335 07e0 5043     		muls r0, r0, r2
 1336 07e2 5143     		muls r1, r1, r2
 1337 07e4 C013     		asrs r0, r0, # 15
 1338 07e6 C913     		asrs r1, r1, # 15
 1339 07e8 3060     		str r0, [r6]
 1340 07ea 3960     		str r1, [r7]
 1341              		
 1342 07ec 00F048FE 		bl __xianshi_zukang
 1343 07f0 5D48     		ldr r0, = z_r
 1344 07f2 5E49     		ldr r1, = z_i
 1345 07f4 0068     		ldr r0, [r0]
 1346 07f6 0968     		ldr r1, [r1]
 1347 07f8 8010     		asrs r0, r0, # 2
 1348 07fa 8910     		asrs r1, r1, # 2
 1349 07fc 00F0BCFD 		bl __atan2_ji_suan
 1350 0800 C013     		asrs r0, r0, # 15
 1351 0802 C021     		movs r1, # 0xc0
 1352 0804 00F090FA 		bl __xian_shi_jiao_du
 1353 0808 8E20     		movs r0, # 0x8e
 1354 080a 5A4A     		ldr r2, = liangcheng
 1355 080c 5A49     		ldr r1, = zukang_danwei
 1356 080e 1268     		ldr r2, [r2]
 1357 0810 9200     		lsls r2, r2, # 2
 1358 0812 8918     		adds r1, r1, r2
 1359 0814 0222     		movs r2, # 2
 1360 0816 00F059FF 		bl _lcdxianshi
 1361              	
 1362              		
 1363 081a 5448     	        ldr r0, = z_i
 1364 081c 0068     		ldr r0, [r0]
 1365 081e 0000     		movs r0, r0
 1366 0820 23D4     		bmi __dianrong_xianshi
 1367              	__diangan_xianshi:
 1368 0822 5649     	        ldr r1, = 52151         @0.15915494309189535×3276
 1369 0824 4843     		muls r0, r0, r1
 1370 0826 C00B     		lsrs r0, r0, # 15
 1371 0828 5549     		ldr r1, = ls
 1372 082a 0860     		str r0, [r1]
 1373 082c 554A     		ldr r2, = pinlv
 1374 082e 5649     		ldr r1, = diangan_xiaoshudian
 1375 0830 1268     		ldr r2, [r2]
 1376 0832 9200     		lsls r2, r2, # 2
 1377 0834 8A58     		ldr r2, [r1, r2]
 1378 0836 4F49     		ldr r1, = liangcheng
 1379 0838 0968     		ldr r1, [r1]
 1380 083a 535C     		ldrb r3, [r2, r1]       @读出小数点位置
 1381 083c 0621     	        movs r1, # 6
ARM GAS  1.s 			page 32


 1382 083e 534A     		ldr r2, = asciimabiao
 1383 0840 00F092FF 		bl _zhuanascii
 1384 0844 C820     		movs r0, # 0xc8
 1385 0846 5149     		ldr r1, = asciimabiao
 1386 0848 0622     		movs r2, # 6
 1387 084a 00F03FFF 		bl _lcdxianshi
 1388              	
 1389 084e CE20     		movs r0, # 0xce
 1390 0850 4C4A     		ldr r2, = pinlv
 1391 0852 1268     		ldr r2, [r2]
 1392 0854 4E49     		ldr r1, = diangan_danwei
 1393 0856 9200     		lsls r2, r2, # 2
 1394 0858 8A58     		ldr r2, [r1, r2]
 1395 085a 4649     		ldr r1, = liangcheng
 1396 085c 0968     		ldr r1, [r1]
 1397 085e 8900     		lsls r1, r1, # 2
 1398 0860 5158     		ldr r1, [r2, r1]
 1399 0862 0222     		movs r2, # 2
 1400 0864 00F032FF 		bl _lcdxianshi
 1401              		
 1402 0868 21E0     		b ting_diaodu
 1403              	
 1404              	
 1405              	
 1406              		
 1407              	__dianrong_xianshi:
 1408 086a 00F027F8 		bl __jisuan_dianrong
 1409 086e 4948     		ldr r0, = cs
 1410 0870 0068     		ldr r0, [r0]
 1411 0872 444A     		ldr r2, = pinlv
 1412 0874 4849     		ldr r1, = dianrong_xiaoshudian
 1413 0876 1268     		ldr r2, [r2]
 1414 0878 9200     		lsls r2, r2, # 2
 1415 087a 8A58     		ldr r2, [r1, r2]
 1416 087c 3D49     		ldr r1, = liangcheng
 1417 087e 0968     		ldr r1, [r1]
 1418 0880 535C     		ldrb r3, [r2, r1]	@读出小数点位置
 1419 0882 0621     		movs r1, # 6
 1420 0884 414A     		ldr r2, = asciimabiao
 1421 0886 00F06FFF 		bl _zhuanascii
 1422 088a C820     		movs r0, # 0xc8
 1423 088c 3F49     		ldr r1, = asciimabiao
 1424 088e 0622     		movs r2, # 6
 1425 0890 00F01CFF 		bl _lcdxianshi
 1426              		
 1427 0894 CE20     	        movs r0, # 0xce
 1428 0896 3B4A     		ldr r2, = pinlv
 1429 0898 1268     		ldr r2, [r2]
 1430 089a 4049     		ldr r1, = dianrong_danwei
 1431 089c 9200     		lsls r2, r2, # 2
 1432 089e 8A58     		ldr r2, [r1, r2]
 1433 08a0 3449     		ldr r1, = liangcheng
 1434 08a2 0968     		ldr r1, [r1]
 1435 08a4 8900     		lsls r1, r1, # 2
 1436 08a6 5158     		ldr r1, [r2, r1]
 1437 08a8 0222     		movs r2, # 2
 1438 08aa 00F00FFF 		bl _lcdxianshi
ARM GAS  1.s 			page 33


 1439              	ting_diaodu:
 1440 08ae 00F073FA 	        bl __an_jian
 1441              		@__cai_dan_diao_du
 1442 08b2 8000     		lsls r0, r0, # 2
 1443 08b4 3A49     		ldr r1, = an_jian_biao
 1444 08b6 0A58     		ldr r2, [r1, r0]
 1445 08b8 9746     		mov pc, r2
 1446 08ba 81E7     		b ting
 1447              		
 1448              		
 1449              	__jisuan_dianrong:
 1450 08bc 06B5     		push {r1-r2,lr}
 1451              		@入口r0= z_i
 1452 08be 0146     		mov r1, r0
 1453 08c0 C943     		mvns  r1, r1
 1454 08c2 0131     		adds r1, r1, # 1
 1455 08c4 2F4A     		ldr r2, = pinlv
 1456 08c6 1268     		ldr r2, [r2]
 1457 08c8 3648     		ldr r0, = dianrong_weishu
 1458 08ca 9200     		lsls r2, r2, # 2
 1459 08cc 8258     		ldr r2, [r0, r2]
 1460 08ce 2948     		ldr r0, = liangcheng
 1461 08d0 0068     		ldr r0, [r0]
 1462 08d2 4000     		lsls r0, r0, # 1
 1463 08d4 125A     		ldrh r2, [r2, r0]
 1464 08d6 3448     		ldr r0, = 1591549431
 1465 08d8 5143     		muls r1, r1, r2
 1466 08da 01F042F8 		bl _chufa
 1467 08de 2D49     		ldr r1, = cs
 1468 08e0 0860     		str r0, [r1]
 1469 08e2 06BD     		pop {r1-r2,pc}
 1470              	dddd:
 1471 08e4 00F0BAFC 		bl __jisuan_zukang
 1472 08e8 304A     	        ldr r2, = z_r_jiaozhun
 1473 08ea 314B     		ldr r3, = z_i_jiaozhun
 1474 08ec 1068     		ldr r0, [r2]
 1475 08ee 1968     		ldr r1, [r3]
 1476 08f0 00F090F9 		bl __xiangwei_xuanzhuan
 1477 08f4 1E48     		ldr r0, = z_jiaozhun
 1478 08f6 0068     		ldr r0, [r0]
 1479 08f8 1B49     		ldr r1, = z_r
 1480 08fa 1C4A     		ldr r2, = z_i
 1481 08fc 0B68     		ldr r3, [r1]
 1482 08fe 1468     		ldr r4, [r2]
 1483 0900 4343     		muls r3, r3, r0
 1484 0902 4443     		muls r4, r4, r0
 1485 0904 DB13     		asrs r3, r3, # 15
 1486 0906 E413     		asrs r4, r4, # 15
 1487 0908 0B60     		str r3, [r1]
 1488 090a 1460     		str r4, [r2]
 1489 090c 00F0B8FD 		bl __xianshi_zukang
 1490              	
 1491 0910 1548     		ldr r0, = z_r
 1492 0912 1649     		ldr r1, = z_i
 1493 0914 0068     		ldr r0, [r0]
 1494 0916 0968     		ldr r1, [r1]
 1495 0918 00F02EFD 		bl __atan2_ji_suan
ARM GAS  1.s 			page 34


 1496 091c C013     		asrs r0, r0, # 15
 1497 091e C921     		movs r1, # 0xc9
 1498 0920 00F002FA 		bl __xian_shi_jiao_du
 1499 0924 00F0ACFD 		bl __xianshi_zukang
 1500 0928 DCE7     		b dddd
 1501              	
 1502              	
 1503              	
 1504              	
 1505              		
 1506 092a 04BE     		bkpt # 4
 1507 092c 0120     	        movs r0, # 0x01
 1508 092e 0021     		movs r1, # 0
 1509 0930 00F0DFFE 		bl _xielcd
 1510 0934 00F0D8FE 		bl _lcdyanshi
 1511 0938 42E7     		b ting
 1512              		
 1513              	
 1514              	
 1515              		
 1516 093a 00F08FFC 		bl __jisuan_zukang
 1517 093e 8E20     		movs r0, # 0x8e
 1518 0940 0C4A     		ldr r2, = liangcheng
 1519 0942 0D49     		ldr r1, = zukang_danwei
 1520 0944 1268     		ldr r2, [r2]
 1521 0946 9200     		lsls r2, r2, # 2
 1522 0948 8918     		adds r1, r1, r2
 1523 094a 0222     		movs r2, # 2
 1524 094c 00F0BEFE 		bl _lcdxianshi
 1525 0950 00F096FD 		bl __xianshi_zukang
 1526 0954 00F0D4FD 		bl __xianshi_liangcheng
 1527 0958 00F01EFA 	        bl __an_jian
 1528              	__cai_dan_diao_du:
 1529 095c 8000     		lsls r0, r0, # 2
 1530 095e 1049     		ldr r1, = an_jian_biao
 1531 0960 0A58     		ldr r2, [r1, r0]
 1532 0962 9746     		mov pc, r2
 1533 0964 2CE7     		b ting
 1534 0966 00003C00 		.ltorg
 1534      00204000 
 1534      00208C00 
 1534      00203800 
 1534      00202018 
 1535              	
 1536              	
 1537              	__suan_zukang:
 1538 09b4 CFB5     		push {r0-r3,r6-r7,lr}
 1539 09b6 6548     		ldr r0, = shangbi_r
 1540 09b8 6549     		ldr r1, = shangbi_i
 1541 09ba 664A     		ldr r2, = xiabi_r
 1542 09bc 664B     		ldr r3, = xiabi_i
 1543 09be 0068     		ldr r0, [r0]
 1544 09c0 0968     		ldr r1, [r1]
 1545 09c2 1268     		ldr r2, [r2]
 1546 09c4 1B68     		ldr r3, [r3]
 1547 09c6 03B4     		push {r0-r1}
 1548 09c8 00F0D6FC 		bl __atan2_ji_suan
ARM GAS  1.s 			page 35


 1549 09cc 01B4     		push {r0}
 1550 09ce 1046     		mov r0, r2
 1551 09d0 1946     		mov r1, r3
 1552 09d2 00F0D1FC 		bl __atan2_ji_suan
 1553 09d6 0646     		mov r6, r0
 1554 09d8 01BC     		pop {r0}
 1555 09da 861B     		subs r6, r0, r6         @jiaodu_cha
 1556 09dc 1046     		mov r0, r2
 1557 09de 1946     		mov r1, r3
 1558 09e0 00F02CFD 		bl __ji_suan_fu_du
 1559 09e4 0746     		mov r7, r0
 1560 09e6 03BC     		pop {r0-r1}
 1561 09e8 00F028FD 		bl __ji_suan_fu_du
 1562 09ec 5B49     		ldr r1, = 10000
 1563 09ee 4843     		muls r0, r0, r1
 1564 09f0 3946     		mov r1, r7
 1565 09f2 00F0B6FF 		bl _chufa
 1566 09f6 0746     		mov r7, r0
 1567 09f8 3046     		mov r0, r6
 1568 09fa 0000     		movs r0, r0
 1569 09fc 01D5     		bpl __jiaodu_shi_zheng
 1570 09fe 5849     		ldr r1, = 36000
 1571 0a00 0844     		add r0, r0, r1
 1572              	__jiaodu_shi_zheng:
 1573 0a02 00F064FC 		bl __jisuan_cos_sin
 1574 0a06 7843     		muls r0, r0, r7
 1575 0a08 7943     		muls r1, r1, r7
 1576 0a0a C013     		asrs r0, r0, # 15
 1577 0a0c C913     		asrs r1, r1, # 15
 1578 0a0e 5548     		ldr r0, = z_r
 1579 0a10 554B     		ldr r3, = z_i
 1580 0a12 1960     		str r1, [r3]
 1581 0a14 0260     		str r2, [r0]
 1582 0a16 CFBD     		pop {r0-r3,r6-r7,pc}
 1583              	
 1584              	__suan_atan2:
 1585              		@入口R0=实部，R1=虚部
 1586              		@出口R0=角度
 1587 0a18 7CB5     		push {r2-r6,lr}
 1588 0a1a 544E     		ldr r6, = atan_biao
 1589 0a1c 0022     		movs r2, # 0
 1590 0a1e 1346     		mov r3, r2
 1591 0a20 0000     		movs r0, r0
 1592 0a22 04D5     		bpl __panduan_xubu
 1593 0a24 524A     		ldr r2, = 5898240
 1594 0a26 C043     		mvns r0, r0
 1595 0a28 C943     		mvns r1, r1
 1596 0a2a 0130     		adds r0, r0, # 1
 1597 0a2c 0131     		adds r1, r1, # 1
 1598              	__panduan_xubu:
 1599 0a2e 0900     		movs r1, r1
 1600 0a30 00D5     		bpl __suan_atan2_xunhuan
 1601 0a32 504A     		ldr r2, = 11796480
 1602              	__suan_atan2_xunhuan:
 1603 0a34 0900     		movs r1, r1
 1604 0a36 0AD5     		bpl __atan2_zhengzhuan
 1605 0a38 0446     		mov r4, r0	@x
ARM GAS  1.s 			page 36


 1606 0a3a 0D46     		mov r5, r1	@y
 1607 0a3c 1D41     		asrs r5, r5, r3
 1608 0a3e 1C41     		asrs r4, r4, r3
 1609 0a40 401B     		subs r0, r0, r5
 1610 0a42 0919     		adds r1, r1, r4
 1611 0a44 1C46     		mov r4, r3
 1612 0a46 A400     		lsls r4, r4, # 2
 1613 0a48 3459     		ldr r4, [r6, r4]
 1614 0a4a 121B     		subs r2, r2, r4
 1615 0a4c 09E0     		b __atan2_xuanzhuan
 1616              	__atan2_zhengzhuan:
 1617 0a4e 0446     		mov r4, r0	@x
 1618 0a50 0D46     		mov r5, r1	@y
 1619 0a52 1D41     		asrs r5, r5, r3
 1620 0a54 1C41     		asrs r4, r4, r3
 1621 0a56 4019     		adds r0, r0, r5
 1622 0a58 091B     		subs r1, r1, r4
 1623 0a5a 1C46     		mov r4, r3
 1624 0a5c A400     		lsls r4, r4, # 2
 1625 0a5e 3459     		ldr r4, [r6, r4]
 1626 0a60 1219     		adds r2, r2, r4
 1627              	__atan2_xuanzhuan:
 1628 0a62 0133     		adds r3, r3, # 1
 1629 0a64 152B     		cmp r3, # 21
 1630 0a66 E5D1     		bne __suan_atan2_xunhuan
 1631 0a68 0146     		mov r1, r0
 1632 0a6a 1046     		mov r0,r2
 1633 0a6c 7CBD     		pop {r2-r6,pc}
 1634              	
 1635              	
 1636              	
 1637              	
 1638              		
 1639              	__suan_cos_sin:
 1640              		@入口R0=0*32768到360*32768
 1641              		@出口R0=COS，R1=SIN
 1642              		@增益 32768*0.6072529350088812561694
 1643 0a6e FCB5     		push {r2-r7,lr}
 1644 0a70 4149     		ldr r1, = 0x4dba
 1645 0a72 424A     		ldr r2, = 2949120	@90
 1646 0a74 424B     		ldr r3, = 8847360	@270
 1647 0a76 3D4F     		ldr r7, = atan_biao
 1648 0a78 0025     		movs r5, # 0
 1649 0a7a 2E46     		mov r6, r5
 1650 0a7c 9042     		cmp r0, r2
 1651 0a7e 01D8     		bhi __dayu_90
 1652 0a80 0024     		movs r4, # 0
 1653 0a82 04E0     		b __suan_cos_sin_xunhuan
 1654              	__dayu_90:
 1655 0a84 9842     		cmp r0, r3
 1656 0a86 01D8     		bhi __dayu_270
 1657 0a88 394C     		ldr r4, = 5898240	@180
 1658 0a8a 00E0     		b __suan_cos_sin_xunhuan
 1659              	__dayu_270:
 1660 0a8c 394C     		ldr r4, = 11796480 	@360
 1661              	__suan_cos_sin_xunhuan:
 1662 0a8e 2346     		mov r3, r4
ARM GAS  1.s 			page 37


 1663 0a90 0246     		mov r2, r0
 1664 0a92 D21A     		subs r2, r2, r3
 1665 0a94 0AD4     		bmi __zhengzhuan
 1666              	__fanzhuan:	
 1667 0a96 3346     		mov r3, r6
 1668 0a98 0A46     		mov r2, r1
 1669 0a9a 2E41     		asrs r6, r6, r5
 1670 0a9c 921B     		subs r2, r2, r6	@x
 1671 0a9e 2941     		asrs r1, r1, r5
 1672 0aa0 2E46     		mov r6, r5
 1673 0aa2 B600     		lsls r6, r6, # 2
 1674 0aa4 BE59     		ldr r6, [r7, r6]
 1675 0aa6 5B18     		adds r3, r3, r1	@y
 1676 0aa8 A419     		adds r4, r4, r6	@jiaodu
 1677 0aaa 09E0     		b __cordic_xuanzhuan
 1678              	__zhengzhuan:
 1679 0aac 3346     		mov r3, r6
 1680 0aae 0A46     		mov r2, r1
 1681 0ab0 2E41     		asrs r6, r6, r5
 1682 0ab2 9219     		adds r2, r2, r6	@x
 1683 0ab4 2941     		asrs r1, r1, r5
 1684 0ab6 2E46     		mov r6, r5
 1685 0ab8 B600     		lsls r6, r6, # 2
 1686 0aba BE59     		ldr r6, [r7, r6]
 1687 0abc 5B1A     		subs r3, r3, r1	@y
 1688 0abe A41B     		subs r4, r4, r6	@jiaodu
 1689              	__cordic_xuanzhuan:
 1690 0ac0 1146     		mov r1, r2
 1691 0ac2 1E46     		mov r6, r3
 1692 0ac4 0135     		adds r5, r5, # 1
 1693 0ac6 152D     		cmp r5, # 21
 1694 0ac8 E1D1     		bne __suan_cos_sin_xunhuan
 1695 0aca 2C4E     		ldr r6, = 2949120	@90
 1696 0acc 2C4F     		ldr r7, = 8847360      @270
 1697 0ace B042     		cmp r0, r6
 1698 0ad0 05D9     		bls __suan_cos_sin_fanhui
 1699 0ad2 B842     		cmp r0, r7
 1700 0ad4 03D2     		bcs __suan_cos_sin_fanhui
 1701 0ad6 D243     		mvns r2, r2
 1702 0ad8 DB43     		mvns r3, r3
 1703 0ada 0132     		adds r2, r2, # 1
 1704 0adc 0133     		adds r3, r3, # 1
 1705              	__suan_cos_sin_fanhui:	
 1706 0ade 1946     		mov r1, r3
 1707 0ae0 1046     		mov r0, r2
 1708 0ae2 FCBD     		pop {r2-r7,pc}
 1709              		
 1710              		
 1711              	__du_jiaozhun_biao:
 1712 0ae4 0FB5     		push {r0-r3,lr}
 1713 0ae6 2748     		ldr r0, = 0x8003800
 1714 0ae8 274A     		ldr r2, = liangcheng
 1715 0aea 2849     		ldr r1, = pinlv
 1716 0aec 1268     		ldr r2, [r2]
 1717 0aee 0968     		ldr r1, [r1]
 1718 0af0 0323     		movs r3, # 3
 1719 0af2 5A43     		muls r2, r2, r3
ARM GAS  1.s 			page 38


 1720 0af4 1201     		lsls r2, r2, # 4
 1721 0af6 0C23     		movs r3, # 0x0c
 1722 0af8 5943     		muls r1, r1, r3
 1723 0afa 8918     		adds r1, r1, r2
 1724 0afc 4018     		adds r0, r0, r1
 1725 0afe 244B     		ldr r3, = z_i_jiaozhun
 1726 0b00 4168     		ldr r1, [r0, # 4]	@sin
 1727 0b02 8268     		ldr r2, [r0, # 8]	@幅度
 1728 0b04 1960     		str r1, [r3]
 1729 0b06 234B     		ldr r3, = z_jiaozhun
 1730 0b08 0068     		ldr r0, [r0]		@cos
 1731 0b0a 1A60     		str r2, [r3]
 1732 0b0c 224B     		ldr r3, = z_r_jiaozhun
 1733 0b0e 1860     		str r0, [r3]
 1734 0b10 0FBD     		pop {r0-r3,pc}
 1735              	__xiang_wei_xuan_zhuan:
 1736              		@入口R0=R R1=I
 1737 0b12 FCB5     		push {r2-r7,lr}
 1738 0b14 0346     		mov r3, r0
 1739 0b16 0846     		mov r0, r1
 1740 0b18 1F4C     		ldr r4, = z_r_jiaozhun         @cos
 1741 0b1a 1D4D     		ldr r5, = z_i_jiaozhun         @sin
 1742 0b1c 2468     		ldr r4, [r4]
 1743 0b1e 2D68     		ldr r5, [r5]
 1744 0b20 2400     		movs r4, r4
 1745 0b22 03D5     		bpl __xuan_zhuan_xiang_wei
 1746 0b24 2646     		mov r6, r4
 1747 0b26 2F46     		mov r7, r5
 1748 0b28 3C46     		mov r4, r7
 1749 0b2a 3546     		mov r5, r6
 1750              	__xuan_zhuan_xiang_wei:
 1751 0b2c 2646     		mov r6, r4
 1752 0b2e 2F46     		mov r7, r5
 1753 0b30 5C43     		muls r4, r4, r3         @x*cos
 1754 0b32 4643     		muls r6, r6, r0         @y*cos
 1755 0b34 5D43     		muls r5, r5, r3         @x*sin
 1756 0b36 4743     		muls r7, r7, r0         @y*sin
 1757 0b38 E413     		asrs r4, r4, # 15
 1758 0b3a ED13     		asrs r5, r5, # 15
 1759 0b3c F613     		asrs r6, r6, # 15
 1760 0b3e FF13     		asrs r7, r7, # 15
 1761              	
 1762 0b40 E41B     		subs r4, r4, r7         @x
 1763 0b42 7619     		adds r6, r6, r5         @y
 1764 0b44 3146     		mov r1, r6		@i
 1765 0b46 2046     		mov r0, r4		@r
 1766 0b48 FCBD     		pop {r2-r7,pc}
 1767 0b4a 00002400 		.ltorg
 1767      00202800 
 1767      00202C00 
 1767      00203000 
 1767      00201027 
 1768              	@__xie_flash:
 1769              		@FPEC解锁
 1770              	 @       ldr r4, = fjiesuo
 1771              	@	movs r5, # 3
 1772              	@	add r5, r5, pc
ARM GAS  1.s 			page 39


 1773              	@	mov lr, r5
 1774              	@	mov pc, r4
 1775              	@	OPTWRE解锁
 1776              	@	ldr r4, = ojiesuo
 1777              	@	movs r5, # 3
 1778              	@	add r5, r5, pc
 1779              	@	mov lr, r5
 1780              	@	mov pc, r4
 1781              	@	页擦除
 1782              	@
 1783              	@	ldr r4, = yeca
 1784              	@	ldr r0, = 0x8003c00
 1785              	@	movs r5, # 3
 1786              	@	add r5, r5, pc
 1787              	@	mov lr, r5
 1788              	@	mov pc, r4
 1789              	@	写FLASH
 1790              	@	ldr r4, = xieflash
 1791              	@	ldr r0, = 0x8003c00
 1792              	@	ldr r1, = 0x12345678
 1793              	@	movs r5, # 3
 1794              	@	add r5,  r5, pc
 1795              	@	mov lr, r5
 1796              	@	mov pc, r4
 1797              		
 1798              	_adcchushihua:
 1799              		@入口R3=1连续模式，0触发模式
 1800 0b9c 012B     		cmp r3, # 1
 1801 0b9e 01D0     		beq __adc_lianxu
 1802 0ba0 A94B     		ldr r3, = 0x8c3
 1803 0ba2 00E0     		b __adc_chushi_hua
 1804              	__adc_lianxu:
 1805 0ba4 A94B     		ldr r3, = 0x2003
 1806              	__adc_chushi_hua:	
 1807 0ba6 AA48     		ldr r0, = 0x40012400  @ adc基地址
 1808 0ba8 AA49     		ldr r1, = 0x80000000
 1809 0baa 8160     		str r1, [r0, # 0x08]  @ ADC 控制寄存器 (ADC_CR)  @adc校准
 1810              	_dengadcjiaozhun:
 1811 0bac 8168     		ldr r1, [r0, # 0x08]
 1812 0bae 0900     		movs r1, r1
 1813 0bb0 FCD4     		bmi _dengadcjiaozhun   @ 等ADC校准
 1814 0bb2 0121     		movs r1, # 1
 1815 0bb4 0160     		str r1, [r0]
 1816              	_kaiadc:
 1817 0bb6 8168     		ldr r1, [r0, # 0x08]
 1818 0bb8 0122     		movs r2, # 0x01
 1819 0bba 1143     		orrs r1, r1, r2
 1820 0bbc 8160     		str r1, [r0, # 0x08]
 1821              	_deng_adc_wen_ding:
 1822 0bbe 0168     		ldr r1, [r0]
 1823 0bc0 C907     		lsls r1, r1, # 31
 1824 0bc2 FCD5     		bpl _deng_adc_wen_ding @ 等ADC稳定
 1825              	_tongdaoxuanze:
 1826 0bc4 A349     		ldr r1, = 0x80000000
 1827 0bc6 0161     		str r1, [r0, # 0x10]
 1828 0bc8 A349     		ldr r1, = 0x01
 1829 0bca 8162     		str r1, [r0, # 0x28]    @ 通道选择寄存器 (ADC_CHSELR)
ARM GAS  1.s 			page 40


 1830              	@	ldr r1, = 0x2003 @0x8c3 @ 0xc43         @TIM3 0x8c3 @0x2003 @0x8c3
 1831 0bcc C360     		str r3, [r0, # 0x0c]    @ 配置寄存器 1 (ADC_CFGR1)
 1832 0bce 0021     		movs r1, # 0
 1833 0bd0 4161     		str r1, [r0, # 0x14]    @ ADC 采样时间寄存器 (ADC_SMPR)
 1834 0bd2 8168     		ldr r1, [r0, # 0x08]
 1835 0bd4 A14A     		ldr r2, = 0x04         @ 开始转换
 1836 0bd6 1143     		orrs r1, r1, r2
 1837 0bd8 8160     		str r1, [r0, # 0x08]    @ 控制寄存器 (ADC_CR)
 1838 0bda F746     		mov pc, lr
 1839              	
 1840              	
 1841              	
 1842              		
 1843              	__jiaozhun_fudu:
 1844              		@入口 R0=期望幅度
 1845              		@出口R0= 幅度校准值
 1846 0bdc 7EB5     		push {r1-r6,lr}
 1847 0bde 0246     		mov r2, r0
 1848 0be0 9F48     		ldr r0, = z_r
 1849 0be2 A049     		ldr r1, = z_i
 1850 0be4 0068     		ldr r0, [r0]
 1851 0be6 0968     		ldr r1, [r1]
 1852 0be8 00F028FC 		bl __ji_suan_fu_du
 1853 0bec 0021     		movs r1, # 0
 1854 0bee 9E4B     		ldr r3, = jiaozhun_yong_cordic
 1855 0bf0 9E4D     		ldr r5, = 32768
 1856 0bf2 0646     		mov r6, r0
 1857              	__fudu_jiaozhun_xunhuan:
 1858 0bf4 5C58     		ldr r4, [r3, r1]
 1859 0bf6 8242     		cmp r2, r0
 1860 0bf8 01D3     		bcc __fudu_jian
 1861              	__fudu_jia:
 1862 0bfa 2D19     		adds r5, r5, r4
 1863 0bfc 00E0     		b __jiaozhun_xuanzhuan
 1864              	__fudu_jian:
 1865 0bfe 2D1B     		subs r5, r5, r4
 1866              	__jiaozhun_xuanzhuan:
 1867 0c00 3046     		mov r0, r6
 1868 0c02 6843     		muls r0, r0, r5
 1869 0c04 C00B     		lsrs r0, r0, # 15
 1870 0c06 0431     		adds r1, r1, # 4
 1871 0c08 7829     		cmp r1, # 120
 1872 0c0a F3D1     		bne __fudu_jiaozhun_xunhuan
 1873              	__baocun_fudu_jiaozhun:
 1874 0c0c 2800     		movs r0, r5
 1875 0c0e 00D5     		bpl __jiaozhun_fudu_fanhui
 1876 0c10 9648     		ldr r0, = 32768
 1877              	__jiaozhun_fudu_fanhui:
 1878 0c12 7EBD     		pop {r1-r6,pc}
 1879              		
 1880              		
 1881              	__xiangwei_xuanzhuan:
 1882 0c14 FCB5     		push {r2-r7,lr}
 1883 0c16 924A     		ldr r2, = z_r
 1884 0c18 924B     		ldr r3, = z_i
 1885 0c1a 1468     		ldr r4, [r2]
 1886 0c1c 1D68     		ldr r5, [r3]
ARM GAS  1.s 			page 41


 1887 0c1e 0646     		mov r6, r0
 1888 0c20 0F46     		mov r7, r1
 1889 0c22 6043     	        muls r0, r0, r4 @X*COS
 1890 0c24 6F43     		muls r7, r7, r5 @Y*SIN
 1891 0c26 6143     		muls r1, r1, r4 @X*SIN
 1892 0c28 6E43     		muls r6, r6, r5 @Y*COS
 1893 0c2a C01B     		subs r0, r0, r7
 1894 0c2c 7118     		adds r1, r6, r1
 1895 0c2e C013     		asrs r0, r0, # 15
 1896 0c30 C913     		asrs r1, r1, # 15
 1897 0c32 1060     		str r0, [r2]
 1898 0c34 1960     		str r1, [r3]
 1899 0c36 FCBD     		pop {r2-r7,pc}
 1900              	
 1901              	__jiaozhun_jiaodu:
 1902              		@入口r0=期望角度
 1903              		@出口R0=COS，R1=SIN
 1904 0c38 FCB5     		push {r2-r7,lr}
 1905 0c3a 4346     		mov r3, r8
 1906 0c3c 4C46     		mov r4, r9
 1907 0c3e 5546     		mov r5, r10
 1908 0c40 5E46     		mov r6, r11
 1909 0c42 6746     		mov r7, r12
 1910 0c44 F8B4     		push {r3-r7}
 1911 0c46 8446     		mov r12, r0
 1912 0c48 8848     		ldr r0, = 32768	@180度
 1913 0c4a 0021     		movs r1, # 0
 1914 0c4c 8046     		mov r8, r0
 1915 0c4e 8946     		mov r9, r1
 1916 0c50 8348     		ldr r0, = z_r
 1917 0c52 8449     		ldr r1, = z_i
 1918 0c54 0668     		ldr r6, [r0]
 1919 0c56 0F68     		ldr r7, [r1]
 1920 0c58 854B     		ldr r3, = jiaodu_jiaozhun_yong_cordic
 1921 0c5a 0022     		movs r2, # 0
 1922              	__jiaodu_jiaozhun_xunhuan:
 1923 0c5c 9C58     		ldr r4, [r3, r2]
 1924 0c5e 0432     		adds r2, r2, # 4
 1925 0c60 9D58     		ldr r5, [r3, r2]
 1926 0c62 3046     		mov r0, r6
 1927 0c64 3946     		mov r1, r7
 1928 0c66 00F087FB 		bl __atan2_ji_suan
 1929 0c6a C013     		asrs r0, r0, # 15
 1930 0c6c 6146     		mov r1, r12
 1931 0c6e 401A     		subs r0, r0, r1
 1932 0c70 1CD4     		bmi __jiaodu_fanzhuan
 1933 0c72 B246     		mov r10, r6
 1934 0c74 BB46     		mov r11, r7
 1935 0c76 4646     		mov r6, r8
 1936 0c78 4F46     		mov r7, r9
 1937 0c7a 3046     		mov r0, r6
 1938 0c7c 3946     		mov r1, r7
 1939 0c7e 6643     		muls r6, r6, r4 @X*COS
 1940 0c80 6943     		muls r1, r1, r5 @Y*SIN
 1941 0c82 6843     		muls r0, r0, r5 @X*SIN
 1942 0c84 6743     		muls r7, r7, r4 @Y*COS
 1943 0c86 7618     		adds r6, r6, r1
ARM GAS  1.s 			page 42


 1944 0c88 3F1A     		subs r7, r7, r0
 1945 0c8a F613     		asrs r6, r6, # 15
 1946 0c8c FF13     		asrs r7, r7, # 15
 1947 0c8e B046     		mov r8, r6
 1948 0c90 B946     		mov r9, r7
 1949 0c92 5646     		mov r6, r10
 1950 0c94 5F46     		mov r7, r11
 1951 0c96 3046     		mov r0, r6
 1952 0c98 3946     		mov r1, r7
 1953 0c9a 6643     		muls r6, r6, r4	@X*COS
 1954 0c9c 6943     		muls r1, r1, r5	@Y*SIN
 1955 0c9e 6843     		muls r0, r0, r5	@X*SIN
 1956 0ca0 6743     		muls r7, r7, r4	@Y*COS
 1957 0ca2 7618     		adds r6, r6, r1
 1958 0ca4 3F1A     		subs r7, r7, r0
 1959 0ca6 F613     		asrs r6, r6, # 15
 1960 0ca8 FF13     		asrs r7, r7, # 15
 1961 0caa 1BE0     		b __jiaodu_xuanzhuan
 1962              	__jiaodu_fanzhuan:
 1963 0cac B246     		mov r10, r6
 1964 0cae BB46     		mov r11, r7
 1965 0cb0 4646     		mov r6, r8
 1966 0cb2 4F46     		mov r7, r9
 1967 0cb4 3046     		mov r0, r6
 1968 0cb6 3946     		mov r1, r7
 1969 0cb8 6643     		muls r6, r6, r4 @X*COS
 1970 0cba 6943     		muls r1, r1, r5 @Y*SIN
 1971 0cbc 6843     		muls r0, r0, r5 @X*SIN
 1972 0cbe 6743     		muls r7, r7, r4 @Y*COS
 1973 0cc0 761A     		subs r6, r6, r1
 1974 0cc2 3F18     		adds r7, r7, r0
 1975 0cc4 F613     		asrs r6, r6, # 15
 1976 0cc6 FF13     		asrs r7, r7, # 15
 1977 0cc8 B046     		mov r8, r6
 1978 0cca B946     		mov r9, r7
 1979 0ccc 5646     		mov r6, r10
 1980 0cce 5F46     		mov r7, r11
 1981 0cd0 3046     		mov r0, r6
 1982 0cd2 3946     		mov r1, r7
 1983 0cd4 6643     		muls r6, r6, r4 @X*COS
 1984 0cd6 6943     		muls r1, r1, r5 @Y*SIN
 1985 0cd8 6843     		muls r0, r0, r5 @X*SIN
 1986 0cda 6743     		muls r7, r7, r4 @Y*COS
 1987 0cdc 761A     		subs r6, r6, r1
 1988 0cde 3F18     		adds r7, r7, r0
 1989 0ce0 F613     		asrs r6, r6, # 15
 1990 0ce2 FF13     		asrs r7, r7, # 15
 1991              	__jiaodu_xuanzhuan:
 1992 0ce4 0432     		adds r2, r2, # 4
 1993 0ce6 F02A     		cmp r2, # 240
 1994 0ce8 B8D1     		bne __jiaodu_jiaozhun_xunhuan
 1995 0cea 4046     		mov r0, r8
 1996 0cec 4946     		mov r1, r9
 1997 0cee F8BC     		pop {r3-r7}
 1998 0cf0 9846     		mov r8, r3
 1999 0cf2 A146     		mov r9, r4
 2000 0cf4 AA46     		mov r10, r5
ARM GAS  1.s 			page 43


 2001 0cf6 B346     		mov r11, r6
 2002 0cf8 BC46     		mov r12, r7
 2003 0cfa FCBD     		pop {r2-r7,pc}
 2004              			
 2005              	__xianshi_shangxiabi_jiaodu:
 2006 0cfc 0FB5     		push {r0-r3,lr}
 2007 0cfe 5D48     		ldr r0, = shangbi_r
 2008 0d00 5D49     		ldr r1, = shangbi_i
 2009 0d02 0068     		ldr r0, [r0]
 2010 0d04 0968     		ldr r1, [r1]
 2011 0d06 00F037FB 		bl __atan2_ji_suan
 2012 0d0a C013     		asrs r0, r0, # 15
 2013 0d0c 8821     		movs r1, # 0x88	@ 显示位置
 2014 0d0e 00F00BF8 		bl __xian_shi_jiao_du
 2015 0d12 5A48     		ldr r0, = xiabi_r
 2016 0d14 5A49     		ldr r1, = xiabi_i
 2017 0d16 0068     		ldr r0, [r0]
 2018 0d18 0968     		ldr r1, [r1]
 2019 0d1a 00F02DFB 		bl __atan2_ji_suan
 2020 0d1e C013     		asrs r0, r0, # 15
 2021 0d20 C821     		movs r1, # 0xc8 @ 显示位置
 2022 0d22 00F001F8 		bl __xian_shi_jiao_du
 2023 0d26 0FBD     		pop {r0-r3,pc}
 2024              	
 2025              		
 2026              	__xian_shi_jiao_du:
 2027              		@入口R0=角度 r1=要显示的位置
 2028 0d28 3FB5     		push {r0-r5,lr}
 2029 0d2a 0446     		mov r4, r0
 2030 0d2c 0D46     		mov r5, r1
 2031 0d2e 2846     		mov r0, r5
 2032 0d30 0730     		adds r0, r0, # 7
 2033 0d32 5449     		ldr r1, = jiaodufuhao
 2034 0d34 0122     		movs r2, # 1
 2035 0d36 00F0C9FC 		bl _lcdxianshi
 2036              	
 2037 0d3a 2400     		movs r4, r4
 2038 0d3c 07D5     		bpl __jiaodu_bu_shi_zheng
 2039 0d3e 2846     		mov r0, r5
 2040 0d40 5149     		ldr r1, = _fu
 2041 0d42 0122     		movs r2, # 1
 2042 0d44 00F0C2FC 		bl _lcdxianshi
 2043 0d48 E443     		mvns r4, r4
 2044 0d4a 0134     		adds r4, r4, # 1
 2045 0d4c 04E0     		b __xian_shi_jiaodu
 2046              	__jiaodu_bu_shi_zheng:
 2047 0d4e 2846     		mov r0, r5
 2048 0d50 4E49     		ldr r1, = kong
 2049 0d52 0122     		movs r2, # 1
 2050 0d54 00F0BAFC 		bl _lcdxianshi
 2051              	__xian_shi_jiaodu:
 2052 0d58 2046     		mov r0, r4
 2053 0d5a 0621     		movs r1, # 6
 2054 0d5c 4C4A     		ldr r2, = asciimabiao
 2055 0d5e 0323     		movs r3, # 3
 2056 0d60 00F002FD 		bl _zhuanascii
 2057 0d64 2846     		mov r0, r5
ARM GAS  1.s 			page 44


 2058 0d66 0130     		adds r0, r0, # 1
 2059 0d68 4949     		ldr r1, = asciimabiao
 2060 0d6a 0622     		movs r2, # 6
 2061 0d6c 00F0AEFC 		bl _lcdxianshi
 2062 0d70 3FBD     		pop {r0-r5,pc}
 2063              		
 2064              	__jiaozhun_shu_zhi:
 2065              		@入口R0=期望值，R1=当前值
 2066 0d72 7CB5     		push {r2-r6,lr}
 2067 0d74 3C4B     		ldr r3, = jiaozhun_yong_cordic
 2068 0d76 3D4D     		ldr r5, = 32768
 2069 0d78 0E46     		mov r6, r1
 2070 0d7a 0022     		movs r2, # 0
 2071              	__z_jiaozhun_xunhuan:
 2072 0d7c 9C58     		ldr r4, [r3, r2]
 2073 0d7e 8842     		cmp r0, r1
 2074 0d80 01D3     		bcc __z_jian
 2075              	__z_jia:
 2076 0d82 2D19     		adds r5, r5, r4
 2077 0d84 00E0     		b __z_xuanzhuan
 2078              	__z_jian:
 2079 0d86 2D1B     		subs r5, r5, r4
 2080              	__z_xuanzhuan:
 2081 0d88 3146     		mov r1, r6
 2082 0d8a 6943     		muls r1, r1, r5
 2083 0d8c C90B     		lsrs r1, r1, # 15
 2084 0d8e 0432     		adds r2, r2, # 4
 2085 0d90 782A     		cmp r2, # 120
 2086 0d92 F3D1     		bne __z_jiaozhun_xunhuan
 2087              	__baocun_z_jiaozhun:
 2088 0d94 2846     		mov r0, r5
 2089 0d96 7CBD     		pop {r2-r6,pc}
 2090              	
 2091              		
 2092              			
 2093              		
 2094              		
 2095              	__an_jian:
 2096 0d98 02B5     		push {r1,lr}
 2097 0d9a 3E49     		ldr r1, = 0x48000010
 2098 0d9c 0868     		ldr r0, [r1]	@pa13 pa14
 2099 0d9e C043     		mvns r0, r0
 2100 0da0 4004     		lsls r0, r0, # 17
 2101 0da2 800F     		lsrs r0, r0, # 30
 2102 0da4 02BD     		pop {r1,pc}
 2103              	__pinlv_shezhi:
 2104              		@入口R0
 2105              		@0=100, 1=1KHZ, 2=10KHZ, 3=100KHZ
 2106 0da6 0FB5     		push {r0-r3,lr}
 2107 0da8 3B49     		ldr r1, = shezhi_pinlv
 2108 0daa 0122     		movs r2, # 1
 2109 0dac 0A60     		str r2, [r1]
 2110 0dae 3B4A     		ldr r2, = pinlv
 2111 0db0 3B49     		ldr r1, = pinlv_biao
 2112 0db2 1268     		ldr r2, [r2]
 2113 0db4 9200     	        lsls r2, r2, # 2
 2114 0db6 8A58     		ldr r2, [r1, r2]
ARM GAS  1.s 			page 45


 2115 0db8 9746     		mov pc, r2
 2116              		
 2117              	__pinlv_100:
 2118              		@tim1ch3DMA
 2119 0dba 3A48     		ldr r0, = 0x40020000
 2120 0dbc 3A49     		ldr r1, = 1000
 2121 0dbe 8165     		str r1, [r0, # 0x58]
 2122 0dc0 3A49     		ldr r1, = 0x40012c3c @ 外设地址
 2123 0dc2 0166     		str r1, [r0, # 0x60]
 2124 0dc4 3A49     		ldr r1, = zheng_xian_100hz @ 储存器地址
 2125              	@	ldr r2, = 160
 2126              	@	lsls r2, r2, # 1
 2127              	@	adds r1, r1, r2
 2128 0dc6 4166     		str r1, [r0, # 0x64]
 2129 0dc8 3749     		ldr r1, = 1000             @点数
 2130 0dca C165     		str r1, [r0, # 0x5c]
 2131 0dcc 3949     		ldr r1, = 0x35b1         @ 储存到外设
 2132 0dce 8165     		str r1, [r0, # 0x58]
 2133              		
 2134              	        @ adc dma
 2135 0dd0 3949     		ldr r1, = 0x40012440
 2136 0dd2 0161     		str r1, [r0, # 0x10]
 2137 0dd4 0021     		movs r1, # 0
 2138 0dd6 8160     		str r1, [r0, # 0x08]
 2139 0dd8 3849     		ldr r1, = dianyabiao
 2140 0dda 4161     		str r1, [r0, # 0x14]
 2141 0ddc 3249     		ldr r1, = 1000
 2142 0dde C160     		str r1, [r0, # 0x0c]
 2143 0de0 3749     		ldr r1, = 0x5a1 @  0x583        @ 5a1
 2144 0de2 8160     		str r1, [r0, # 0x08]
 2145              		
 2146              		@tim3chushihua:
 2147 0de4 374B     		ldr r3, = 0x40000400 @ tim3_cr1
 2148 0de6 384A     		ldr r2, = 0
 2149 0de8 9A62     		str r2, [r3, # 0x28] @ psc
 2150 0dea 384A     		ldr r2, = 11199
 2151 0dec DA62     		str r2, [r3, # 0x2c] @ ARR
 2152 0dee 2022     		movs r2, # 0x20
 2153 0df0 5A60     		str r2, [r3, # 0x04] @ TRGO
 2154 0df2 0622     		movs r2, # 0x06
 2155 0df4 9A60     		str r2, [r3, # 0x08]
 2156 0df6 8022     		movs r2, # 0x80
 2157              		@tim1chushiha:
 2158 0df8 3548     		ldr r0, = 0x40012c00 @ tim1_cr1
 2159 0dfa 0021     		movs r1, # 0
 2160 0dfc 8162     		str r1, [r0, # 0x28] @ psc
 2161 0dfe 3549     		ldr r1, = 559
 2162 0e00 C162     		str r1, [r0, # 0x2c] @ ARR
 2163 0e02 2021     		movs r1, # 0x20
 2164 0e04 4160     		str r1, [r0, # 0x04] @ TRGO
 2165 0e06 3449     		ldr r1, = 0x68
 2166 0e08 C161     		str r1, [r0, # 0x1c] @ ccmr2  CC3
 2167 0e0a 3449     		ldr r1, = 0x100    @  CC3
 2168 0e0c 0162     		str r1, [r0, # 0x20] @ ccer
 2169 0e0e 1749     		ldr r1, = 0x8000
 2170 0e10 4164     		str r1, [r0, # 0x44] @ BDTR
 2171 0e12 3349     		ldr r1, = 0x800 @ CC3 DMA
ARM GAS  1.s 			page 46


 2172 0e14 C160     		str r1, [r0, # 0x0c] @ DIER
 2173 0e16 3349     		ldr r1, = 0x81
 2174 0e18 0160     		str r1, [r0]
 2175 0e1a 1A60     		str r2, [r3]
 2176 0e1c 3248     		ldr r0, = 0xe000e010
 2177 0e1e 3349     		ldr r1, = 11199999
 2178 0e20 4160     		str r1, [r0, # 4]
 2179 0e22 8160     		str r1, [r0, # 8]
 2180 0e24 0721     		movs r1, # 0x07
 2181 0e26 0160     		str r1, [r0]    @systick 开
 2182 0e28 3148     	        ldr r0, = cossin
 2183 0e2a 3249     		ldr r1, = cos_sin_biao_100
 2184 0e2c 0160     		str r1, [r0]
 2185 0e2e 3248     		ldr r0, = lcd_beiguang
 2186 0e30 C021     		movs r1, # 0xc0
 2187 0e32 0160     		str r1, [r0]
 2188 0e34 3148     		ldr r0, = lvbo_changdu
 2189 0e36 3249     		ldr r1, = lvbo_youyi
 2190 0e38 0822     		movs r2, # 8
 2191 0e3a 0923     		movs r3, # 9
 2192 0e3c 0260     		str r2, [r0]
 2193 0e3e 0B60     		str r3, [r1]
 2194 0e40 0023     		movs r3, # 0
 2195 0e42 FFF7ABFE 		bl _adcchushihua
 2196 0e46 0FBD     		pop {r0-r3,pc}
 2197 0e48 C3080000 		.ltorg
 2197      03200000 
 2197      00240140 
 2197      00000080 
 2197      01000000 
 2198              		
 2199              	__pinlv_1K:
 2200              		@tim1ch3DMA
 2201 0f04 2248     		ldr r0, = 0x40020000
 2202 0f06 0021     		movs r1, # 0
 2203 0f08 8165     		str r1, [r0, # 0x58]
 2204 0f0a 8160     		str r1, [r0, # 0x08]
 2205 0f0c 2149     		ldr r1, = 0x40012c3c @ 外设地址
 2206 0f0e 0166     		str r1, [r0, # 0x60]
 2207 0f10 2149     		ldr r1, = zheng_xian_1khz @ 储存器地址
 2208 0f12 4166     		str r1, [r0, # 0x64]
 2209 0f14 2149     		ldr r1, =  200             @点数
 2210 0f16 C165     		str r1, [r0, # 0x5c]
 2211 0f18 2149     		ldr r1, = 0x35b1         @ 储存到外设
 2212 0f1a 8165     		str r1, [r0, # 0x58]
 2213              		@ adc dma
 2214 0f1c 2149     		ldr r1, = 0x40012440
 2215 0f1e 0161     		str r1, [r0, # 0x10]
 2216 0f20 2149     		ldr r1, = dianyabiao
 2217 0f22 4161     		str r1, [r0, # 0x14]
 2218 0f24 2149     		ldr r1, = 1000
 2219 0f26 C160     		str r1, [r0, # 0x0c]
 2220 0f28 2149     		ldr r1, = 0x5a1 @  0x583        @ 5a1
 2221 0f2a 8160     		str r1, [r0, # 0x08]
 2222              		
 2223              		
 2224              		@tim3chushihua:
ARM GAS  1.s 			page 47


 2225 0f2c 214B     		ldr r3, = 0x40000400 @ tim3_cr1
 2226 0f2e 224A     		ldr r2, = 0
 2227 0f30 9A62     		str r2, [r3, # 0x28] @ psc
 2228 0f32 224A     		ldr r2, = 2799
 2229 0f34 DA62     		str r2, [r3, # 0x2c] @ ARR
 2230 0f36 2022     		movs r2, # 0x20
 2231 0f38 5A60     		str r2, [r3, # 0x04] @ TRGO
 2232 0f3a 0622     		movs r2, # 0x06
 2233 0f3c 9A60     		str r2, [r3, # 0x08]
 2234 0f3e 8022     		movs r2, # 0x80
 2235              		@tim1chushiha:
 2236 0f40 1F48     		ldr r0, = 0x40012c00 @ tim1_cr1
 2237 0f42 0021     		movs r1, # 0
 2238 0f44 8162     		str r1, [r0, # 0x28] @ psc
 2239 0f46 1F49     		ldr r1, = 279
 2240 0f48 C162     		str r1, [r0, # 0x2c] @ ARR
 2241 0f4a 2021     		movs r1, # 0x20
 2242 0f4c 4160     		str r1, [r0, # 0x04] @ TRGO
 2243 0f4e 1E49     		ldr r1, = 0x68
 2244 0f50 C161     		str r1, [r0, # 0x1c] @ ccmr2  CC3
 2245 0f52 1E49     		ldr r1, = 0x100    @  CC3
 2246 0f54 0162     		str r1, [r0, # 0x20] @ ccer
 2247 0f56 1E49     		ldr r1, = 0x8000
 2248 0f58 4164     		str r1, [r0, # 0x44] @ BDTR
 2249 0f5a 1E49     		ldr r1, = 0x800 @ CC3 DMA
 2250 0f5c C160     		str r1, [r0, # 0x0c] @ DIER
 2251 0f5e 1E49     		ldr r1, = 0x81
 2252 0f60 0160     		str r1, [r0]
 2253 0f62 1A60     		str r2, [r3]
 2254 0f64 1D48     	        ldr r0, = 0xe000e010
 2255 0f66 1E49     		ldr r1, = 2799999
 2256 0f68 4160     		str r1, [r0, # 4]
 2257 0f6a 8160     		str r1, [r0, # 8]
 2258 0f6c 0721     		movs r1, # 0x07
 2259 0f6e 0160     		str r1, [r0]    @systick 开
 2260 0f70 1C48     		ldr r0, = cossin
 2261 0f72 1D49     		ldr r1, = cos_sin_biao_1k
 2262 0f74 0160     		str r1, [r0]
 2263 0f76 1D48     		ldr r0, = lcd_beiguang
 2264 0f78 C021     		movs r1, # 0xc0
 2265 0f7a 0160     		str r1, [r0]
 2266 0f7c 1C48     	        ldr r0, = lvbo_changdu
 2267 0f7e 1D49     		ldr r1, = lvbo_youyi
 2268 0f80 3222     		movs r2, # 50
 2269 0f82 0A23     		movs r3, # 10
 2270 0f84 0260     		str r2, [r0]
 2271 0f86 0B60     		str r3, [r1]
 2272 0f88 0023     		movs r3, # 0
 2273 0f8a FFF707FE 		bl _adcchushihua
 2274 0f8e 0FBD     		pop {r0-r3,pc}
 2275 0f90 00000240 		.ltorg
 2275      3C2C0140 
 2275      10090000 
 2275      C8000000 
 2275      B1350000 
 2276              		
 2277              	__pinlv_10K:
ARM GAS  1.s 			page 48


 2278              		@tim1ch3DMA
 2279 0ff8 2248     		ldr r0, = 0x40020000
 2280 0ffa 0021     		movs r1, # 0
 2281 0ffc 8165     		str r1, [r0, # 0x58]
 2282 0ffe 8160     		str r1, [r0, # 0x08]
 2283 1000 2149     		ldr r1, = 0x40012c3c @ 外设地址
 2284 1002 0166     		str r1, [r0, # 0x60]
 2285 1004 2149     		ldr r1, = zheng_xian_10khz @ 储存器地址
 2286 1006 4166     		str r1, [r0, # 0x64]
 2287 1008 2149     		ldr r1, = 50 @ 200             @点数
 2288 100a C165     		str r1, [r0, # 0x5c]
 2289 100c 2149     		ldr r1, = 0x35b1 @ 0x31b1         @ 储存到外设
 2290 100e 8165     		str r1, [r0, # 0x58]
 2291              		@ adc dma
 2292 1010 2149     		ldr r1, = 0x40012440
 2293 1012 0161     		str r1, [r0, # 0x10]
 2294 1014 2149     		ldr r1, = dianyabiao
 2295 1016 4161     		str r1, [r0, # 0x14]
 2296 1018 2149     		ldr r1, = 1000
 2297 101a C160     		str r1, [r0, # 0x0c]
 2298 101c 2149     		ldr r1, = 0x5a1 @  0x583        @ 5a1
 2299 101e 8160     		str r1, [r0, # 0x08]
 2300              	
 2301              		@tim3chushihua:
 2302 1020 214B     		ldr r3, = 0x40000400 @ tim3_cr1
 2303 1022 224A     		ldr r2, = 0
 2304 1024 9A62     		str r2, [r3, # 0x28] @ psc
 2305 1026 224A     		ldr r2, = 279
 2306 1028 DA62     		str r2, [r3, # 0x2c] @ ARR
 2307 102a 2022     		movs r2, # 0x20
 2308 102c 5A60     		str r2, [r3, # 0x04] @ TRGO
 2309 102e 0622     		movs r2, # 0x06
 2310 1030 9A60     		str r2, [r3, # 0x08]
 2311 1032 8022     		movs r2, # 0x80
 2312              		@tim1chushiha:
 2313 1034 1F48     		ldr r0, = 0x40012c00 @ tim1_cr1
 2314 1036 0021     		movs r1, # 0
 2315 1038 8162     		str r1, [r0, # 0x28] @ psc
 2316 103a 1F49     		ldr r1, = 111 @ 27
 2317 103c C162     		str r1, [r0, # 0x2c] @ ARR
 2318 103e 2021     		movs r1, # 0x20
 2319 1040 4160     		str r1, [r0, # 0x04] @ TRGO
 2320 1042 1E49     		ldr r1, = 0x68
 2321 1044 C161     		str r1, [r0, # 0x1c] @ ccmr2  CC3
 2322 1046 1E49     		ldr r1, = 0x100    @  CC3
 2323 1048 0162     		str r1, [r0, # 0x20] @ ccer
 2324 104a 1E49     		ldr r1, = 0x8000
 2325 104c 4164     		str r1, [r0, # 0x44] @ BDTR
 2326 104e 1E49     		ldr r1, = 0x800 @ CC3 DMA
 2327 1050 C160     		str r1, [r0, # 0x0c] @ DIER
 2328 1052 1E49     		ldr r1, = 0x81
 2329 1054 0160     		str r1, [r0]
 2330 1056 1A60     		str r2, [r3]
 2331 1058 1D48     		ldr r0, = 0xe000e010
 2332 105a 1E49     		ldr r1, = 279999
 2333 105c 4160     		str r1, [r0, # 4]
 2334 105e 8160     		str r1, [r0, # 8]
ARM GAS  1.s 			page 49


 2335 1060 0721     		movs r1, # 0x07
 2336 1062 0160     		str r1, [r0]    @systick 开
 2337 1064 1C48     		ldr r0, = cossin
 2338 1066 1D49     		ldr r1, = cos_sin_biao_10k
 2339 1068 0160     		str r1, [r0]
 2340 106a 1D48     		ldr r0, = lcd_beiguang
 2341 106c 8021     		movs r1, # 0x80
 2342 106e 0160     		str r1, [r0]
 2343 1070 1C48     	        ldr r0, = lvbo_changdu
 2344 1072 1D49     		ldr r1, = lvbo_youyi
 2345 1074 5022     		movs r2, # 80
 2346 1076 0B23     		movs r3, # 11
 2347 1078 0260     		str r2, [r0]
 2348 107a 0B60     		str r3, [r1]
 2349 107c 0023     		movs r3, # 0
 2350 107e FFF78DFD 		bl _adcchushihua
 2351 1082 0FBD     		pop {r0-r3,pc}
 2352 1084 00000240 		.ltorg
 2352      3C2C0140 
 2352      A0080000 
 2352      32000000 
 2352      B1350000 
 2353              		
 2354              	__pinlv_100K:
 2355              	        @tim1ch3DMA
 2356 10ec 2548     		ldr r0, = 0x40020000
 2357 10ee 0021     		movs r1, # 0
 2358 10f0 8165     		str r1, [r0, # 0x58]
 2359 10f2 8160     		str r1, [r0, # 0x08]
 2360 10f4 2449     		ldr r1, = 0x40012c3c @ 外设地址
 2361 10f6 0166     		str r1, [r0, # 0x60]
 2362 10f8 2449     		ldr r1, = zheng_xian_100khz @ 储存器地址
 2363 10fa 4166     		str r1, [r0, # 0x64]
 2364 10fc 2449     		ldr r1, = 20             @点数
 2365 10fe C165     		str r1, [r0, # 0x5c]
 2366 1100 2449     		ldr r1, = 0x31b1         @ 储存到外设
 2367 1102 8165     		str r1, [r0, # 0x58]
 2368              		@ adc dma
 2369 1104 2449     		ldr r1, = 0x40012440
 2370 1106 0161     		str r1, [r0, # 0x10]
 2371 1108 2449     		ldr r1, = dianyabiao
 2372 110a 4161     		str r1, [r0, # 0x14]
 2373 110c 2449     		ldr r1, = 1000
 2374 110e C160     		str r1, [r0, # 0x0c]
 2375 1110 2449     		ldr r1, = 0x35a1 @  0x583        @ 5a1
 2376 1112 8160     		str r1, [r0, # 0x08]
 2377              		
 2378              	@tim1chushiha:
 2379 1114 2448     		ldr r0, = 0x40012c00 @ tim1_cr1
 2380 1116 0021     		movs r1, # 0
 2381 1118 8162     		str r1, [r0, # 0x28] @ psc
 2382 111a 2449     		ldr r1, = 27
 2383 111c C162     		str r1, [r0, # 0x2c] @ ARR
 2384 111e 2449     		ldr r1, = 0x68
 2385 1120 C161     		str r1, [r0, # 0x1c] @ ccmr2  CC3
 2386 1122 2449     		ldr r1, = 0x100    @  CC3
 2387 1124 0162     		str r1, [r0, # 0x20] @ ccer
ARM GAS  1.s 			page 50


 2388 1126 2449     		ldr r1, = 0x8000
 2389 1128 4164     		str r1, [r0, # 0x44] @ BDTR
 2390 112a 2449     		ldr r1, = 0x800 @ CC3 DMA
 2391 112c C160     		str r1, [r0, # 0x0c] @ DIER
 2392 112e 2449     		ldr r1, = 0x81
 2393 1130 0160     		str r1, [r0]
 2394 1132 2448     		ldr r0, = 0xe000e010
 2395 1134 2449     		ldr r1, = 55999
 2396 1136 4160     		str r1, [r0, # 4]
 2397 1138 8160     		str r1, [r0, # 8]
 2398 113a 0721     		movs r1, # 0x07
 2399 113c 0160     		str r1, [r0]    @systick 开
 2400 113e 2348     		ldr r0, = cossin
 2401 1140 2349     		ldr r1, = cos_sin_biao_100k
 2402 1142 0160     		str r1, [r0]
 2403 1144 2348     		ldr r0, = lcd_beiguang
 2404 1146 0021     		movs r1, # 0
 2405 1148 0160     		str r1, [r0]
 2406 114a 2348     	        ldr r0, = lvbo_changdu
 2407 114c 2349     		ldr r1, = lvbo_youyi
 2408 114e 6422     		movs r2, # 100
 2409 1150 0C23     		movs r3, # 12
 2410 1152 0260     		str r2, [r0]
 2411 1154 0B60     		str r3, [r1]
 2412              		
 2413              		
 2414 1156 0123     		movs r3, # 1
 2415 1158 FFF720FD 		bl _adcchushihua
 2416 115c 0FBD     		pop {r0-r3,pc}
 2417              	__pinlv_yanshi:
 2418 115e 2048     		ldr r0, = 0x1ffff
 2419              	__pinlv_yanshi_xunhuan:
 2420 1160 0138     		subs r0, r0, # 1
 2421 1162 FDD1     		bne __pinlv_yanshi_xunhuan
 2422 1164 F746     		mov pc, lr
 2423              	__pin_lv_xian_shi:
 2424 1166 0FB5     		push {r0-r3,lr}
 2425 1168 1E48     		ldr r0, = pinlv
 2426 116a 0121     		movs r1, # 1
 2427 116c 0068     		ldr r0, [r0]
 2428 116e 1E4A     		ldr r2, = asciimabiao
 2429 1170 FF23     		movs r3, # 0xff
 2430 1172 00F0F9FA 		bl _zhuanascii
 2431 1176 8020     		movs r0, # 0x80
 2432 1178 1B49     		ldr r1, = asciimabiao
 2433 117a 0122     		movs r2, # 1
 2434 117c 00F0A6FA 		bl _lcdxianshi
 2435 1180 0FBD     		pop {r0-r3,pc}
 2436 1182 00000000 		.ltorg
 2436      02403C2C 
 2436      01408008 
 2436      00001400 
 2436      0000B131 
 2437              		
 2438              	__jisuan_z_fudu:
 2439 11ec 07B5     		push {r0-r2,lr}
 2440 11ee 7C48     		ldr r0, = xiabi_rr
ARM GAS  1.s 			page 51


 2441 11f0 7C49     		ldr r1, = xiabi_ii
 2442 11f2 0068     		ldr r0, [r0]
 2443 11f4 0968     		ldr r1, [r1]
 2444 11f6 4012     		asrs r0, r0, # 9
 2445 11f8 4912     		asrs r1, r1, # 9
 2446 11fa 00F01FF9 		bl __ji_suan_fu_du
 2447 11fe 0246     		mov r2, r0
 2448 1200 7948     		ldr r0, = shangbi_rr
 2449 1202 7A49     		ldr r1, = shangbi_ii
 2450 1204 0068     		ldr r0, [r0]
 2451 1206 0968     		ldr r1, [r1]
 2452 1208 4012     		asrs r0, r0, # 9
 2453 120a 4912     		asrs r1, r1, # 9
 2454 120c 00F016F9 		bl __ji_suan_fu_du
 2455 1210 1146     		mov r1, r2
 2456 1212 774A     		ldr r2, = 1000
 2457 1214 5043     		muls r0, r0, r2
 2458 1216 00F0A4FB 		bl _chufa
 2459 121a 7649     		ldr r1, = z_fudu
 2460 121c 4009     		lsrs r0, r0, # 5
 2461 121e 0860     		str r0, [r1]
 2462 1220 07BD     		pop {r0-r2,pc}
 2463              		
 2464              	__zidong_dangwei:
 2465 1222 0FB5     		push {r0-r3,lr}
 2466              	__huan_dang:
 2467 1224 7348     		ldr r0, = z_fudu
 2468 1226 0068     		ldr r0, [r0]
 2469 1228 734B     		ldr r3, =  900
 2470 122a 5B09     		lsrs r3, r3, # 5
 2471 122c 9842     		cmp r0, r3
 2472 122e 0CD3     		bcc __dang_wei_jian
 2473 1230 724B     		ldr r3, =  3000
 2474 1232 5B09     		lsrs r3, r3, # 5
 2475 1234 9842     		cmp r0, r3
 2476 1236 10D3     		bcc __zi_dong_dang_wei_fan_hui
 2477 1238 7148     		ldr r0, = liangcheng
 2478 123a 0168     		ldr r1, [r0]
 2479 123c 0131     		adds r1, r1, # 1
 2480 123e 0160     		str r1, [r0]
 2481 1240 1829     		cmp r1, # 24
 2482 1242 0AD1     		bne __zi_dong_dang_wei_fan_hui
 2483 1244 1721     		movs r1, # 23
 2484 1246 0160     		str r1, [r0]
 2485 1248 07E0     		b __zi_dong_dang_wei_fan_hui
 2486              	__dang_wei_jian:
 2487 124a 6D48     		ldr r0, = liangcheng
 2488 124c 0168     		ldr r1, [r0]
 2489 124e 0139     		subs r1, r1, # 1
 2490 1250 0160     		str r1, [r0]
 2491 1252 FF29     		cmp r1, # 0xff
 2492 1254 01D3     		bcc __zi_dong_dang_wei_fan_hui
 2493 1256 0021     		movs r1, # 0
 2494 1258 0160     		str r1, [r0]
 2495              	__zi_dong_dang_wei_fan_hui:
 2496 125a 0FBD     		pop {r0-r3,pc}
 2497              	
ARM GAS  1.s 			page 52


 2498              		
 2499              	__jisuan_zukang:
 2500 125c 1FB5     		push {r0-r4,lr}
 2501 125e 6948     		ldr r0, = zukang_dianzu_biao
 2502 1260 6749     		ldr r1, = liangcheng
 2503 1262 0968     		ldr r1, [r1]
 2504 1264 8900     		lsls r1, r1, # 2
 2505 1266 4458     		ldr r4, [r0, r1]
 2506 1268 6748     		ldr r0, = shangbi_r
 2507 126a 6849     		ldr r1, = shangbi_i
 2508 126c 684A     		ldr r2, = xiabi_r
 2509 126e 694B     		ldr r3, = xiabi_i
 2510 1270 0068     		ldr r0, [r0]
 2511 1272 0968     		ldr r1, [r1]
 2512 1274 1268     		ldr r2, [r2]
 2513 1276 1B68     		ldr r3, [r3]
 2514 1278 00F086FB 		bl __fushu_chufa
 2515 127c 0B46     		mov r3, r1
 2516 127e 2146     		mov r1, r4
 2517 1280 0022     		movs r2, # 0
 2518 1282 0000     		movs r0, r0
 2519 1284 02D5     		bpl __z_r_cheng_dianzu
 2520 1286 0122     		movs r2, # 1
 2521 1288 C043     		mvns r0, r0
 2522 128a 0130     		adds r0, r0, # 1
 2523              	__z_r_cheng_dianzu:
 2524 128c 00F044FB 		bl __chengfa
 2525 1290 4004     		lsls r0, r0, # 17
 2526 1292 C90B     		lsrs r1, r1, # 15
 2527 1294 0143     		orrs r1, r1, r0
 2528 1296 012A     		cmp r2, # 1
 2529 1298 01D1     		bne __z_i_jiance
 2530 129a C943     		mvns r1, r1
 2531 129c 0131     		adds r1, r1, # 1
 2532              	__z_i_jiance:
 2533 129e 1846     		mov r0, r3
 2534 12a0 0B46     		mov r3, r1
 2535 12a2 2146     		mov r1, r4
 2536 12a4 0022     		movs r2, # 0
 2537 12a6 0000     		movs r0, r0
 2538 12a8 02D5     		bpl __z_i_cheng_dianzu
 2539 12aa 0122     		movs r2, # 1
 2540 12ac C043     		mvns r0, r0
 2541 12ae 0130     		adds r0, r0, # 1
 2542              	__z_i_cheng_dianzu:
 2543 12b0 00F032FB 		bl __chengfa
 2544 12b4 4004     		lsls r0, r0, # 17
 2545 12b6 C90B     		lsrs r1, r1, # 15
 2546 12b8 0843     		orrs r0, r0, r1
 2547 12ba 012A     		cmp r2, # 1
 2548 12bc 01D1     		bne __jisuan_zukang_fanhui
 2549 12be C043     		mvns r0, r0
 2550 12c0 0130     		adds r0, r0, # 1
 2551              	__jisuan_zukang_fanhui:
 2552 12c2 1946     		mov r1, r3
 2553 12c4 544A     		ldr r2, = z_r
 2554 12c6 554B     		ldr r3, = z_i
ARM GAS  1.s 			page 53


 2555 12c8 1160     		str r1, [r2]
 2556 12ca 1860     		str r0, [r3]
 2557 12cc 1FBD     		pop {r0-r4,pc}
 2558              	
 2559              		
 2560              		
 2561              	__jisuan_cos_sin:				@jd
 2562              		@入口R0=角度 （-18000到+18000）
 2563              		@出口R0=COS，R1=SIN
 2564 12ce FCB5     		push {r2-r7,lr}
 2565 12d0 5349     		ldr r1, = 18000
 2566 12d2 8842     		cmp r0, r1
 2567 12d4 02D9     		bls __xiaoyu_180
 2568 12d6 401A     		subs r0, r0, r1
 2569 12d8 0127     		movs r7, # 1
 2570 12da 00E0     		b __js_cos_sin
 2571              	__xiaoyu_180:
 2572 12dc 0027     		movs r7, # 0
 2573              	__js_cos_sin:
 2574 12de 5149     		ldr r1, = 9000
 2575 12e0 514A     		ldr r2, = 51471
 2576 12e2 0000     		movs r0, r0
 2577 12e4 03D5     		bpl __jisuan_jiaodu_bushi0
 2578 12e6 C043     		mvns r0, r0
 2579 12e8 0130     		adds r0, r0, # 1
 2580 12ea 0124     		movs r4, # 1
 2581 12ec 00E0     		b __jiance_chao90
 2582              	__jisuan_jiaodu_bushi0:
 2583 12ee 0024     		movs r4, # 0
 2584              	__jiance_chao90:
 2585 12f0 8842     		cmp r0, r1
 2586 12f2 03D9     		bls __xiaoyu_90
 2587 12f4 4A4E     		ldr r6, = 18000
 2588 12f6 301A     		subs r0, r6, r0
 2589 12f8 0126     		movs r6, # 1
 2590 12fa 00E0     		b __suan_cossin
 2591              	__xiaoyu_90:
 2592 12fc 0026     		movs r6, # 0
 2593              	__suan_cossin:
 2594 12fe 4B4D     		ldr r5, = 10000
 2595 1300 6843     		muls r0, r0, r5
 2596 1302 00F02EFB 		bl _chufa
 2597 1306 5043     		muls r0, r0, r2
 2598 1308 2946     		mov r1, r5
 2599 130a 00F02AFB 		bl _chufa
 2600 130e 012C     		cmp r4, # 1
 2601 1310 01D1     		bne __suan_cos_sin1
 2602 1312 C043     		mvns r0, r0
 2603 1314 0130     		adds r0, r0, # 1
 2604              	__suan_cos_sin1:
 2605 1316 00F00BF8 		bl __cordic_cos_sin
 2606 131a 012E     		cmp r6, # 1
 2607 131c 01D1     		bne __cos_sin_fanhui
 2608 131e C043     		mvns r0, r0
 2609 1320 0130     		adds r0, r0, # 1
 2610              	__cos_sin_fanhui:
 2611 1322 012F     		cmp r7, # 1
ARM GAS  1.s 			page 54


 2612 1324 03D1     		bne __cossin_fh
 2613 1326 C043     		mvns r0, r0
 2614 1328 C943     		mvns r1, r1
 2615 132a 0130     		adds r0, r0, # 1
 2616 132c 0131     		adds r1, r1, # 1
 2617              	__cossin_fh:
 2618 132e FCBD     		pop {r2-r7,pc}
 2619              	__cordic_cos_sin:
 2620              		@入口R0
 2621              		@出口R0=COS，R1=SIN
 2622              		@ x= 0x4dba
 2623              		@ r1=x,r2=y,r0=z,r4=d,r5=k,r6=cordic_mabiao
 2624              	
 2625 1330 FCB5     		push {r2-r7,lr}
 2626 1332 4246     		mov r2, r8
 2627 1334 4B46     		mov r3, r9
 2628 1336 0CB4     		push {r2-r3}
 2629 1338 0025     		movs r5, # 0
 2630 133a 2A46     		mov r2, r5
 2631 133c 2C46     		mov r4, r5
 2632 133e 3C49     		ldr r1, = 0x4dba
 2633              	cordicxunhuan:				 @ 循环
 2634 1340 C413     		asrs r4, r0, # 15
 2635              		@ x
 2636 1342 1746     		mov r7, r2
 2637 1344 2A41     		asrs r2, r2, r5
 2638 1346 6240     		eors r2, r2, r4
 2639 1348 121B     		subs r2, r2, r4
 2640 134a 8B1A     		subs r3, r1, r2
 2641              		@ y
 2642 134c 0E46     		mov r6, r1
 2643 134e 2941     		asrs r1, r1, r5
 2644 1350 6140     		eors r1, r1, r4
 2645 1352 091B     		subs r1, r1, r4
 2646 1354 7F18     		adds r7, r7, r1
 2647              		@ z
 2648 1356 374E     		ldr r6, = cordic_yong_atan_biao
 2649 1358 AA00     		lsls r2, r5, # 2
 2650 135a B158     		ldr r1, [r6, r2]
 2651 135c 6140     		eors r1, r1, r4
 2652 135e 091B     		subs r1, r1, r4
 2653 1360 401A     		subs r0, r0, r1
 2654 1362 1946     		mov r1, r3
 2655 1364 3A46     		mov r2, r7
 2656 1366 0135     		adds r5, # 1
 2657 1368 102D     		cmp r5, # 16
 2658 136a E9D1     		bne cordicxunhuan
 2659 136c 1846     		mov r0, r3
 2660 136e 3946     		mov r1, r7
 2661 1370 0CBC     		pop {r2-r3}
 2662 1372 9046     		mov r8, r2
 2663 1374 9946     		mov r9, r3
 2664 1376 FCBD     		pop {r2-r7,pc}
 2665              	__atan2_ji_suan:				@jt
 2666              		@入口R0=实部，R1=虚部，结果=R0
 2667 1378 FCB5     		push {r2-r7,lr}
 2668 137a 4246     		mov r2, r8
ARM GAS  1.s 			page 55


 2669 137c 04B4     		push {r2}
 2670 137e 2E4B     		ldr r3, = cordic_yong_cos_sin
 2671 1380 0A22     		movs r2, # 10
 2672 1382 5043     		muls r0, r0, r2
 2673 1384 5143     		muls r1, r1, r2
 2674 1386 0022     		movs r2, # 0
 2675 1388 9046     		mov r8, r2
 2676 138a 264C     		ldr r4, = 9000
 2677 138c E403     		lsls r4, r4, # 15
 2678              	__cordic_atan2_xun_huan:
 2679              	__du_cos_sin:
 2680 138e 1D68     		ldr r5, [r3]	@cos
 2681 1390 0433     		adds r3, r3, # 4
 2682 1392 2F46     		mov r7, r5
 2683 1394 1E68     		ldr r6, [r3]	@sin
 2684 1396 0433     		adds r3, r3, # 4
 2685 1398 3246     		mov r2, r6
 2686 139a 4543     		muls r5, r5, r0         @x*cos
 2687 139c 4243     		muls r2, r2, r0         @x*sin
 2688 139e 4E43     		muls r6, r6, r1         @y*sin
 2689 13a0 4F43     		muls r7, r7, r1         @y*cos
 2690 13a2 0900     		movs r1, r1
 2691 13a4 05D5     		bpl __ni_shi_zhen_zhuan
 2692              	__shun_shi_zhen_zhuan:
 2693 13a6 AD1B     		subs r5, r5, r6
 2694 13a8 BF18     		adds r7, r7, r2
 2695 13aa 4646     		mov r6, r8
 2696 13ac 3619     		adds r6, r6, r4
 2697 13ae B046     		mov r8, r6
 2698 13b0 04E0     		b __xuan_zhuan_wan
 2699              	__ni_shi_zhen_zhuan:
 2700 13b2 AD19     		adds r5, r5, r6
 2701 13b4 BF1A     		subs r7, r7, r2
 2702 13b6 4646     		mov r6, r8
 2703 13b8 361B     		subs r6, r6, r4
 2704 13ba B046     		mov r8, r6
 2705              	__xuan_zhuan_wan:
 2706 13bc 1E4E     		ldr r6, = cordic_yong_cos_sin
 2707 13be 2022     		movs r2, # 32
 2708 13c0 9200     		lsls r2, r2, # 2
 2709 13c2 B618     		adds r6, r6, r2
 2710 13c4 AD13     		asrs r5, r5, # 14
 2711 13c6 BF13     		asrs r7, r7, # 14
 2712 13c8 2846     		mov r0, r5
 2713 13ca 3946     		mov r1, r7
 2714 13cc 6408     		lsrs r4, r4, # 1	@旋转
 2715 13ce B342     		cmp r3,	r6
 2716 13d0 DDD1     		bne __cordic_atan2_xun_huan
 2717 13d2 4046     		mov r0, r8
 2718 13d4 C043     		mvns r0, r0
 2719 13d6 0130     		adds r0, r0, # 1
 2720              	@	asrs r0, r0, # 15      @除32768等于角度
 2721 13d8 04BC     		pop {r2}
 2722 13da 9046     		mov r8, r2
 2723 13dc FCBD     		pop {r2-r7,pc}
 2724 13de 00005800 		.ltorg
 2724      00205C00 
ARM GAS  1.s 			page 56


 2724      00205000 
 2724      00205400 
 2724      0020E803 
 2725              	__ji_suan_fu_du:	    @ 计算幅度
 2726              		@ 入r0= 实部，r1= 虚部
 2727              		@ 出r0 = 幅度
 2728              		@ Mag ~=Alpha * max(|I|, |Q|) + Beta * min(|I|, |Q|)
 2729              		@ Alpha * Max + Beta * Min
 2730 143c 0EB5     		push {r1-r3,lr}
 2731 143e 0000     		movs r0, r0
 2732 1440 01D5     		bpl _shibubushifushu
 2733 1442 C043     		mvns r0, r0                             @ 是负数转成正数
 2734 1444 0130     		adds r0, r0, # 1
 2735              	_shibubushifushu:	                               @ 实部不是负数
 2736 1446 0900     		movs r1, r1
 2737 1448 01D5     		bpl _xububushifushu
 2738 144a C943     		mvns r1, r1                             @ 是负数转成正数
 2739 144c 0131     		adds r1, r1, # 1
 2740              	_xububushifushu:	                                @ 虚部不是负数
 2741 144e 0028     		cmp r0, # 0
 2742 1450 01D1     		bne _panduanxubushibushi0
 2743 1452 0846     		mov r0, r1
 2744 1454 0EBD     		pop {r1-r3,pc}
 2745              	_panduanxubushibushi0:
 2746 1456 0029     		cmp r1, # 0
 2747 1458 00D1     		bne _jisuanfudu1
 2748 145a 0EBD     		pop {r1-r3,pc}
 2749              	_jisuanfudu1:
 2750 145c 064A     		ldr r2, = 31066		@ Alpha q15 0.948059448969 @
 2751 145e 074B     		ldr r3, = 12868		@ Beta q15 0.392699081699
 2752 1460 8142     		cmp r1, r0
 2753 1462 04D8     		bhi _alpha_min_beta_max
 2754              	_alpha_max_beta_min:
 2755 1464 5043     		muls r0, r0, r2
 2756 1466 5943     		muls r1, r1, r3
 2757              	@	asrs r0, r0, # 15
 2758              	@	asrs r1, r1, # 15
 2759 1468 4018     		adds r0, r0, r1
 2760 146a 0121     		movs r1, # 1
 2761 146c 0EBD     		pop {r1-r3,pc}
 2762              	_alpha_min_beta_max:
 2763 146e 5843     		muls r0, r0, r3
 2764 1470 5143     		muls r1, r1, r2
 2765              	@	asrs r0, r0, # 15
 2766              	@	asrs r1, r1, # 15
 2767 1472 4018     		adds r0, r0, r1
 2768 1474 0021     		movs r1, # 0
 2769 1476 0EBD     		pop {r1-r3,pc}
 2770              	
 2771              	
 2772              		
 2773 1478 5A790000 		.ltorg
 2773      44320000 
 2774              	__xianshi_zukang:
 2775 1480 3FB5     		push {r0-r5,lr}
 2776 1482 804C     		ldr r4, = z_r
 2777 1484 804D     		ldr r5, = z_i
ARM GAS  1.s 			page 57


 2778 1486 2468     		ldr r4, [r4]
 2779 1488 2D68     		ldr r5, [r5]
 2780 148a 2400     		movs r4, r4
 2781 148c 07D5     		bpl aaa1
 2782 148e 8020     		movs r0, # 0x80
 2783 1490 7E49     		ldr r1, = _fu
 2784 1492 0122     		movs r2, # 1
 2785 1494 00F01AF9 		bl _lcdxianshi
 2786 1498 E443     		mvns r4, r4
 2787 149a 0134     		adds r4, r4, # 1
 2788 149c 04E0     		b aaa2
 2789              	aaa1:
 2790 149e 8020     		movs r0, # 0x80
 2791 14a0 7B49     		ldr r1, = kong
 2792 14a2 0122     		movs r2, # 1
 2793 14a4 00F012F9 		bl _lcdxianshi
 2794              	aaa2:
 2795 14a8 2046     		mov r0, r4
 2796 14aa 0621     		movs r1, # 6
 2797 14ac 794A     		ldr r2, = asciimabiao
 2798 14ae 7A4C     	        ldr r4, = zukang_xiaoshu_dian
 2799 14b0 7A4B     		ldr r3, = liangcheng
 2800 14b2 1B68     		ldr r3, [r3]
 2801 14b4 E35C     		ldrb r3, [r4, r3]
 2802 14b6 00F057F9 		bl _zhuanascii
 2803 14ba 8120     		movs r0, # 0x81
 2804 14bc 7549     		ldr r1, = asciimabiao
 2805 14be 0622     		movs r2, # 6
 2806 14c0 00F004F9 		bl _lcdxianshi
 2807              	
 2808              	
 2809 14c4 2C00     		movs r4, r5
 2810 14c6 07D5     		bpl bbb1
 2811 14c8 8720     		movs r0, # 0x87
 2812 14ca 7049     		ldr r1, = _fu
 2813 14cc 0122     		movs r2, # 1
 2814 14ce 00F0FDF8 		bl _lcdxianshi
 2815 14d2 E443     		mvns r4, r4
 2816 14d4 0134     		adds r4, r4, # 1
 2817 14d6 04E0     		b bbb2
 2818              	bbb1:
 2819 14d8 8720     		movs r0, # 0x87
 2820 14da 6D49     		ldr r1, = kong
 2821 14dc 0122     		movs r2, # 1
 2822 14de 00F0F5F8 		bl _lcdxianshi
 2823              	bbb2:
 2824 14e2 2046     		mov r0, r4
 2825 14e4 0621     		movs r1, # 6
 2826 14e6 6B4A     		ldr r2, = asciimabiao
 2827 14e8 6B4D     		ldr r5, = zukang_xiaoshu_dian
 2828 14ea 6C4B     		ldr r3, = liangcheng
 2829 14ec 1B68     		ldr r3, [r3]
 2830 14ee EB5C     		ldrb r3, [r5, r3]
 2831 14f0 00F03AF9 		bl _zhuanascii
 2832 14f4 8820     		movs r0, # 0x88
 2833 14f6 6749     		ldr r1, = asciimabiao
 2834 14f8 0622     		movs r2, # 6
ARM GAS  1.s 			page 58


 2835 14fa 00F0E7F8 		bl _lcdxianshi
 2836 14fe 3FBD     		pop {r0-r5,pc}
 2837              	
 2838              	
 2839              	__xianshi_liangcheng:
 2840 1500 0FB5     		push {r0-r3,lr}
 2841 1502 6648     	        ldr r0, = liangcheng
 2842 1504 0221     		movs r1, # 2
 2843 1506 0068     		ldr r0, [r0]
 2844 1508 624A     		ldr r2, = asciimabiao
 2845 150a FF23     		movs r3, # 0xff
 2846 150c 00F02CF9 		bl _zhuanascii
 2847 1510 C020     		movs r0, # 0xc0
 2848 1512 6049     		ldr r1, = asciimabiao
 2849 1514 0222     		movs r2, # 2
 2850 1516 00F0D9F8 		bl _lcdxianshi
 2851 151a 0FBD     		pop {r0-r3,pc}
 2852              		
 2853              	__xianshi_shangxia_bi:
 2854 151c FFB5     		push {r0-r7,lr}
 2855 151e 6048     		ldr r0, = shangbi_r
 2856 1520 604A     		ldr r2, = shangbi_i
 2857 1522 0168     		ldr r1, [r0]
 2858 1524 1768     		ldr r7, [r2]
 2859 1526 0C00     		movs r4, r1
 2860 1528 07D5     		bpl aa1
 2861 152a 8020     		movs r0, # 0x80
 2862 152c 5749     		ldr r1, = _fu
 2863 152e 0122     		movs r2, # 1
 2864 1530 00F0CCF8 		bl _lcdxianshi
 2865 1534 E443     		mvns r4, r4
 2866 1536 0134     		adds r4, r4, # 1
 2867 1538 04E0     		b aa2
 2868              	aa1:
 2869 153a 8020     		movs r0, # 0x80
 2870 153c 5449     		ldr r1, = kong
 2871 153e 0122     		movs r2, # 1
 2872 1540 00F0C4F8 		bl _lcdxianshi
 2873              	aa2:
 2874 1544 2046     		mov r0, r4
 2875 1546 0621     		movs r1, # 6
 2876 1548 524A     		ldr r2, = asciimabiao
 2877 154a FF23     		movs r3, # 0xff
 2878 154c 00F00CF9 		bl _zhuanascii
 2879 1550 8120     		movs r0, # 0x81
 2880 1552 5049     		ldr r1, = asciimabiao
 2881 1554 0622     		movs r2, # 6
 2882 1556 00F0B9F8 		bl _lcdxianshi
 2883              	
 2884              	
 2885 155a 3C00     		movs r4, r7
 2886 155c 07D5     		bpl bb1
 2887 155e 8920     		movs r0, # 0x89
 2888 1560 4A49     		ldr r1, = _fu
 2889 1562 0122     		movs r2, # 1
 2890 1564 00F0B2F8 		bl _lcdxianshi
 2891 1568 E443     		mvns r4, r4
ARM GAS  1.s 			page 59


 2892 156a 0134     		adds r4, r4, # 1
 2893 156c 04E0     		b bb2
 2894              	bb1:
 2895 156e 8920     		movs r0, # 0x89
 2896 1570 4749     		ldr r1, = kong
 2897 1572 0122     		movs r2, # 1
 2898 1574 00F0AAF8 		bl _lcdxianshi
 2899              	bb2:
 2900 1578 2046     		mov r0, r4
 2901 157a 0621     		movs r1, # 6
 2902 157c 454A     		ldr r2, = asciimabiao
 2903 157e FF23     		movs r3, # 0xff
 2904 1580 00F0F2F8 		bl _zhuanascii
 2905 1584 8A20     		movs r0, # 0x8a
 2906 1586 4349     		ldr r1, = asciimabiao
 2907 1588 0622     		movs r2, # 6
 2908 158a 00F09FF8 		bl _lcdxianshi
 2909              	
 2910 158e 4648     	        ldr r0, = xiabi_r
 2911 1590 464A     		ldr r2, = xiabi_i
 2912 1592 0168     		ldr r1, [r0]
 2913 1594 1768     		ldr r7, [r2]
 2914 1596 0C00     		movs r4, r1
 2915 1598 07D5     		bpl cc1
 2916 159a C020     		movs r0, # 0xc0
 2917 159c 3B49     		ldr r1, = _fu
 2918 159e 0122     		movs r2, # 1
 2919 15a0 00F094F8 		bl _lcdxianshi
 2920 15a4 E443     		mvns r4, r4
 2921 15a6 0134     		adds r4, r4, # 1
 2922 15a8 04E0     		b cc2
 2923              	cc1:
 2924 15aa C020     		movs r0, # 0xc0
 2925 15ac 3849     		ldr r1, = kong
 2926 15ae 0122     		movs r2, # 1
 2927 15b0 00F08CF8 		bl _lcdxianshi
 2928              	cc2:
 2929 15b4 2046     		mov r0, r4
 2930 15b6 0621     		movs r1, # 6
 2931 15b8 364A     		ldr r2, = asciimabiao
 2932 15ba FF23     		movs r3, # 0xff
 2933 15bc 00F0D4F8 		bl _zhuanascii
 2934 15c0 C120     		movs r0, # 0xc1
 2935 15c2 3449     		ldr r1, = asciimabiao
 2936 15c4 0622     		movs r2, # 6
 2937 15c6 00F081F8 		bl _lcdxianshi
 2938              	
 2939              	
 2940 15ca 3C00     		movs r4, r7
 2941 15cc 07D5     		bpl dd1
 2942 15ce C920     		movs r0, # 0xc9
 2943 15d0 2E49     		ldr r1, = _fu
 2944 15d2 0122     		movs r2, # 1
 2945 15d4 00F07AF8 		bl _lcdxianshi
 2946 15d8 E443     		mvns r4, r4
 2947 15da 0134     		adds r4, r4, # 1
 2948 15dc 04E0     		b dd2
ARM GAS  1.s 			page 60


 2949              	dd1:
 2950 15de C920     		movs r0, # 0xc9
 2951 15e0 2B49     		ldr r1, = kong
 2952 15e2 0122     		movs r2, # 1
 2953 15e4 00F072F8 		bl _lcdxianshi
 2954              	dd2:
 2955 15e8 2046     		mov r0, r4
 2956 15ea 0621     		movs r1, # 6
 2957 15ec 294A     		ldr r2, = asciimabiao
 2958 15ee FF23     		movs r3, # 0xff
 2959 15f0 00F0BAF8 		bl _zhuanascii
 2960 15f4 CA20     		movs r0, # 0xca
 2961 15f6 2749     		ldr r1, = asciimabiao
 2962 15f8 0622     		movs r2, # 6
 2963 15fa 00F067F8 		bl _lcdxianshi
 2964 15fe FFBD     		pop {r0-r7,pc}
 2965              	
 2966              	__dft:
 2967 1600 FCB5     		push {r2-r7,lr}
 2968 1602 4246     		mov r2, r8
 2969 1604 4B46     		mov r3, r9
 2970 1606 0CB4     		push {r2-r3}
 2971 1608 2949     		ldr r1, = 0x12345678
 2972 160a 8946     		mov r9, r1
 2973 160c 2948     		ldr r0, = dianyabiao
 2974 160e 2A49     		ldr r1, = cossin
 2975 1610 0968     		ldr r1, [r1]
 2976 1612 2A4B     		ldr r3, = 0x7d0      @1000
 2977 1614 2A4C     		ldr r4, = 2048
 2978 1616 1B18     		adds r3, r3, r0
 2979 1618 9846     		mov r8, r3
 2980 161a 0022     		movs r2, # 0
 2981 161c 1746     		mov r7, r2
 2982              	__dft_xunhuan:
 2983 161e 0388     		ldrh r3, [r0]
 2984 1620 0D68     		ldr r5, [r1]
 2985 1622 4D45     		cmp r5, r9
 2986 1624 02D1     		bne __du_sin
 2987 1626 2449     		ldr r1, = cossin
 2988 1628 0968     		ldr r1, [r1]
 2989 162a 0D68     		ldr r5, [r1]
 2990              	__du_sin:	
 2991 162c 4E68     		ldr r6, [r1, # 0x04]
 2992 162e 1B1B     		subs r3, r3, r4
 2993 1630 5D43     		muls r5, r5, r3
 2994 1632 AD11     		asrs r5, r5, # 6
 2995 1634 5E43     		muls r6, r6, r3
 2996 1636 B611     		asrs r6, r6, # 6
 2997 1638 5219     		adds r2, r2, r5
 2998 163a BF19     		adds r7, r7, r6
 2999 163c 0230     		adds r0, r0, # 0x02
 3000 163e 0831     		adds r1, r1, # 0x08
 3001 1640 4045     		cmp r0, r8
 3002 1642 ECD1     		bne __dft_xunhuan
 3003 1644 1046     		mov r0, r2
 3004 1646 3946     		mov r1, r7
 3005 1648 4012     		asrs r0, r0, # 9
ARM GAS  1.s 			page 61


 3006 164a 4912     		asrs r1, r1, # 9
 3007 164c 0CBC     		pop {r2-r3}
 3008 164e 9046     		mov r8, r2
 3009 1650 9946     		mov r9, r3
 3010 1652 FCBD     		pop {r2-r7,pc}
 3011              		
 3012              	__lv_bo_qi:
 3013              		@地址顺序：指针，累加值，缓冲区
 3014              		@入口R0=缓冲区，R1=数据, r2,=指针
 3015              		@出口R0
 3016 1654 F8B5     		push {r3-r7,lr}
 3017 1656 1B4C     		ldr r4, = lvbo_changdu
 3018 1658 1B4F     		ldr r7, = lvbo_youyi
 3019 165a 2468     		ldr r4, [r4]
 3020 165c 3F68     		ldr r7, [r7]
 3021 165e 1568     		ldr r5, [r2]
 3022 1660 2B46     		mov r3, r5
 3023 1662 AB00     		lsls r3, r5, # 2
 3024 1664 C658     		ldr r6, [r0, r3]
 3025 1666 C150     		str r1, [r0, r3]
 3026 1668 0135     		adds r5, r5, # 1
 3027 166a 1560     		str r5, [r2]
 3028 166c A542     		cmp r5, r4
 3029 166e 01D1     		bne __huanchong_leijia
 3030 1670 0025     		movs r5, # 0
 3031 1672 1560     		str r5, [r2]
 3032              	__huanchong_leijia:
 3033 1674 0438     		subs r0, r0, # 4
 3034 1676 0568     		ldr r5, [r0]
 3035 1678 4919     		adds r1, r1, r5
 3036 167a 891B     		subs r1, r1, r6
 3037 167c 0160     		str r1, [r0]
 3038 167e 3941     		asrs r1, r1, r7	 @# 12 @12 @  7	@128
 3039 1680 0846     		mov r0, r1
 3040 1682 F8BD     		pop {r3-r7,pc}
 3041 1684 3C000020 		.ltorg
 3041      40000020 
 3041      24190000 
 3041      20190000 
 3041      00000020 
 3042              	
 3043              		
 3044              	_lcdxianshi:		  		@r0=LCD位置，r1=数据地址，r2=长度
 3045 16cc 1FB5     		push {r0-r4,lr}
 3046 16ce 0C46     		mov r4, r1
 3047              	
 3048 16d0 0021     		movs r1, # 0
 3049 16d2 00F00EF8 		bl _xielcd
 3050              	
 3051 16d6 0121     		movs r1, # 1
 3052 16d8 0023     		movs r3, # 0
 3053              	_lcdxianshixunhuan:
 3054 16da E05C     		ldrb r0, [r4,r3]
 3055 16dc 00F009F8 		bl _xielcd
 3056 16e0 0133     		adds r3, r3, # 1
 3057 16e2 9342     		cmp r3, r2
 3058 16e4 F9D1     		bne _lcdxianshixunhuan
ARM GAS  1.s 			page 62


 3059 16e6 1FBD     		pop {r0-r4,pc}
 3060              	
 3061              	_lcdyanshi:
 3062 16e8 20B5     		push {r5,lr}
 3063 16ea 1B4D     		ldr r5, = 0x1000
 3064              	_lcdyanshixunhuan:
 3065 16ec 013D     		subs r5, r5, # 1
 3066 16ee FDD1     		bne _lcdyanshixunhuan
 3067 16f0 20BD     		pop {r5,pc}
 3068              	_xielcd:					@入R0=8位,r1=0命令,r1=1数据
 3069 16f2 3FB5     		push {r0-r5,lr}
 3070 16f4 194C     		ldr r4, = lcd_beiguang  @ 量程开关 (第6位和第7位)
 3071 16f6 0246     		mov r2, r0
 3072 16f8 2568     		ldr r5, [r4]
 3073 16fa 1209     		lsrs r2, r2, # 4
 3074 16fc 9200     		lsls r2, r2, # 2	@ 高四位
 3075 16fe 0007     		lsls r0, r0, # 28
 3076 1700 800E     		lsrs r0, r0, # 26	@ 低四位
 3077 1702 C907     		lsls r1, r1, # 31
 3078 1704 01D5     		bpl __lcd_ming_ling
 3079              	__lcd_shu_ju:
 3080 1706 0323     		movs r3, # 0x03		@ RS = 1 E = 1
 3081 1708 00E0     		b __xie_lcd_shu_ju
 3082              	__lcd_ming_ling:
 3083 170a 0223     		movs r3, # 0x02		@ RS = 0 E = 1
 3084              	__xie_lcd_shu_ju:
 3085 170c 5B19     		adds r3, r3, r5
 3086 170e 0146     		mov r1, r0
 3087 1710 D218     		adds r2, r2, r3
 3088 1712 134D     		ldr r5, = 0x4001300c
 3089 1714 1000     		movs r0, r2
 3090 1716 2870     		strb r0, [r5]
 3091 1718 00F016F8 		bl __spi_mang
 3092 171c 00F018F8 		bl __yanshi_595
 3093 1720 0238     		subs r0, r0, # 0x02
 3094 1722 2870     		strb r0, [r5]
 3095 1724 00F010F8 		bl __spi_mang
 3096 1728 00F012F8 		bl __yanshi_595
 3097 172c 0846     		mov r0, r1
 3098 172e C018     		adds r0, r0, r3
 3099 1730 2870     		strb r0, [r5]
 3100 1732 00F009F8 		bl __spi_mang
 3101 1736 00F00BF8 		bl __yanshi_595
 3102 173a 0238     		subs r0, r0, # 0x02
 3103 173c 2870     		strb r0, [r5]
 3104 173e 00F003F8 		bl __spi_mang
 3105 1742 00F005F8 		bl __yanshi_595
 3106 1746 3FBD     		pop {r0-r5,pc}
 3107              	__spi_mang:
 3108 1748 AA68     		ldr r2, [r5, # 0x08]
 3109 174a 1206     		lsls r2, r2, # 24
 3110 174c FCD4     		bmi __spi_mang
 3111 174e F746     		mov pc, lr
 3112              	__yanshi_595:
 3113 1750 044A     		ldr r2, = 0x2000
 3114              	__yanshi__595:
 3115 1752 013A     		subs r2, r2, # 1
ARM GAS  1.s 			page 63


 3116 1754 FDD1     		bne __yanshi__595
 3117 1756 F746     		mov pc, lr
 3118 1758 00100000 		.ltorg
 3118      20000020 
 3118      0C300140 
 3118      00200000 
 3119              	
 3120              	_zhuanascii:						@ 16进制转ASCII
 3121              		@ R0要转的数据， R1长度，R2结果表首地址, r3=小数点位置
 3122 1768 FFB5     		push {r0-r7,lr}
 3123 176a 1F46     		mov r7, r3
 3124 176c 0546     		mov r5, r0
 3125 176e 0E46     		mov r6, r1
 3126 1770 0A21     		movs r1, # 10
 3127              	_xunhuanqiuma:
 3128 1772 00F0F6F8 		bl _chufa
 3129 1776 0446     		mov r4, r0
 3130 1778 4C43     		muls r4, r1
 3131 177a 2B1B     		subs r3, r5, r4
 3132 177c 3033     		adds r3, r3, # 0x30
 3133 177e 0546     		mov r5, r0
 3134 1780 013E     		subs r6, r6, # 1
 3135 1782 08D0     		beq _qiumafanhui
 3136 1784 BE42     		cmp r6, r7
 3137 1786 02D1     		bne _meidaoxiaoshudian
 3138 1788 2E24     		movs r4, # 0x2e		@小数点
 3139 178a 9455     		strb r4, [r2,r6]	@插入小数点
 3140 178c 013E     		subs r6, r6, # 1
 3141              	_meidaoxiaoshudian:
 3142 178e 9355     		strb r3, [r2,r6]
 3143 1790 3600     		movs r6, r6
 3144 1792 EED1     		bne _xunhuanqiuma
 3145 1794 FFBD     		pop {r0-r7,pc}
 3146              	_qiumafanhui:
 3147 1796 9355     		strb r3, [r2, r6]
 3148 1798 FFBD     		pop {r0-r7,pc}
 3149              	
 3150              	__fu_shu_chu_fa:
 3151              		@入口R0=a R1=b,R2=c R3=d
 3152              		@出口R2=实部 R1=虚部
 3153 179a F0B5     		push {r4-r7,lr}
 3154 179c 002A     		cmp r2, # 0
 3155 179e 03D1     		bne __tiao_guo_bei_chu_shu_0_pan_duan
 3156 17a0 002B     		cmp r3, # 0
 3157 17a2 01D1     		bne __tiao_guo_bei_chu_shu_0_pan_duan
 3158 17a4 0246     		mov r2, r0
 3159 17a6 F0BD     		pop {r4-r7,pc}
 3160              	__tiao_guo_bei_chu_shu_0_pan_duan:
 3161 17a8 4446     		mov r4, r8
 3162 17aa 4D46     		mov r5, r9
 3163 17ac 5646     		mov r6, r10
 3164 17ae 5F46     		mov r7, r11
 3165 17b0 F0B4     		push {r4-r7}
 3166              	__ji_suan_chu_fa:
 3167 17b2 8046     		mov r8, r0	@a
 3168 17b4 8946     		mov r9, r1	@b
 3169 17b6 9246     		mov r10, r2	@c
ARM GAS  1.s 			page 64


 3170 17b8 9B46     		mov r11, r3	@d
 3171 17ba 0027     		movs r7, # 0
 3172              		@ (a+bi)/(c+di)=(ac+bd)/(c*c+d*d)+(bc-ad)/(c*c+d*d)
 3173 17bc 0000     		movs r0, r0
 3174 17be 02D5     		bpl b1
 3175 17c0 C043     		mvns r0, r0
 3176 17c2 0130     		adds r0, r0, # 1
 3177 17c4 0127     		movs r7, # 1
 3178              	b1:
 3179 17c6 5146     		mov r1, r10
 3180 17c8 0900     		movs r1, r1
 3181 17ca 02D5     		bpl b2
 3182 17cc C943     		mvns r1, r1
 3183 17ce 0131     		adds r1, r1, # 1
 3184 17d0 0137     		adds r7, r7, # 1
 3185              	b2:
 3186 17d2 00F0A1F8 		bl __chengfa
 3187              	b3:
 3188 17d6 012F     		cmp r7, # 1
 3189 17d8 01D1     		bne a1
 3190 17da C043     		mvns r0, r0
 3191 17dc C943     		mvns r1, r1
 3192              	a1:
 3193 17de 0446     		mov r4, r0	@a*c高32
 3194 17e0 0D46     		mov r5, r1	@a*c低32
 3195 17e2 0027     		movs r7, # 0
 3196 17e4 4846     		mov r0, r9
 3197 17e6 5946     		mov r1, r11
 3198 17e8 0000     		movs r0, r0
 3199 17ea 02D5     		bpl b4
 3200 17ec C043     		mvns r0, r0
 3201 17ee 0130     		adds r0, r0, # 1
 3202 17f0 0137     		adds r7, r7, # 1
 3203              	b4:
 3204 17f2 0900     		movs r1, r1
 3205 17f4 02D5     		bpl b5
 3206 17f6 C943     		mvns r1, r1
 3207 17f8 0131     		adds r1, r1, # 1
 3208 17fa 0137     		adds r7, r7, # 1
 3209              	b5:
 3210 17fc 00F08CF8 		bl __chengfa
 3211              	b6:
 3212 1800 012F     		cmp r7, # 1
 3213 1802 01D1     		bne a2
 3214 1804 C043     		mvns r0, r0
 3215 1806 C943     		mvns r1, r1
 3216              	a2:
 3217 1808 4919     		adds r1, r1, r5	@ac+bd低32
 3218 180a 6041     		adcs r0, r0, r4	@ac+bd高32
 3219 180c 0646     		mov r6, r0
 3220 180e 0F46     		mov r7, r1
 3221 1810 5046     		mov r0, r10
 3222 1812 4043     		muls r0, r0, r0
 3223 1814 0446     		mov r4, r0	@c*c
 3224 1816 5846     		mov r0, r11
 3225 1818 4043     		muls r0, r0, r0
 3226 181a 0019     		adds r0, r0, r4
ARM GAS  1.s 			page 65


 3227 181c 01B4     		push {r0}
 3228 181e 3946     		mov r1, r7
 3229 1820 0027     		movs r7, # 0
 3230 1822 0200     		movs r2, r0
 3231 1824 02D5     		bpl b7
 3232 1826 D243     		mvns r2, r2
 3233 1828 0132     		adds r2, r2, # 1
 3234 182a 0137     		adds r7, r7, # 1
 3235              	b7:
 3236 182c 3000     		movs r0, r6
 3237 182e 02D5     		bpl b8
 3238 1830 C043     		mvns r0, r0
 3239 1832 C943     		mvns r1, r1
 3240 1834 0137     		adds r7, r7, # 1
 3241              	b8:
 3242 1836 00F04BF8 		bl __chufa64
 3243 183a 012F     		cmp r7, # 1
 3244 183c 01D1     		bne __bao_cun_chu_fa_shi_bu_jie_guo
 3245 183e C043     		mvns r0, r0
 3246 1840 C943     		mvns r1, r1
 3247              	__bao_cun_chu_fa_shi_bu_jie_guo:
 3248 1842 0646     		mov r6, r0	@实部高32
 3249 1844 0F46     		mov r7, r1	@实部低32
 3250              		@r8=a, r9=b, r10=c, r11=d
 3251              		@(b*c-a*d)/(c*c+d*d)
 3252 1846 0025     		movs r5, # 0
 3253 1848 4846     		mov r0, r9
 3254 184a 0000     		movs r0, r0
 3255 184c 02D5     		bpl b9
 3256 184e C043     		mvns r0, r0
 3257 1850 0130     		adds r0, r0, # 1
 3258 1852 0135     		adds r5, r5, # 1
 3259              	b9:
 3260 1854 5146     		mov r1, r10
 3261 1856 0900     		movs r1, r1
 3262 1858 02D5     		bpl b10
 3263 185a C943     		mvns r1, r1
 3264 185c 0131     		adds r1, r1, # 1
 3265 185e 0135     		adds r5, r5, # 1
 3266              	b10:
 3267 1860 00F05AF8 		bl __chengfa
 3268 1864 012D     		cmp r5, # 1
 3269 1866 01D1     		bne a3
 3270 1868 C043     		mvns r0, r0
 3271 186a C943     		mvns r1, r1
 3272              	a3:
 3273 186c 0446     		mov r4, r0      @b*c高32
 3274 186e 0D46     		mov r5, r1      @b*c低32
 3275 1870 0023     		movs r3, # 0
 3276 1872 4046     		mov r0, r8
 3277 1874 0000     		movs r0, r0
 3278 1876 02D5     		bpl b11
 3279 1878 C043     		mvns r0, r0
 3280 187a 0130     		adds r0, r0, # 1
 3281 187c 0133     		adds r3, r3, # 1
 3282              	b11:
 3283 187e 5946     		mov r1, r11
ARM GAS  1.s 			page 66


 3284 1880 0900     		movs r1, r1
 3285 1882 02D5     		bpl b12
 3286 1884 C943     		mvns r1, r1
 3287 1886 0131     		adds r1, r1, # 1
 3288 1888 0133     		adds r3, r3, # 1
 3289              	b12:
 3290 188a 00F045F8 		bl __chengfa
 3291 188e 012B     		cmp r3, # 1
 3292 1890 01D1     		bne a4
 3293 1892 C043     		mvns r0, r0
 3294 1894 C943     		mvns r1, r1
 3295              	a4:
 3296 1896 6D1A     		subs r5, r5, r1 @bc-ad低32
 3297 1898 8441     		sbcs r4, r4, r0 @bc-ad高32
 3298 189a 04BC     		pop {r2}
 3299 189c 2946     		mov r1, r5
 3300 189e 0025     		movs r5, # 0
 3301 18a0 1200     		movs r2, r2
 3302 18a2 02D5     		bpl b13
 3303 18a4 D243     		mvns r2, r2
 3304 18a6 0132     		adds r2, r2, # 1
 3305 18a8 0135     		adds r5, r5, # 1
 3306              	b13:
 3307 18aa 2000     		movs r0, r4
 3308 18ac 02D5     		bpl b14
 3309 18ae C043     		mvns r0, r0
 3310 18b0 C943     		mvns r1, r1
 3311 18b2 0135     		adds r5, r5, # 1
 3312              	b14:
 3313 18b4 00F00CF8 		bl __chufa64
 3314 18b8 012D     		cmp r5, # 1
 3315 18ba 02D1     		bne __bao_cun_chu_fa_xu_bu_jie_guo
 3316 18bc C943     		mvns r1, r1
 3317 18be C043     		mvns r0, r0
 3318 18c0 0131     		adds r1, r1, # 1
 3319              	__bao_cun_chu_fa_xu_bu_jie_guo:
 3320 18c2 3A46     		mov r2, r7
 3321 18c4 F0BC     		pop {r4-r7}
 3322 18c6 A046     		mov r8, r4
 3323 18c8 A946     		mov r9, r5
 3324 18ca B246     		mov r10, r6
 3325 18cc BB46     		mov r11, r7
 3326 18ce F0BD     		pop {r4-r7,pc}
 3327              	
 3328              	__chufa64:
 3329              		@64位除32位
 3330              		@ （R0=高32位R1=低32位）除（R2)= （R0高32）（R1低32）
 3331 18d0 F8B5     		push {r3-r7,lr}
 3332 18d2 002A     		cmp r2, # 0
 3333 18d4 1DD0     		beq __chu_fa64_fan_hui0
 3334 18d6 0029     		cmp r1, # 0
 3335 18d8 01D1     		bne __chu_fa64_ji_suan
 3336 18da 0028     		cmp r0, # 0
 3337 18dc 19D0     		beq __chu_fa64_fan_hui0
 3338              	__chu_fa64_ji_suan:
 3339 18de 0024     		movs r4, # 0
 3340 18e0 2746     		mov r7, r4
ARM GAS  1.s 			page 67


 3341 18e2 2346     		mov r3, r4
 3342 18e4 2546     		mov r5, r4
 3343 18e6 0126     		movs r6, # 1
 3344 18e8 F607     		lsls r6, r6, # 31
 3345              	__chu_fa64_xun_huan:
 3346 18ea 4900     		lsls r1, r1, # 1
 3347 18ec 4041     		adcs r0, r0, r0
 3348 18ee 6441     		adcs r4, r4, r4
 3349 18f0 9442     		cmp r4, r2
 3350 18f2 02D3     		bcc __chu_fa_yi_wei
 3351 18f4 9B19     		adds r3, r3, r6
 3352 18f6 7D41     		adcs r5, r5, r7
 3353 18f8 A41A     		subs r4, r4, r2
 3354              	__chu_fa_yi_wei:
 3355 18fa 3600     		movs r6, r6
 3356 18fc 04D0     		beq __di_yi_wei
 3357 18fe 7608     		lsrs r6, r6, # 1        @高32位移位
 3358 1900 F3D1     		bne __chu_fa64_xun_huan
 3359 1902 0127     		movs r7, # 1
 3360 1904 FF07     		lsls r7, r7, # 31
 3361 1906 F0E7     		b __chu_fa64_xun_huan
 3362              	__di_yi_wei:	            @低32位移位
 3363 1908 7F08     		lsrs r7, r7, # 1
 3364 190a EED1     		bne __chu_fa64_xun_huan
 3365 190c 1846     		mov r0, r3
 3366 190e 2946     		mov r1, r5
 3367 1910 F8BD     		pop {r3-r7,pc}
 3368              	__chu_fa64_fan_hui0:
 3369 1912 0020     		movs r0, # 0
 3370 1914 0021     		movs r1, # 0
 3371 1916 F8BD     		pop {r3-r7,pc}
 3372              	__chengfa:
 3373              		@入R0 乘以 R1
 3374              		@出 R0高32 ， R1低32
 3375              		@0xffffffff*0xffffffff
 3376              		@4        F F F E 0 0 0 1                       @4
 3377              		@3                F F F E 0 0 0 1               @3
 3378              		@2                F F F E 0 0 0 1               @2
 3379              		@1                        F F F E 0 0 0 1       @1
 3380              		@         F F F F F F F E 0 0 0 0 0 0 0 1
 3381 1918 FCB5     		push {r2-r7,lr}
 3382 191a 0028     		cmp r0, # 0
 3383 191c 1ED0     		beq __cheng_fa_fan_hui
 3384 191e 0029     		cmp r1, # 0
 3385 1920 1CD0     		beq __cheng_fa_fan_hui
 3386              	__ji_suan_cheng_fa:
 3387 1922 0246     		mov r2, r0
 3388 1924 0B46     		mov r3, r1
 3389 1926 000C     		lsrs r0, r0, # 16       @高16
 3390 1928 1204     		lsls r2, r2, # 16       @ 低16
 3391 192a 120C     		lsrs r2, r2, # 16
 3392 192c 090C     		lsrs r1, r1, # 16       @高16
 3393 192e 1B04     		lsls r3, r3, # 16       @低16
 3394 1930 1B0C     		lsrs r3, r3, # 16
 3395 1932 1446     		mov r4, r2
 3396 1934 0546     		mov r5, r0
 3397 1936 5A43     		muls r2, r2, r3         @1
ARM GAS  1.s 			page 68


 3398 1938 5843     		muls r0, r0, r3         @2
 3399 193a 4C43     		muls r4, r4, r1         @3
 3400 193c 4D43     		muls r5, r5, r1         @4
 3401 193e 0646     		mov r6, r0
 3402 1940 2746     		mov r7, r4
 3403 1942 0004     		lsls r0, r0, # 16       @2低32
 3404 1944 2404     		lsls r4, r4, # 16       @3低32
 3405 1946 360C     		lsrs r6, r6, # 16       @2高32
 3406 1948 3F0C     		lsrs r7, r7, # 16       @3高32
 3407 194a 0021     		movs r1, # 0
 3408 194c 1218     		adds r2, r2, r0         @低32
 3409 194e 4E41     		adcs r6, r6, r1         @高32
 3410 1950 1219     		adds r2, r2, r4
 3411 1952 7E41     		adcs r6, r6, r7
 3412 1954 7619     		adds r6, r6, r5
 3413 1956 3046     		mov r0, r6
 3414 1958 1146     		mov r1, r2
 3415 195a FCBD     		pop {r2-r7,pc}
 3416              	__cheng_fa_fan_hui:
 3417 195c 0020     		movs r0, # 0
 3418 195e 0021     		movs r1, # 0
 3419 1960 FCBD     		pop {r2-r7,pc}
 3420              		
 3421              	_chufa:				@软件除法
 3422              		@ r0 除以 r1 等于 商(r0)
 3423 1962 1EB5     		push {r1-r4,lr}
 3424 1964 0028     		cmp r0, # 0
 3425 1966 0ED0     		beq _chufafanhui
 3426 1968 0029     		cmp r1, # 0
 3427 196a 0CD0     		beq _chufafanhui
 3428 196c 0246     		mov r2, r0
 3429 196e 0123     		movs r3, # 1
 3430 1970 DB07     		lsls r3, r3, # 31
 3431 1972 0020     		movs r0, # 0
 3432 1974 0446     		mov r4, r0
 3433              	_chufaxunhuan:
 3434 1976 5200     		lsls r2, r2, # 1
 3435 1978 6441     		adcs r4, r4, r4
 3436 197a 8C42     		cmp r4, r1
 3437 197c 01D3     		bcc _chufaweishubudao0
 3438 197e C018     		adds r0, r0, r3
 3439 1980 641A     		subs r4, r4, r1
 3440              	_chufaweishubudao0:
 3441 1982 5B08     		lsrs r3, r3, # 1
 3442 1984 F7D1     		bne _chufaxunhuan
 3443              	_chufafanhui:
 3444 1986 1EBD     		pop {r1-r4,pc}
 3445              		.ltorg
 3446              	__fushu_chufa:
 3447              		@入口R0=Z1_R, R1=Z1_I,R2=Z2_R,R3=Z2_I
 3448              		@出口R0=Z_R,R1=Z_I
 3449 1988 F0B5     		push {r4-r7,lr}
 3450 198a 0646     		mov r6, r0
 3451 198c 0F46     		mov r7, r1
 3452 198e C003     		lsls r0, r0, # 15
 3453 1990 C903     		lsls r1, r1, # 15
 3454 1992 FFF741F8 		bl __suan_atan2
ARM GAS  1.s 			page 69


 3455 1996 0546     		mov r5, r0
 3456 1998 1046     		mov r0, r2
 3457 199a 1946     		mov r1, r3
 3458 199c C003     		lsls r0, r0, # 15
 3459 199e C903     		lsls r1, r1, # 15
 3460 19a0 FFF73AF8 		bl __suan_atan2
 3461              	@	bkpt # 0
 3462 19a4 2946     		mov r1, r5
 3463 19a6 081A     		subs r0, r1, r0 @算角度差
 3464 19a8 01D5     		bpl __suan_shangxiabi_fudu
 3465 19aa 5149     		ldr r1, = 11796480      @360*32768
 3466 19ac 4018     		adds r0, r0, r1
 3467              	__suan_shangxiabi_fudu:
 3468 19ae 0546     		mov r5, r0      @保存角度差
 3469              	@	bkpt # 1
 3470 19b0 1046     		mov r0, r2
 3471 19b2 1946     		mov r1, r3
 3472 19b4 FFF742FD 		bl __ji_suan_fu_du
 3473              	@	bkpt # 2
 3474 19b8 0246     		mov r2, r0
 3475 19ba 3046     		mov r0, r6      @上臂R
 3476 19bc 3946     		mov r1, r7      @上臂I
 3477 19be FFF73DFD 		bl __ji_suan_fu_du
 3478              	@	bkpt # 3
 3479 19c2 0146     		mov r1, r0
 3480 19c4 400C     		lsrs r0, r0, # 17
 3481 19c6 C903     		lsls r1, r1, # 15
 3482 19c8 FFF782FF 		bl __chufa64
 3483 19cc 0B46     		mov r3, r1      @Z幅度
 3484              	@	bkpt # 4
 3485 19ce 2846     		mov r0, r5
 3486 19d0 FFF74DF8 		bl __suan_cos_sin
 3487              	@	bkpt # 4
 3488 19d4 0C46     		mov r4, r1
 3489 19d6 1946     		mov r1, r3
 3490 19d8 0022     		movs r2, # 0
 3491 19da 0000     		movs r0, r0
 3492 19dc 02D5     		bpl cl1
 3493 19de 0132     		adds r2, r2, # 1
 3494 19e0 C043     		mvns r0, r0
 3495 19e2 0130     		adds r0, r0, # 1
 3496              	cl1:
 3497 19e4 0900     		movs r1, r1
 3498 19e6 02D5     		bpl cl2
 3499 19e8 0132     		adds r2, r2, # 1
 3500 19ea C943     		mvns r1, r1
 3501 19ec 0131     		adds r1, r1, # 1
 3502              	cl2:
 3503 19ee FFF793FF 		bl __chengfa
 3504              	@	bkpt # 5
 3505 19f2 4004     		lsls r0, r0, # 17
 3506 19f4 C90B     		lsrs r1, r1, # 15
 3507 19f6 0143     		orrs r1, r1, r0
 3508 19f8 012A     		cmp r2, # 1
 3509 19fa 01D1     		bne __suan_xubu
 3510 19fc C943     		mvns r1, r1
 3511 19fe 0131     		adds r1, r1, # 1
ARM GAS  1.s 			page 70


 3512              	__suan_xubu:
 3513 1a00 2046     		mov r0, r4
 3514 1a02 0C46     		mov r4, r1      @实部
 3515 1a04 1946     		mov r1, r3
 3516 1a06 0022     		movs r2, # 0
 3517 1a08 0000     		movs r0, r0
 3518 1a0a 02D5     		bpl cl3
 3519 1a0c 0132     		adds r2, r2, # 1
 3520 1a0e C043     		mvns r0, r0
 3521 1a10 0130     		adds r0, r0, # 1
 3522              	cl3:
 3523 1a12 0900     		movs r1, r1
 3524 1a14 02D5     		bpl cl4
 3525 1a16 0132     		adds r2, r2, # 1
 3526 1a18 C943     		mvns r1, r1
 3527 1a1a 0131     		adds r1, r1, # 1
 3528              	cl4:
 3529 1a1c FFF77CFF 		bl __chengfa
 3530              	@	bkpt #6
 3531 1a20 4004     		lsls r0, r0, # 17
 3532 1a22 C90B     		lsrs r1, r1, # 15
 3533 1a24 0143     		orrs r1, r1, r0
 3534 1a26 012A     		cmp r2, # 1
 3535 1a28 01D1     		bne cl5
 3536 1a2a C943     		mvns r1, r1
 3537 1a2c 0131     		adds r1, r1, # 1
 3538              	cl5:
 3539 1a2e 2046     		mov r0, r4
 3540 1a30 F0BD     		pop {r4-r7,pc}
 3541              	
 3542              	__fushu_chengfa:
 3543              		@入口R0=Z1_R, R1=Z1_I,R2=Z2_R,R3=Z2_I
 3544              		@出口R0=Z_R,R1=Z_I
 3545 1a32 F0B5     		push {r4-r7,lr}
 3546 1a34 0646     		mov r6, r0
 3547 1a36 0F46     		mov r7, r1
 3548 1a38 C003     		lsls r0, r0, # 15
 3549 1a3a C903     		lsls r1, r1, # 15
 3550 1a3c FEF7ECFF 		bl __suan_atan2
 3551 1a40 0546     		mov r5, r0
 3552 1a42 1046     		mov r0, r2
 3553 1a44 1946     		mov r1, r3
 3554 1a46 C003     		lsls r0, r0, # 15
 3555 1a48 C903     		lsls r1, r1, # 15
 3556 1a4a FEF7E5FF 		bl __suan_atan2
 3557 1a4e 00BE     		bkpt # 0
 3558 1a50 2946     		mov r1, r5
 3559 1a52 0818     		adds r0, r1, r0 @算角度差
 3560 1a54 2649     		ldr r1, = 11796480      @360*32768
 3561 1a56 8842     		cmp r0, r1
 3562 1a58 00D3     		bcc __suan_chengfa_shangxiabi_fudu
 3563 1a5a 401A     		subs r0, r0, r1
 3564              	__suan_chengfa_shangxiabi_fudu:
 3565 1a5c 0546     		mov r5, r0      @保存角度和
 3566 1a5e 01BE     	       bkpt # 1
 3567 1a60 1046     		mov r0, r2
 3568 1a62 1946     		mov r1, r3
ARM GAS  1.s 			page 71


 3569 1a64 FFF7EAFC 		bl __ji_suan_fu_du
 3570 1a68 02BE     	       bkpt # 2
 3571 1a6a 0246     		mov r2, r0
 3572 1a6c 3046     		mov r0, r6      @上臂R
 3573 1a6e 3946     		mov r1, r7      @上臂I
 3574 1a70 FFF7E4FC 		bl __ji_suan_fu_du
 3575 1a74 03BE     		bkpt # 3
 3576 1a76 1146     		mov r1, r2
 3577 1a78 FFF74EFF 		bl __chengfa
 3578 1a7c 4004     		lsls r0, r0, # 17
 3579 1a7e C90B     		lsrs r1, r1, # 15
 3580 1a80 0843     		orrs r0, r0, r1
 3581 1a82 0346     		mov r3, r0      @Z幅度
 3582 1a84 04BE     		bkpt # 4
 3583 1a86 2846     		mov r0, r5
 3584 1a88 FEF7F1FF 		bl __suan_cos_sin
 3585 1a8c 04BE     	       bkpt # 4
 3586 1a8e 0C46     		mov r4, r1
 3587 1a90 1946     		mov r1, r3
 3588 1a92 0022     		movs r2, # 0
 3589 1a94 0000     		movs r0, r0
 3590 1a96 02D5     		bpl cf1
 3591 1a98 0132     		adds r2, r2, # 1
 3592 1a9a C043     		mvns r0, r0
 3593 1a9c 0130     		adds r0, r0, # 1
 3594              	cf1:
 3595 1a9e 0900     		movs r1, r1
 3596 1aa0 02D5     		bpl cf2
 3597 1aa2 0132     		adds r2, r2, # 1
 3598 1aa4 C943     		mvns r1, r1
 3599 1aa6 0131     		adds r1, r1, # 1
 3600              	cf2:
 3601 1aa8 FFF736FF 		bl __chengfa
 3602 1aac 05BE     	       bkpt # 5
 3603 1aae 4004     		lsls r0, r0, # 17
 3604 1ab0 C90B     		lsrs r1, r1, # 15
 3605 1ab2 0143     		orrs r1, r1, r0
 3606 1ab4 012A     		cmp r2, # 1
 3607 1ab6 01D1     		bne __suan_chengfa_xubu
 3608 1ab8 C943     		mvns r1, r1
 3609 1aba 0131     		adds r1, r1, # 1
 3610              	__suan_chengfa_xubu:
 3611 1abc 2046     		mov r0, r4
 3612 1abe 0C46     		mov r4, r1      @实部
 3613 1ac0 1946     		mov r1, r3
 3614 1ac2 0022     		movs r2, # 0
 3615 1ac4 0000     		movs r0, r0
 3616 1ac6 02D5     		bpl cf3
 3617 1ac8 0132     		adds r2, r2, # 1
 3618 1aca C043     		mvns r0, r0
 3619 1acc 0130     		adds r0, r0, # 1
 3620              	cf3:
 3621 1ace 0900     		movs r1, r1
 3622 1ad0 02D5     		bpl cf4
 3623 1ad2 0132     		adds r2, r2, # 1
 3624 1ad4 C943     		mvns r1, r1
 3625 1ad6 0131     		adds r1, r1, # 1
ARM GAS  1.s 			page 72


 3626              	cf4:
 3627 1ad8 FFF71EFF 		bl __chengfa
 3628 1adc 06BE     	       bkpt #6
 3629 1ade 4004     		lsls r0, r0, # 17
 3630 1ae0 C90B     		lsrs r1, r1, # 15
 3631 1ae2 0143     		orrs r1, r1, r0
 3632 1ae4 012A     		cmp r2, # 1
 3633 1ae6 01D1     		bne cf5
 3634 1ae8 C943     		mvns r1, r1
 3635 1aea 0131     		adds r1, r1, # 1
 3636              	cf5:
 3637 1aec 2046     		mov r0, r4
 3638 1aee F0BD     		pop {r4-r7,pc}
 3639 1af0 0000B400 		.ltorg
 3640              	__fu_shu_cheng_fa:
 3641 1af4 F0B5     		push {r4-r7,lr}
 3642              		@r0=a,r1=b,r2=c,r3=d
 3643 1af6 0446     		mov r4, r0      @a
 3644 1af8 0D46     		mov r5, r1      @b
 3645 1afa 1646     		mov r6, r2      @c
 3646 1afc 1F46     		mov r7, r3      @d
 3647 1afe 5043     		muls r0, r0, r2 @a*c
 3648 1b00 5943     		muls r1, r1, r3 @b*d
 3649 1b02 401A     		subs r0, r0, r1 @ac-bd
 3650 1b04 7C43     		muls r4, r4, r7 @a*d
 3651 1b06 7543     		muls r5, r5, r6 @b*c
 3652 1b08 6419     		adds r4, r4, r5 @ad+bc
 3653 1b0a 2146     		mov r1, r4
 3654 1b0c F0BD     		pop {r4-r7,pc}
 3655              		.ltorg
 3656              	__osm_jiaozhun:
 3657              		@入口R0-R1=ZS，R2-R3=ZXM，R4-R5=ZSM，R6-R7=ZO
 3658              		@出口R0=R，R1=I
 3659 1b0e 00B5     		push {lr}
 3660 1b10 4446     		mov r4, r8
 3661 1b12 4D46     		mov r5, r9
 3662 1b14 5646     		mov r6, r10
 3663 1b16 5F46     		mov r7, r11
 3664 1b18 F0B4     		push {r4-r7}
 3665              		@       ldr r0, = -61           @zs
 3666              		@       ldr r1, = 70
 3667              		@       ldr r2, = 555           @zxm
 3668              		@       ldr r3, = 81
 3669              		@       ldr r4, = 555           @zsm
 3670              		@       ldr r5, = 81
 3671              		@       ldr r6, = -6864107      @zo
 3672              		@       ldr r7, = -9872402
 3673 1b1a 8046     		mov r8, r0
 3674 1b1c 8946     		mov r9, r1
 3675 1b1e 801A     		subs r0, r0, r2         @zs-zxm
 3676 1b20 C91A     		subs r1, r1, r3
 3677 1b22 8246     		mov r10, r0
 3678 1b24 8B46     		mov r11, r1
 3679              	
 3680 1b26 4046     		mov r0, r8
 3681 1b28 4946     		mov r1, r9
 3682 1b2a 001B     		subs r0, r0, r4         @zs-zsm
ARM GAS  1.s 			page 73


 3683 1b2c 491B     		subs r1, r1, r5
 3684              	
 3685 1b2e 921B     		subs r2, r2, r6         @zxm-zo
 3686 1b30 DB1B     		subs r3, r3, r7
 3687              	
 3688 1b32 A41B     		subs r4, r4, r6         @zsm-zo
 3689 1b34 ED1B     		subs r5, r5, r7
 3690              	
 3691 1b36 FFF7DDFF 		bl __fu_shu_cheng_fa    @(zxm-zo)*(zs-zsm)
 3692 1b3a 2246     		mov r2, r4
 3693 1b3c 2B46     		mov r3, r5
 3694              	
 3695 1b3e 0446     		mov r4, r0
 3696 1b40 0D46     		mov r5, r1
 3697              	
 3698 1b42 5046     		mov r0, r10
 3699 1b44 5946     		mov r1, r11
 3700 1b46 FFF7D5FF 		bl __fu_shu_cheng_fa    @(zs-zxm)*(zsm-zo)
 3701              	
 3702 1b4a 2246     		mov r2, r4
 3703 1b4c 2B46     		mov r3, r5
 3704 1b4e FFF71BFF 		bl __fushu_chufa
 3705 1b52 F0BC     		pop {r4-r7}
 3706 1b54 A046     		mov r8, r4
 3707 1b56 A946     		mov r9, r5
 3708 1b58 B246     		mov r10, r6
 3709 1b5a BB46     		mov r11, r7
 3710 1b5c 00BD     		pop {pc}
 3711              		.ltorg
 3712              		
 3713              	_nmi_handler:
 3714 1b5e 7047     		bx lr
 3715              	_hard_fault:
 3716 1b60 7047     		bx lr
 3717              	_svc_handler:
 3718 1b62 7047     		bx lr
 3719              	_pendsv_handler:
 3720 1b64 7047     		bx lr
 3721              	_systickzhongduan:
 3722 1b66 10B5     		push {r4,lr}
 3723 1b68 264A     		ldr r2, = shangxiabi_qiehuan
 3724 1b6a 1368     		ldr r3, [r2]
 3725 1b6c 012B     		cmp r3, # 1
 3726 1b6e 24D1     		bne __shangbi_dft
 3727              	__xiabi_dft:
 3728 1b70 0023     		movs r3, # 0
 3729 1b72 1360     		str r3, [r2]
 3730 1b74 244A     		ldr r2, = 0x48000400
 3731 1b76 0223     		movs r3, #  0x02
 3732 1b78 9362     		str r3, [r2, # 0x28]    @cd4053_9_10  0X28上臂开
 3733 1b7a 2448     		ldr r0, = liangcheng
 3734 1b7c 2449     		ldr r1, = shangbi_liangcheng
 3735 1b7e 0068     		ldr r0, [r0]
 3736 1b80 4000     		lsls r0, r0, # 1
 3737 1b82 244A     		ldr r2, = 0x48000000
 3738 1b84 0B5A     		ldrh  r3, [r1, r0]
 3739 1b86 5361     		str r3, [r2, # 0x14]
ARM GAS  1.s 			page 74


 3740 1b88 FFF73AFD 		bl __dft
 3741 1b8c C043     		mvns r0, r0
 3742 1b8e C943     		mvns r1, r1
 3743 1b90 0130     		adds r0, r0, # 1
 3744 1b92 0131     		adds r1, r1, # 1
 3745 1b94 204A     		ldr r2, = xiabi_rr
 3746 1b96 214B     		ldr r3, = xiabi_ii
 3747 1b98 1060     		str r0, [r2]
 3748 1b9a 1960     		str r1, [r3]
 3749 1b9c 0446     		mov r4, r0
 3750 1b9e 204A     		ldr r2, = lvboqizhizhen3
 3751 1ba0 2048     		ldr r0, =lvboqihuanchong3
 3752 1ba2 FFF757FD 		bl __lv_bo_qi
 3753 1ba6 2049     		ldr r1, = xiabi_i
 3754 1ba8 0860     		str r0, [r1]
 3755 1baa 2146     		mov r1, r4
 3756 1bac 1F4A     		ldr r2, = lvboqizhizhen2
 3757 1bae 2048     		ldr r0, = lvboqihuanchong2
 3758 1bb0 FFF750FD 		bl __lv_bo_qi
 3759 1bb4 1F49     		ldr r1, = xiabi_r
 3760 1bb6 0860     		str r0, [r1]
 3761 1bb8 1FE0     		b __systick_fanhui
 3762              	
 3763              	__shangbi_dft:
 3764 1bba 0123     		movs r3, # 1
 3765 1bbc 1360     		str r3, [r2]
 3766 1bbe 1348     		ldr r0, = liangcheng
 3767 1bc0 1D49     		ldr r1, = xiabi_liangcheng
 3768 1bc2 0068     		ldr r0, [r0]
 3769 1bc4 4000     		lsls r0, r0, # 1
 3770 1bc6 134A     		ldr r2, = 0x48000000
 3771 1bc8 0B5A     		ldrh r3, [r1, r0]
 3772 1bca 0F48     	        ldr r0, = 0x48000400
 3773 1bcc 0221     		movs r1, #  0x02
 3774 1bce 8161     		str r1, [r0, # 0x18]    @cd4053_9_10 下臂开
 3775 1bd0 5361     		str r3, [r2, # 0x14]
 3776 1bd2 FFF715FD 		bl __dft
 3777 1bd6 194A     		ldr r2, = shangbi_rr
 3778 1bd8 194B     		ldr r3, = shangbi_ii
 3779 1bda 1060     		str r0, [r2]
 3780 1bdc 1960     		str r1, [r3]
 3781 1bde 0446     		mov r4, r0
 3782 1be0 184A     		ldr r2, = lvboqizhizhen1
 3783 1be2 1948     		ldr r0, =lvboqihuanchong1
 3784 1be4 FFF736FD 		bl __lv_bo_qi
 3785 1be8 1849     		ldr r1, = shangbi_i
 3786 1bea 0860     		str r0, [r1]
 3787 1bec 2146     		mov r1, r4
 3788 1bee 184A     		ldr r2, = lvboqizhizhen
 3789 1bf0 1848     		ldr r0, =lvboqihuanchong
 3790 1bf2 FFF72FFD 		bl __lv_bo_qi
 3791 1bf6 1849     		ldr r1, = shangbi_r
 3792 1bf8 0860     		str r0, [r1]
 3793              	@	ldr r0, = jishu
 3794              	@	ldr r1, [r0]
 3795              	@	subs r1, r1, # 1
 3796              	@	str r1, [r0]
ARM GAS  1.s 			page 75


 3797              	@	bne __systick_fanhui
 3798              	@	movs r1, # 1
 3799              	@	str r1, [r0]
 3800              	@	ldr r0, = xianshi_biaozhi
 3801              	@	movs r1, # 1
 3802              	@	str r1, [r0]
 3803              	@	bl __jisuan_z_fudu
 3804              	@	ldr r0, = zidong_dangwei_kaiguan
 3805              	@	ldr r0, [r0]
 3806              	@	cmp r0, # 1
 3807              	@	beq __systick_fanhui
 3808              	@	bl __zidong_dangwei
 3809              	__systick_fanhui:
 3810 1bfa 1848     		ldr r0, = 0xe0000d04
 3811 1bfc 1849     		ldr r1, = 0x02000000
 3812 1bfe 0160     		str r1, [r0]                 @ 清除SYSTICK中断
 3813 1c00 10BD     		pop {r4,pc}
 3814              	
 3815              	aaa:
 3816 1c02 7047     		bx lr
 3817 1c04 34000020 		.ltorg
 3817      00040048 
 3817      38000020 
 3817      4C150000 
 3817      00000048 
 3818              		.end
ARM GAS  1.s 			page 76


DEFINED SYMBOLS
                 1.s:9      .data:0000000000000000 kailu
                 1.s:11     .data:0000000000000010 duanlu
                 1.s:13     .data:0000000000000020 H
                 1.s:15     .data:0000000000000022 mH
                 1.s:17     .data:0000000000000024 uH
                 1.s:19     .data:0000000000000026 nH
                 1.s:21     .data:0000000000000028 $d
                 1.s:22     .data:0000000000000030 diangan_danwei
                 1.s:27     .data:0000000000000040 diangan_danwei100hz
                 1.s:31     .data:00000000000000a0 diangan_danwei1khz
                 1.s:35     .data:0000000000000100 diangan_danwei10khz
                 1.s:39     .data:0000000000000160 diangan_danwei100khz
                 1.s:43     .data:00000000000001c0 diangan_xiaoshudian
                 1.s:48     .data:00000000000001d0 diangan_100hz
                 1.s:52     .data:00000000000001e8 diangan_1khz
                 1.s:56     .data:0000000000000200 diangan_10khz
                 1.s:60     .data:0000000000000218 diangan_100khz
                 1.s:66     .data:0000000000000230 MF
                 1.s:68     .data:0000000000000232 UF
                 1.s:70     .data:0000000000000234 NF
                 1.s:72     .data:0000000000000236 PF
                 1.s:75     .data:0000000000000240 dianrong_danwei
                 1.s:80     .data:0000000000000250 dianrong_danwei100hz
                 1.s:84     .data:00000000000002b0 dianrong_danwei1khz
                 1.s:88     .data:0000000000000310 dianrong_danwei10khz
                 1.s:92     .data:0000000000000370 dianrong_danwei100khz
                 1.s:96     .data:00000000000003d0 dianrong_xiaoshudian
                 1.s:101    .data:00000000000003e0 dianrong_xiaoshudian100hz
                 1.s:105    .data:00000000000003f8 dianrong_xiaoshudian1khz
                 1.s:109    .data:0000000000000410 dianrong_xiaoshudian10khz
                 1.s:113    .data:0000000000000428 dianrong_xiaoshudian100khz
                 1.s:117    .data:0000000000000440 dianrong_weishu
                 1.s:122    .data:0000000000000450 dianrong_weishu100hz
                 1.s:126    .data:0000000000000480 dianrong_weishu1khz
                 1.s:130    .data:00000000000004b0 dianrong_weishu10khz
                 1.s:134    .data:00000000000004e0 dianrong_weishu100khz
                 1.s:139    .data:0000000000000510 jiaozhun_0.5555
                 1.s:141    .data:0000000000000515 jiaozhun_1.666
                 1.s:143    .data:000000000000051a jiaozhun_3.333
                 1.s:145    .data:000000000000051f jiaozhun_5.555
                 1.s:147    .data:0000000000000524 jiaozhun_10
                 1.s:149    .data:0000000000000529 jiaozhun_16.66
                 1.s:151    .data:000000000000052e jiaozhun_33.33
                 1.s:153    .data:0000000000000533 jiaozhun_100
                 1.s:155    .data:0000000000000538 jiaozhun_300
                 1.s:157    .data:000000000000053d jiaozhun_600
                 1.s:159    .data:0000000000000542 jiaozhun_1k
                 1.s:161    .data:0000000000000547 jiaozhun_3k
                 1.s:163    .data:000000000000054c jiaozhun_6k
                 1.s:165    .data:0000000000000551 jiaozhun_10k
                 1.s:167    .data:0000000000000556 jiaozhun_30k
                 1.s:169    .data:000000000000055b jiaozhun_60k
                 1.s:171    .data:0000000000000560 jiaozhun_100k
                 1.s:173    .data:0000000000000565 jiaozhun_300k
                 1.s:175    .data:000000000000056a jiaozhun_600k
                 1.s:177    .data:000000000000056f jiaozhun_1M
ARM GAS  1.s 			page 77


                 1.s:179    .data:0000000000000574 jiaozhun_1.8M
                 1.s:181    .data:0000000000000579 jiaozhun_3M
                 1.s:183    .data:000000000000057e jiaozhun_6M
                 1.s:185    .data:0000000000000583 jiaozhun_18M
                 1.s:187    .data:0000000000000588 jiaozhun
                 1.s:189    .data:0000000000000590 jiaozhun_wancheng
                 1.s:191    .data:00000000000005a0 guan_ji
                 1.s:193    .data:00000000000005b0 pinlv_100hz
                 1.s:195    .data:00000000000005c0 pinlv_1khz
                 1.s:197    .data:00000000000005d0 pinlv_10khz
                 1.s:199    .data:00000000000005e0 pinlv_100khz
                 1.s:202    .data:00000000000005f0 atan_biao
                 1.s:205    .data:0000000000000650 jiaodu_jiaozhun_yong_cordic
                 1.s:207    .data:0000000000000740 jiaozhun_yong_cordic
                 1.s:209    .data:00000000000007b8 cordic_yong_cos_sin
                 1.s:211    .data:0000000000000838 cordic_yong_atan_biao
                 1.s:214    .data:0000000000000880 zheng_xian_100khz
                 1.s:217    .data:00000000000008a0 zheng_xian_10khz
                 1.s:220    .data:0000000000000910 zheng_xian_1khz
                 1.s:224    .data:0000000000000aa0 zheng_xian_100hz
                 1.s:230    .data:0000000000001270 cos_sin_biao_100k
                 1.s:233    .data:0000000000001314 cos_sin_biao_10k
                 1.s:234    .data:0000000000001314 cos_sin_biao_1k
                 1.s:236    .data:00000000000013b8 cos_sin_biao_100
                 1.s:238    .data:000000000000154c shangbi_liangcheng
                 1.s:242    .data:000000000000157c xiabi_liangcheng
                 1.s:247    .data:00000000000015b0 zukang_xiaoshu_dian
                 1.s:252    .data:00000000000015d0 qiwang_fudu
                 1.s:256    .data:0000000000001630 qiwang_jiaodu_100hz
                 1.s:260    .data:0000000000001690 qiwang_jiaodu_1khz
                 1.s:264    .data:00000000000016f0 qiwang_jiaodu_10khz
                 1.s:268    .data:0000000000001750 qiwang_jiaodu_100khz
                 1.s:272    .data:00000000000017b0 qiwang_jiaodu_biao
                 1.s:277    .data:00000000000017c0 zukang_dianzu_biao
                 1.s:281    .data:0000000000001820 zukang_danwei
                 1.s:286    .data:0000000000001880 pinlv_qiehuan_yanshi_biao
                 1.s:289    .data:0000000000001890 an_jian_biao
                 1.s:1317   .text:00000000000007c0 __an_jian0
                 1.s:702    .text:0000000000000288 __dang_wei_jia
                 1.s:668    .text:00000000000001ca __pin_lv_jia
                 1.s:955    .text:00000000000004a6 __an_jian3
                 1.s:294    .data:00000000000018a0 pinlv_biao
                 1.s:2117   .text:0000000000000dba __pinlv_100
                 1.s:2199   .text:0000000000000f04 __pinlv_1K
                 1.s:2277   .text:0000000000000ff8 __pinlv_10K
                 1.s:2354   .text:00000000000010ec __pinlv_100K
                 1.s:300    .data:00000000000018b0 pinlv_xianshi_biao
                 1.s:305    .data:00000000000018c0 dangwei_xianshi_biao
                 1.s:331    .data:0000000000001920 kong
                 1.s:333    .data:0000000000001924 _fu
                 1.s:335    .data:0000000000001925 jiaodu1
                 1.s:337    .data:0000000000001929 jiaodufuhao
                 1.s:339    .data:000000000000192d yjmwxwx
                 1.s:342    *ABS*:0000000020001000 STACKINIT
                 1.s:343    *ABS*:0000000020000000 asciimabiao
                 1.s:344    *ABS*:0000000020000020 lcd_beiguang
                 1.s:345    *ABS*:0000000020000024 shangbi_r
ARM GAS  1.s 			page 78


                 1.s:346    *ABS*:0000000020000028 shangbi_i
                 1.s:347    *ABS*:000000002000002c xiabi_r
                 1.s:348    *ABS*:0000000020000030 xiabi_i
                 1.s:349    *ABS*:0000000020000034 shangxiabi_qiehuan
                 1.s:350    *ABS*:0000000020000038 liangcheng
                 1.s:351    *ABS*:000000002000003c z_r
                 1.s:352    *ABS*:0000000020000040 z_i
                 1.s:353    *ABS*:0000000020000044 lvbo_changdu
                 1.s:354    *ABS*:0000000020000048 lvbo_youyi
                 1.s:355    *ABS*:000000002000004c huandangyanshi
                 1.s:356    *ABS*:0000000020000050 shangbi_rr
                 1.s:357    *ABS*:0000000020000054 shangbi_ii
                 1.s:358    *ABS*:0000000020000058 xiabi_rr
                 1.s:359    *ABS*:000000002000005c xiabi_ii
                 1.s:360    *ABS*:0000000020000060 jishu
                 1.s:361    *ABS*:0000000020000064 xianshi_biaozhi
                 1.s:362    *ABS*:0000000020000068 z_fudu
                 1.s:363    *ABS*:000000002000006c cossin
                 1.s:364    *ABS*:0000000020000070 pinlv
                 1.s:365    *ABS*:0000000020000074 anjian
                 1.s:366    *ABS*:0000000020000078 zhenfu
                 1.s:367    *ABS*:000000002000007c shezhi_pinlv
                 1.s:368    *ABS*:0000000020000080 zidong_dangwei_kaiguan
                 1.s:369    *ABS*:0000000020000084 z_r_jiaozhun
                 1.s:370    *ABS*:0000000020000088 z_i_jiaozhun
                 1.s:371    *ABS*:000000002000008c z_jiaozhun
                 1.s:372    *ABS*:0000000020000094 flash_cachu_biaozhi
                 1.s:373    *ABS*:0000000020000098 jiaozhun_biao_zhizhen
                 1.s:374    *ABS*:000000002000009c cs
                 1.s:375    *ABS*:00000000200000a0 ls
                 1.s:376    *ABS*:00000000200000a4 osm_biao_zhizhen
                 1.s:377    *ABS*:00000000200000a8 osm_flash_biaozhi
                 1.s:380    *ABS*:0000000020000100 dianyabiao
                 1.s:381    *ABS*:00000000200008d0 lvboqizhizhen
                 1.s:382    *ABS*:00000000200008d8 lvboqihuanchong
                 1.s:383    *ABS*:0000000020000a68 lvboqizhizhen1
                 1.s:384    *ABS*:0000000020000a70 lvboqihuanchong1
                 1.s:385    *ABS*:0000000020000c00 lvboqizhizhen2
                 1.s:386    *ABS*:0000000020000c08 lvboqihuanchong2
                 1.s:387    *ABS*:0000000020000d98 lvboqizhizhen3
                 1.s:388    *ABS*:0000000020000da0 lvboqihuanchong3
                 1.s:389    *ABS*:000000001fffef62 fjiesuo
                 1.s:390    *ABS*:000000001fffef6e ojiesuo
                 1.s:391    *ABS*:000000001fffeff8 quanca
                 1.s:392    *ABS*:000000001fffefda yeca
                 1.s:393    *ABS*:000000001ffff020 zica
                 1.s:394    *ABS*:000000001fffef9a xieflash
                 1.s:395    *ABS*:000000001ffff048 zixie
                 1.s:396    *ABS*:000000001ffff0a6 xiebaohu
                 1.s:397    *ABS*:000000001ffff124 jiancedubaohu
                 1.s:398    *ABS*:000000001fffef7a flashmang
                 1.s:402    .text:0000000000000000 vectors
                 1.s:448    .text:00000000000000b0 _start
                 1.s:3713   .text:0000000000001b5e _nmi_handler
                 1.s:3715   .text:0000000000001b60 _hard_fault
                 1.s:3717   .text:0000000000001b62 _svc_handler
                 1.s:3719   .text:0000000000001b64 _pendsv_handler
ARM GAS  1.s 			page 79


                 1.s:3721   .text:0000000000001b66 _systickzhongduan
                 1.s:3815   .text:0000000000001c02 aaa
                            .text:0000000000000000 $d
                 1.s:447    .text:00000000000000b0 $t
                 1.s:449    .text:00000000000000b0 shizhong
                 1.s:456    .text:00000000000000bc denghse
                 1.s:460    .text:00000000000000c2 dengpllguan
                 1.s:472    .text:00000000000000d6 dengpll
                 1.s:481    .text:00000000000000e0 _waisheshizhong
                 1.s:515    .text:0000000000000106 _neicunqingling
                 1.s:502    .text:00000000000000f6 _neicunqingling1
                 1.s:506    .text:00000000000000fc _neicunqinglingxunhuan1
                 1.s:526    .text:0000000000000114 _waishezhongduan
                 1.s:519    .text:000000000000010c _neicunqinglingxunhuan
                 1.s:548    .text:000000000000011a io_she_zhi
                 1.s:579    .text:0000000000000128 __jlink_moshi
                 1.s:572    .text:000000000000011c __anjian_moshi
                 1.s:583    .text:000000000000012e __pa_shezhi
                 1.s:598    .text:0000000000000144 spi_chushihua
                 1.s:605    .text:000000000000014e _lcdchushihua
                 1.s:3068   .text:00000000000016f2 _xielcd
                 1.s:3061   .text:00000000000016e8 _lcdyanshi
                 1.s:649    .text:00000000000001ae __pinlv_dangwei_chushihua
                 1.s:3044   .text:00000000000016cc _lcdxianshi
                 1.s:639    .text:000000000000019e yjmwxwx_yanshi
                 1.s:2103   .text:0000000000000da6 __pinlv_shezhi
                 1.s:666    .text:00000000000001c8 __an_jian_3
                 1.s:1318   .text:00000000000007c0 ting
                 1.s:678    .text:00000000000001dc __pin_lv_fan_hui
                 1.s:692    .text:00000000000001fa __pinlv_xianshi_yanshi
                 1.s:699    .text:0000000000000206 $d
                 1.s:699    .text:0000000000000208 $d
                 1.s:703    .text:0000000000000288 $t
                 1.s:754    .text:00000000000002ea __deng_que_ren
                 1.s:774    .text:000000000000030a __jinru_kailu_duanlu_jiaozhun
                 1.s:770    .text:0000000000000302 __jiance_anjian1
                 1.s:1194   .text:0000000000000666 __bu_jiaozhun
                 1.s:2095   .text:0000000000000d98 __an_jian
                 1.s:813    .text:0000000000000350 __kailu_duanlu_jiaozhun_kaishi
                 1.s:779    .text:0000000000000312 __cachu_osm_flash
                 1.s:826    .text:0000000000000368 __deng_zukang_wending1
                 1.s:832    .text:0000000000000372 dzd2
                 1.s:2499   .text:000000000000125c __jisuan_zukang
                 1.s:2774   .text:0000000000001480 __xianshi_zukang
                 1.s:930    .text:000000000000042a __jiaozhun_qiehuan_pinlv1
                 1.s:902    .text:00000000000003f6 _neicun_xie_0
                 1.s:906    .text:00000000000003fc _neicun_xie_0_xunhuan
                 1.s:936    .text:000000000000042e $d
                 1.s:936    .text:0000000000000430 $d
                 1.s:939    .text:0000000000000494 $t
                 1.s:947    .text:00000000000004a4 __dang_wei_fan_hui
                 1.s:974    .text:00000000000004ce __jiaozhun_chengxu
                 1.s:971    .text:00000000000004ca __jinru_jiaozhun_yanshi
                 1.s:1002   .text:000000000000050e __dangwei_qiehuan_xunhuan
                 1.s:1021   .text:000000000000052c __jinru_jiaozhun
                 1.s:1016   .text:0000000000000524 __jiance_anjian
                 1.s:1066   .text:000000000000057c __jiaozhun_kaishi
ARM GAS  1.s 			page 80


                 1.s:1026   .text:0000000000000534 __cachu_flash
                 1.s:1079   .text:0000000000000594 __deng_zukang_wending
                 1.s:1086   .text:000000000000059e dzd1
                 1.s:1901   .text:0000000000000c38 __jiaozhun_jiaodu
                 1.s:1881   .text:0000000000000c14 __xiangwei_xuanzhuan
                 1.s:1843   .text:0000000000000bdc __jiaozhun_fudu
                 1.s:1266   .text:00000000000006e6 __jiaozhun_chengxu_fanhui
                 1.s:1312   .text:000000000000073e __jiaozhun_qiehuan_pinlv
                 1.s:1285   .text:000000000000070a _neicun_xie0
                 1.s:1289   .text:0000000000000710 _neicun_xie0_xunhuan
                 1.s:1314   .text:0000000000000740 $d
                 1.s:1319   .text:00000000000007c0 $t
                 1.s:1711   .text:0000000000000ae4 __du_jiaozhun_biao
                 1.s:1735   .text:0000000000000b12 __xiang_wei_xuan_zhuan
                 1.s:2665   .text:0000000000001378 __atan2_ji_suan
                 1.s:2026   .text:0000000000000d28 __xian_shi_jiao_du
                 1.s:1407   .text:000000000000086a __dianrong_xianshi
                 1.s:1367   .text:0000000000000822 __diangan_xianshi
                 1.s:3120   .text:0000000000001768 _zhuanascii
                 1.s:1439   .text:00000000000008ae ting_diaodu
                 1.s:1449   .text:00000000000008bc __jisuan_dianrong
                 1.s:3421   .text:0000000000001962 _chufa
                 1.s:1470   .text:00000000000008e4 dddd
                 1.s:2839   .text:0000000000001500 __xianshi_liangcheng
                 1.s:1528   .text:000000000000095c __cai_dan_diao_du
                 1.s:1534   .text:0000000000000966 $d
                 1.s:1534   .text:0000000000000968 $d
                 1.s:1537   .text:00000000000009b4 __suan_zukang
                 1.s:1538   .text:00000000000009b4 $t
                 1.s:2725   .text:000000000000143c __ji_suan_fu_du
                 1.s:1572   .text:0000000000000a02 __jiaodu_shi_zheng
                 1.s:2561   .text:00000000000012ce __jisuan_cos_sin
                 1.s:1584   .text:0000000000000a18 __suan_atan2
                 1.s:1598   .text:0000000000000a2e __panduan_xubu
                 1.s:1602   .text:0000000000000a34 __suan_atan2_xunhuan
                 1.s:1616   .text:0000000000000a4e __atan2_zhengzhuan
                 1.s:1627   .text:0000000000000a62 __atan2_xuanzhuan
                 1.s:1639   .text:0000000000000a6e __suan_cos_sin
                 1.s:1654   .text:0000000000000a84 __dayu_90
                 1.s:1661   .text:0000000000000a8e __suan_cos_sin_xunhuan
                 1.s:1659   .text:0000000000000a8c __dayu_270
                 1.s:1678   .text:0000000000000aac __zhengzhuan
                 1.s:1666   .text:0000000000000a96 __fanzhuan
                 1.s:1689   .text:0000000000000ac0 __cordic_xuanzhuan
                 1.s:1705   .text:0000000000000ade __suan_cos_sin_fanhui
                 1.s:1750   .text:0000000000000b2c __xuan_zhuan_xiang_wei
                 1.s:1767   .text:0000000000000b4a $d
                 1.s:1767   .text:0000000000000b4c $d
                 1.s:1798   .text:0000000000000b9c _adcchushihua
                 1.s:1800   .text:0000000000000b9c $t
                 1.s:1804   .text:0000000000000ba4 __adc_lianxu
                 1.s:1806   .text:0000000000000ba6 __adc_chushi_hua
                 1.s:1810   .text:0000000000000bac _dengadcjiaozhun
                 1.s:1816   .text:0000000000000bb6 _kaiadc
                 1.s:1821   .text:0000000000000bbe _deng_adc_wen_ding
                 1.s:1825   .text:0000000000000bc4 _tongdaoxuanze
                 1.s:1857   .text:0000000000000bf4 __fudu_jiaozhun_xunhuan
ARM GAS  1.s 			page 81


                 1.s:1864   .text:0000000000000bfe __fudu_jian
                 1.s:1861   .text:0000000000000bfa __fudu_jia
                 1.s:1866   .text:0000000000000c00 __jiaozhun_xuanzhuan
                 1.s:1873   .text:0000000000000c0c __baocun_fudu_jiaozhun
                 1.s:1877   .text:0000000000000c12 __jiaozhun_fudu_fanhui
                 1.s:1922   .text:0000000000000c5c __jiaodu_jiaozhun_xunhuan
                 1.s:1962   .text:0000000000000cac __jiaodu_fanzhuan
                 1.s:1991   .text:0000000000000ce4 __jiaodu_xuanzhuan
                 1.s:2005   .text:0000000000000cfc __xianshi_shangxiabi_jiaodu
                 1.s:2046   .text:0000000000000d4e __jiaodu_bu_shi_zheng
                 1.s:2051   .text:0000000000000d58 __xian_shi_jiaodu
                 1.s:2064   .text:0000000000000d72 __jiaozhun_shu_zhi
                 1.s:2071   .text:0000000000000d7c __z_jiaozhun_xunhuan
                 1.s:2078   .text:0000000000000d86 __z_jian
                 1.s:2075   .text:0000000000000d82 __z_jia
                 1.s:2080   .text:0000000000000d88 __z_xuanzhuan
                 1.s:2087   .text:0000000000000d94 __baocun_z_jiaozhun
                 1.s:2197   .text:0000000000000e48 $d
                 1.s:2201   .text:0000000000000f04 $t
                 1.s:2275   .text:0000000000000f90 $d
                 1.s:2279   .text:0000000000000ff8 $t
                 1.s:2352   .text:0000000000001084 $d
                 1.s:2356   .text:00000000000010ec $t
                 1.s:2417   .text:000000000000115e __pinlv_yanshi
                 1.s:2419   .text:0000000000001160 __pinlv_yanshi_xunhuan
                 1.s:2423   .text:0000000000001166 __pin_lv_xian_shi
                 1.s:2436   .text:0000000000001182 $d
                 1.s:2436   .text:0000000000001184 $d
                 1.s:2438   .text:00000000000011ec __jisuan_z_fudu
                 1.s:2439   .text:00000000000011ec $t
                 1.s:2464   .text:0000000000001222 __zidong_dangwei
                 1.s:2466   .text:0000000000001224 __huan_dang
                 1.s:2486   .text:000000000000124a __dang_wei_jian
                 1.s:2495   .text:000000000000125a __zi_dong_dang_wei_fan_hui
                 1.s:3446   .text:0000000000001988 __fushu_chufa
                 1.s:2523   .text:000000000000128c __z_r_cheng_dianzu
                 1.s:3372   .text:0000000000001918 __chengfa
                 1.s:2532   .text:000000000000129e __z_i_jiance
                 1.s:2542   .text:00000000000012b0 __z_i_cheng_dianzu
                 1.s:2551   .text:00000000000012c2 __jisuan_zukang_fanhui
                 1.s:2571   .text:00000000000012dc __xiaoyu_180
                 1.s:2573   .text:00000000000012de __js_cos_sin
                 1.s:2582   .text:00000000000012ee __jisuan_jiaodu_bushi0
                 1.s:2584   .text:00000000000012f0 __jiance_chao90
                 1.s:2591   .text:00000000000012fc __xiaoyu_90
                 1.s:2593   .text:00000000000012fe __suan_cossin
                 1.s:2604   .text:0000000000001316 __suan_cos_sin1
                 1.s:2619   .text:0000000000001330 __cordic_cos_sin
                 1.s:2610   .text:0000000000001322 __cos_sin_fanhui
                 1.s:2617   .text:000000000000132e __cossin_fh
                 1.s:2633   .text:0000000000001340 cordicxunhuan
                 1.s:2678   .text:000000000000138e __cordic_atan2_xun_huan
                 1.s:2679   .text:000000000000138e __du_cos_sin
                 1.s:2699   .text:00000000000013b2 __ni_shi_zhen_zhuan
                 1.s:2692   .text:00000000000013a6 __shun_shi_zhen_zhuan
                 1.s:2705   .text:00000000000013bc __xuan_zhuan_wan
                 1.s:2724   .text:00000000000013de $d
ARM GAS  1.s 			page 82


                 1.s:2724   .text:00000000000013e0 $d
                 1.s:2730   .text:000000000000143c $t
                 1.s:2735   .text:0000000000001446 _shibubushifushu
                 1.s:2740   .text:000000000000144e _xububushifushu
                 1.s:2745   .text:0000000000001456 _panduanxubushibushi0
                 1.s:2749   .text:000000000000145c _jisuanfudu1
                 1.s:2762   .text:000000000000146e _alpha_min_beta_max
                 1.s:2754   .text:0000000000001464 _alpha_max_beta_min
                 1.s:2773   .text:0000000000001478 $d
                 1.s:2775   .text:0000000000001480 $t
                 1.s:2789   .text:000000000000149e aaa1
                 1.s:2794   .text:00000000000014a8 aaa2
                 1.s:2818   .text:00000000000014d8 bbb1
                 1.s:2823   .text:00000000000014e2 bbb2
                 1.s:2853   .text:000000000000151c __xianshi_shangxia_bi
                 1.s:2868   .text:000000000000153a aa1
                 1.s:2873   .text:0000000000001544 aa2
                 1.s:2894   .text:000000000000156e bb1
                 1.s:2899   .text:0000000000001578 bb2
                 1.s:2923   .text:00000000000015aa cc1
                 1.s:2928   .text:00000000000015b4 cc2
                 1.s:2949   .text:00000000000015de dd1
                 1.s:2954   .text:00000000000015e8 dd2
                 1.s:2966   .text:0000000000001600 __dft
                 1.s:2982   .text:000000000000161e __dft_xunhuan
                 1.s:2990   .text:000000000000162c __du_sin
                 1.s:3012   .text:0000000000001654 __lv_bo_qi
                 1.s:3032   .text:0000000000001674 __huanchong_leijia
                 1.s:3041   .text:0000000000001684 $d
                 1.s:3045   .text:00000000000016cc $t
                 1.s:3053   .text:00000000000016da _lcdxianshixunhuan
                 1.s:3064   .text:00000000000016ec _lcdyanshixunhuan
                 1.s:3082   .text:000000000000170a __lcd_ming_ling
                 1.s:3079   .text:0000000000001706 __lcd_shu_ju
                 1.s:3084   .text:000000000000170c __xie_lcd_shu_ju
                 1.s:3107   .text:0000000000001748 __spi_mang
                 1.s:3112   .text:0000000000001750 __yanshi_595
                 1.s:3114   .text:0000000000001752 __yanshi__595
                 1.s:3118   .text:0000000000001758 $d
                 1.s:3122   .text:0000000000001768 $t
                 1.s:3127   .text:0000000000001772 _xunhuanqiuma
                 1.s:3146   .text:0000000000001796 _qiumafanhui
                 1.s:3141   .text:000000000000178e _meidaoxiaoshudian
                 1.s:3150   .text:000000000000179a __fu_shu_chu_fa
                 1.s:3160   .text:00000000000017a8 __tiao_guo_bei_chu_shu_0_pan_duan
                 1.s:3166   .text:00000000000017b2 __ji_suan_chu_fa
                 1.s:3178   .text:00000000000017c6 b1
                 1.s:3185   .text:00000000000017d2 b2
                 1.s:3187   .text:00000000000017d6 b3
                 1.s:3192   .text:00000000000017de a1
                 1.s:3203   .text:00000000000017f2 b4
                 1.s:3209   .text:00000000000017fc b5
                 1.s:3211   .text:0000000000001800 b6
                 1.s:3216   .text:0000000000001808 a2
                 1.s:3235   .text:000000000000182c b7
                 1.s:3241   .text:0000000000001836 b8
                 1.s:3328   .text:00000000000018d0 __chufa64
ARM GAS  1.s 			page 83


                 1.s:3247   .text:0000000000001842 __bao_cun_chu_fa_shi_bu_jie_guo
                 1.s:3259   .text:0000000000001854 b9
                 1.s:3266   .text:0000000000001860 b10
                 1.s:3272   .text:000000000000186c a3
                 1.s:3282   .text:000000000000187e b11
                 1.s:3289   .text:000000000000188a b12
                 1.s:3295   .text:0000000000001896 a4
                 1.s:3306   .text:00000000000018aa b13
                 1.s:3312   .text:00000000000018b4 b14
                 1.s:3319   .text:00000000000018c2 __bao_cun_chu_fa_xu_bu_jie_guo
                 1.s:3368   .text:0000000000001912 __chu_fa64_fan_hui0
                 1.s:3338   .text:00000000000018de __chu_fa64_ji_suan
                 1.s:3345   .text:00000000000018ea __chu_fa64_xun_huan
                 1.s:3354   .text:00000000000018fa __chu_fa_yi_wei
                 1.s:3362   .text:0000000000001908 __di_yi_wei
                 1.s:3416   .text:000000000000195c __cheng_fa_fan_hui
                 1.s:3386   .text:0000000000001922 __ji_suan_cheng_fa
                 1.s:3443   .text:0000000000001986 _chufafanhui
                 1.s:3433   .text:0000000000001976 _chufaxunhuan
                 1.s:3440   .text:0000000000001982 _chufaweishubudao0
                 1.s:3467   .text:00000000000019ae __suan_shangxiabi_fudu
                 1.s:3496   .text:00000000000019e4 cl1
                 1.s:3502   .text:00000000000019ee cl2
                 1.s:3512   .text:0000000000001a00 __suan_xubu
                 1.s:3522   .text:0000000000001a12 cl3
                 1.s:3528   .text:0000000000001a1c cl4
                 1.s:3538   .text:0000000000001a2e cl5
                 1.s:3542   .text:0000000000001a32 __fushu_chengfa
                 1.s:3564   .text:0000000000001a5c __suan_chengfa_shangxiabi_fudu
                 1.s:3594   .text:0000000000001a9e cf1
                 1.s:3600   .text:0000000000001aa8 cf2
                 1.s:3610   .text:0000000000001abc __suan_chengfa_xubu
                 1.s:3620   .text:0000000000001ace cf3
                 1.s:3626   .text:0000000000001ad8 cf4
                 1.s:3636   .text:0000000000001aec cf5
                 1.s:3639   .text:0000000000001af0 $d
                 1.s:3640   .text:0000000000001af4 __fu_shu_cheng_fa
                 1.s:3641   .text:0000000000001af4 $t
                 1.s:3656   .text:0000000000001b0e __osm_jiaozhun
                 1.s:3763   .text:0000000000001bba __shangbi_dft
                 1.s:3727   .text:0000000000001b70 __xiabi_dft
                 1.s:3809   .text:0000000000001bfa __systick_fanhui
                 1.s:3817   .text:0000000000001c04 $d

NO UNDEFINED SYMBOLS
