ARM GAS  1.s 			page 1


   1              		@ stm32f030f4p6 asm 
   2              		 .thumb                 
   3              	         .syntax unified
   4              	.section .data	
   5              	       	.equ STACKINIT,                 0x20000300	
   6              	.section .text
   7              	vectors:        
   8 0000 00030020 	        .word STACKINIT         
   9 0004 B1000000 	        .word _start + 1        
  10 0008 35010000 	        .word _nmi_handler + 1  
  11 000c 37010000 	        .word _hard_fault  + 1  
  12 0010 00000000 	        .word 0 
  13 0014 00000000 	        .word 0    
  14 0018 00000000 	        .word 0
  15 001c 00000000 		.word 0
  16 0020 00000000 		.word 0
  17 0024 00000000 		.word 0
  18 0028 00000000 		.word 0
  19 002c 39010000 		.word _svc_handler +1
  20 0030 00000000 		.word 0 
  21 0034 00000000 		.word 0
  22 0038 3B010000 		.word _pendsv_handler +1
  23 003c 3D010000 		.word _systick +1               @ 15   
  24 0040 00000000 		.word 0     @ _wwdg +1          @ 0
  25 0044 00000000 		.word 0     @_pvd +1            @ 1
  26 0048 00000000 		.word 0     @_rtc +1            @ 2
  27 004c 00000000 		.word 0     @_flash +1          @ 3
  28 0050 00000000 		.word 0     @ _rcc + 1          @ 4
  29 0054 00000000 		.word 0      @_exti0_1  +1      @ 5
  30 0058 00000000 		.word 0      @ _exti2_3 +1      @ 6
  31 005c 00000000 		.word 0       @_exti4_15 +1     @ 7
  32 0060 00000000 		.word 0                         @ 8
  33 0064 00000000 		.word 0         @_dma1_1  +1    @ 9
  34 0068 00000000 		.word 0    @_dma1_2_3 +1        @ 10
  35 006c 00000000 		.word 0       @_dma1_4_5 +1     @ 11
  36 0070 00000000 		.word 0      @_adc1 +1          @ 12
  37 0074 00000000 		.word 0       @_tim1_brk_up +1  @ 13
  38 0078 00000000 		.word 0        @ _tim1_cc +1    @ 14
  39 007c 00000000 		.word 0         @_tim2 +1       @ 15
  40 0080 00000000 		.word 0          @_tim3 +1      @ 16
  41 0084 00000000 		.word 0                         @ 17
  42 0088 00000000 		.word 0		                @ 18
  43 008c 00000000 		.word 0          @ _tim14 +1    @ 19
  44 0090 00000000 		.word 0                         @ 20
  45 0094 00000000 		.word 0         @_tim16 +1      @ 21
  46 0098 00000000 		.word 0         @_tim17 +1      @ 22
  47 009c 00000000 		.word 0          @_i2c   +1     @ 23
  48 00a0 00000000 		.word 0                         @ 24
  49 00a4 00000000 		.word 0           @_spi   +1    @ 25
  50 00a8 00000000 		.word 0                         @ 26
  51 00ac 00000000 		.word 0         @_usart1 +1     @ 27
  52              		
  53              	_start:
  54              	shizhong:
  55 00b0 234A     		ldr r2, = 0x40022000   @FLASH访问控制
  56 00b2 3221     		movs r1, # 0x32
  57 00b4 1160     		str r1, [r2]
ARM GAS  1.s 			page 2


  58 00b6 2348     		ldr r0, = 0x40021000 @ rcc
  59 00b8 2349     		ldr r1, = 0x200002
  60 00ba 4160     		str r1, [r0, # 0x04]
  61 00bc 2349     		ldr r1, = 0x1000001
  62 00be 0160     		str r1, [r0]
  63              	dengrc:
  64 00c0 0168     		ldr r1, [r0]
  65 00c2 8907     		lsls r1, # 30
  66 00c4 FCD5     		bpl dengrc
  67              	dengpll:
  68 00c6 0168     		ldr r1, [r0]
  69 00c8 8901     		lsls r1, # 6
  70 00ca FCD5     		bpl dengpll
  71              		@0x34时钟控制寄存器 2 (RCC_CR2)
  72 00cc 0121     		movs r1, # 0x01
  73 00ce 4163     		str r1, [r0, # 0x34]  @ HSI开14M时钟
  74              	dengdai14mshizhongwending:
  75 00d0 416B     		ldr r1, [r0, # 0x34]
  76 00d2 8907     		lsls r1, r1, # 30     @ 左移30位
  77 00d4 FCD5     		bpl dengdai14mshizhongwending  @ 等待14M时钟稳定
  78              	
  79              	neicunqingling:
  80 00d6 1E48     		ldr r0, = 0x20000000
  81 00d8 0021     		movs r1, # 0
  82 00da 1E4B     		ldr r3, = 0x1000
  83              	neicunqinglingxunhuan:
  84 00dc 043B     		subs r3, # 4
  85 00de C150     		str r1, [r0, r3]
  86 00e0 FCD1     		bne neicunqinglingxunhuan
  87              	waisheshizhong:	 @ 外设时钟              
  88              		@+0x14 #0(DMA),2(SRAM),4(FLITF),6(CRC),17(PA)
  89              		@18(PB),19(PC),20(PD),22(PF)
  90              		@+0x18 #0(SYSCFG),5(USART6),9(ADC),#11(TIM1)
  91              		@12(SPI), @14(USART1),16(TIM15),17(TIM16),
  92              		@18(TIM17),22(DBGMCU)
  93              		@+0X1C # 1(TIM3),4(TIM6),5(TIM7),8(TIM14),11(WWDG),
  94              		@14(SPI2),17(USART2),18(USART3),19(USART4),20(USART5)
  95              		@21(I2C1),22(I2C2),23(USB),28(PWR)
  96 00e2 1848     		ldr r0, = 0x40021000
  97 00e4 1C49     		ldr r1, = 0x60005
  98 00e6 4161     		str r1, [r0, # 0x14]
  99 00e8 0221     		ldr r1, = 0x02
 100 00ea C161     		str r1, [r0, # 0x1c]
 101 00ec 1B49     		ldr r1, = 0x800
 102 00ee 8161     		str r1, [r0, # 0x18]
 103              	
 104              	waishezhongduan:	@外设中断
 105              		@0xE000E100    0-31 写1开，写0没效
 106              		@0XE000E180    0-31 写1关，写0没效
 107              		@0XE000E200    0-31 挂起，写0没效
 108              		@0XE000E280    0-31 清除， 写0没效
 109              	systick:
 110              		@ 0xe000ed20 30-31 优先级
 111 00f0 1B48     		ldr r0, = 0xe000e010
 112 00f2 1C49     		ldr r1, = 47999 @ 重载数
 113 00f4 4160     		str r1, [r0, # 4] @ 写入重载数
 114 00f6 8160     		str r1, [r0, # 8] @ 清除当前数
ARM GAS  1.s 			page 3


 115 00f8 0021     		movs r1, # 0
 116 00fa 0160     		str r1, [r0] @ 开定时器
 117              	
 118              	
 119              	tim1chushiha:
 120 00fc 1A48     		ldr r0, = 0x40000400 @ tim3_cr1
 121 00fe 1B49     		ldr r1, = 512
 122 0100 8162     		str r1, [r0, # 0x28] @ psc
 123 0102 1B49     		ldr r1, = 0Xffff
 124 0104 C162     		str r1, [r0, # 0x2c] @ ARR
 125 0106 1B49     		ldr r1, = 0x6868
 126 0108 8161     		str r1, [r0, # 0x18] @ ccmr1
 127 010a 1B49     		ldr r1, = 0x6800
 128 010c C161     		str r1, [r0, # 0x1c] @ ccmr2
 129 010e 1B49     		ldr r1, = 0x1011
 130 0110 0162     		str r1, [r0, # 0x20] @ ccer
 131 0112 1B49     		ldr r1, = 0x7fff
 132 0114 4163     		str r1, [r0, # 0x34]
 133 0116 8163     		str r1, [r0, # 0x38]
 134 0118 0164     		str r1, [r0, # 0x40]
 135 011a 8121     		movs r1, # 0x81
 136 011c 0160     		str r1, [r0]
 137              		
 138              	
 139              		
 140              	io_she_zhi:
 141              	@@@@@@@@@@@@@@@@@@@@@@@@@@@@@@@@@@@@@@@@@@@@@@@@@@@@@@@@@@@@@@@@@@@@@@@@@@@@@@@@@@@@@@@@@@@@@@
 142              		@a(0x48000000)b(0x48000400)c(0x48000800)d(0x48000c00)f(0x48001400)
 143              		@ 输入（00），通用输出（01），复用功能（10），模拟（11）
 144              		@偏移0x4 = 端口输出类型 @ （0 推挽），（ 1 开漏）
 145              		@偏移0x8 = 输出速度  00低速， 01中速， 11高速
 146              		@偏移0xC = 上拉下拉 (00无上下拉，  01 上拉， 10下拉)
 147              		@偏移0x10 = 输入数据寄存器
 148              		@偏移0x14 = 输出数据寄存器
 149              		@偏移0x18 = 端口开  0-15置位 
 150              		@偏移0x28 = 端口关
 151              		@0X20 = 复用低
 152              		@GPIO口0（0-3位）每个IO口占用4位
 153              		@ AF0 = 0X0000, AF1 = 0X0001, AF2 = 0X0010 AF3 = 0X0011, AF4 = 0X0100
 154              		@ AF5 = 0X0101, AF6 = 0X0111, AF7 = 0X1000
 155              		@0x24 = 复用高
 156              		@GPIO口8 （0-3位）每个IO口占用4位
 157              		@ AF0 = 0X0000, AF1 = 0X0001, AF2 = 0X0010 AF3 = 0X0011, AF4 = 0X0100
 158              		@ AF5 = 0X0101, AF6 = 0X0111, AF7 = 0X1000
 159              	@@@@@@@@@@@@@@@@@@@@@@@@@@@@@@@@@@@@@@@@@@@@@@@@@@@@@@@@@@@@@@@@@@@@@@@@@@@@@@@@@@@@@@@@@@@@@@
 160              	
 161 011e 1948     		ldr r0, = 0x48000000
 162 0120 1949     		ldr r1, = 0x2800a000
 163 0122 0160     		str r1, [r0]
 164 0124 1949     		ldr r1, = 0x11000000
 165 0126 0162     		str r1, [r0, # 0x20]
 166              		
 167 0128 1948     		ldr r0, = 0x48000400
 168 012a 0821     		movs r1, # 0x08 @ pb1
 169 012c 0160     		str r1, [r0]
 170 012e 1021     		movs r1, # 0x10  @ tim3_4到PB1
 171 0130 0162     		str r1, [r0, # 0x20] @ ARRL
ARM GAS  1.s 			page 4


 172              	
 173              	ting:
 174 0132 FEE7     		b ting
 175              		
 176              	_nmi_handler:
 177 0134 7047     		bx lr
 178              	_hard_fault:
 179 0136 7047     		bx lr
 180              	_svc_handler:
 181 0138 7047     		bx lr
 182              	_pendsv_handler:
 183 013a 7047     		bx lr
 184              	_systick:
 185 013c 70470000 		bx lr
 185      00200240 
 185      00100240 
 185      02002000 
 185      01000001 
ARM GAS  1.s 			page 5


DEFINED SYMBOLS
                 1.s:5      *ABS*:20000300 STACKINIT
                 1.s:7      .text:00000000 vectors
                 1.s:53     .text:000000b0 _start
                 1.s:176    .text:00000134 _nmi_handler
                 1.s:178    .text:00000136 _hard_fault
                 1.s:180    .text:00000138 _svc_handler
                 1.s:182    .text:0000013a _pendsv_handler
                 1.s:184    .text:0000013c _systick
                 1.s:54     .text:000000b0 shizhong
                            .text:00000000 $d
                 1.s:55     .text:000000b0 $t
                 1.s:63     .text:000000c0 dengrc
                 1.s:67     .text:000000c6 dengpll
                 1.s:74     .text:000000d0 dengdai14mshizhongwending
                 1.s:79     .text:000000d6 neicunqingling
                 1.s:83     .text:000000dc neicunqinglingxunhuan
                 1.s:87     .text:000000e2 waisheshizhong
                 1.s:104    .text:000000f0 waishezhongduan
                 1.s:109    .text:000000f0 systick
                 1.s:119    .text:000000fc tim1chushiha
                 1.s:140    .text:0000011e io_she_zhi
                 1.s:173    .text:00000132 ting
                 1.s:185    .text:0000013e $d
                 1.s:185    .text:00000140 $d

NO UNDEFINED SYMBOLS
