ARM GAS  1.s 			page 1


   1              		@@单片机stm32f030f4p6
   2              		@@ 电阻桥
   3              		@作者：yjmwxwx
   4              		@时间：2019-07-20
   5              		@编译器：arm-none-eabi
   6              		 .thumb                 
   7              	         .syntax unified
   8              		.section .data
   9              	wendubuchangbiao1:
  10 0000 A1050000 		.int 0x5a1,0x5b1,0x5c9,0x5ff,0x92a,0x9ad,0xa2d,0xa88,0xaa6,0xae8,0xb95,0xbb2,0xbd3,0xc2b,0xc79,0xc
  10      B1050000 
  10      C9050000 
  10      FF050000 
  10      2A090000 
  11              	shumaguanmabiao:
  12 004c FC000000 		.int 0xfc,0x60,0xda,0xf2,0x66,0xb6,0xbe,0xe0,0xfe,0xf6
  12      60000000 
  12      DA000000 
  12      F2000000 
  12      66000000 
  13              	shumaguanshuaxinbiao:
  14 0074 00FE0000 		.int 0xfe00,0xfd00,0xfb00,0xf700,0xef00,0xdf00,0xbf00,0x7f00,0
  14      00FD0000 
  14      00FB0000 
  14      00F70000 
  14      00EF0000 
  15              	       	.equ STACKINIT,                 0x20001000
  16              		.equ shumaguanma,		0x20000000
  17              		.equ dianyabiao,		0x20000024
  18              		.equ lvboqizhizhen,		0x2000002c
  19              		.equ lvboqihuanchong,		0x20000030
  20              		.equ lvboqizhizhen1,		0x20000530
  21              		.equ lvboqihuanchong1,		0x20000534
  22              		.equ wendubuchangbiao,		0x20000950
  23              	.section .text
  24              	vectors:
  25 0000 00100020 		.word STACKINIT
  26 0004 B1000000 		.word _start + 1
  27 0008 19030000 		.word _nmi_handler + 1
  28 000c 1B030000 		.word _hard_fault  + 1
  29 0010 00000000 		.word 0
  30 0014 00000000 		.word 0
  31 0018 00000000 		.word 0
  32 001c 00000000 		.word 0
  33 0020 00000000 		.word 0
  34 0024 00000000 		.word 0
  35 0028 00000000 		.word 0
  36 002c 1D030000 		.word _svc_handler +1
  37 0030 00000000 		.word 0
  38 0034 00000000 		.word 0
  39 0038 1F030000 		.word _pendsv_handler +1
  40 003c 21030000 		.word aaa +1	@  _systickzhongduan +1               @ 15
  41 0040 21030000 		.word aaa +1     @ _wwdg +1          @ 0
  42 0044 21030000 		.word aaa +1     @_pvd +1            @ 1
  43 0048 21030000 		.word aaa +1     @_rtc +1            @ 2
  44 004c 21030000 		.word aaa +1     @_flash +1          @ 3
  45 0050 21030000 		.word aaa +1	@ _rcc + 1          @ 4
ARM GAS  1.s 			page 2


  46 0054 21030000 		.word aaa +1      @_exti0_1  +1      @ 5
  47 0058 21030000 		.word aaa +1      @ _exti2_3 +1      @ 6
  48 005c 21030000 		.word aaa +1       @_exti4_15 +1     @ 7
  49 0060 21030000 		.word aaa +1                         @ 8
  50 0064 21030000 		.word aaa +1 	@_dma1_1  +1    @ 9
  51 0068 21030000 		.word aaa +1    @_dma1_2_3 +1        @ 10
  52 006c 21030000 		.word aaa +1       @_dma1_4_5 +1     @ 11
  53 0070 21030000 		.word aaa +1	 @_adc1 +1          @ 12
  54 0074 21030000 		.word aaa +1       @_tim1_brk_up +1  @ 13
  55 0078 21030000 		.word aaa +1        @ _tim1_cc +1    @ 14
  56 007c 21030000 		.word aaa +1         @_tim2 +1       @ 15
  57 0080 21030000 		.word aaa +1          @_tim3 +1      @ 16
  58 0084 21030000 		.word aaa +1                         @ 17
  59 0088 21030000 		.word aaa +1		                @ 18
  60 008c 21030000 		.word aaa +1	@_tim14 +1    @ 19
  61 0090 21030000 		.word aaa +1                         @ 20
  62 0094 21030000 		.word aaa +1         @_tim16 +1      @ 21
  63 0098 21030000 		.word aaa +1         @_tim17 +1      @ 22
  64 009c 21030000 		.word aaa +1          @_i2c   +1     @ 23
  65 00a0 21030000 		.word aaa +1                         @ 24
  66 00a4 21030000 		.word aaa +1           @_spi   +1    @ 25
  67 00a8 21030000 		.word aaa +1                         @ 26
  68 00ac 21030000 		.word aaa +1         @_usart1 +1     @ 27
  69              	_start:
  70              	shizhong:
  71 00b0 9C4A     		ldr r2, = 0x40022000   @FLASH访问控制
  72 00b2 3221     		movs r1, # 0x32
  73 00b4 1160     		str r1, [r2]           @FLASH缓冲 缓冲开启
  74 00b6 9C48     	        ldr r0, = 0x40021000 @ rcc
  75 00b8 9C49     	        ldr r1, = 0x10001
  76 00ba 0160     	        str r1, [r0]
  77              	denghse:
  78 00bc 0168     	        ldr r1, [r0]
  79 00be 8903     	        lsls r1, r1, # 14
  80 00c0 FCD5     	        bpl denghse
  81              	dengpllguan:
  82 00c2 0168     	        ldr r1, [r0]
  83 00c4 8901     	        lsls r1, r1, # 6
  84 00c6 FCD4     	        bmi dengpllguan
  85 00c8 9949     	        ldr r1, = 0x110002
  86 00ca 4160     	        str r1, [r0, # 0x04]
  87 00cc 9949     	        ldr r1, = 0x1010000
  88 00ce 0000     		movs r0, r0
  89 00d0 0160     	        str r1, [r0]
  90              		
  91              	dengpll:
  92 00d2 0168     		ldr r1, [r0]
  93 00d4 8901     		lsls r1, # 6
  94 00d6 FCD5     		bpl dengpll
  95              		@0x34时钟控制寄存器 2 (RCC_CR2)
  96 00d8 0121     		movs r1, # 0x01
  97 00da 4163     		str r1, [r0, # 0x34]  @ HSI开14M时钟
  98              	dengdai14mshizhongwending:
  99 00dc 416B     		ldr r1, [r0, # 0x34]
 100 00de 8907     		lsls r1, r1, # 30     @ 左移30位
 101 00e0 FCD5     		bpl dengdai14mshizhongwending  @ 等待14M时钟稳定
 102              	
ARM GAS  1.s 			page 3


 103              	neicunqingling:
 104 00e2 9548     		ldr r0, = 0x20000000
 105 00e4 0021     		movs r1, # 0
 106 00e6 954B     		ldr r3, = 0x1000
 107              	neicunqinglingxunhuan:
 108 00e8 043B     		subs r3, # 4
 109 00ea C150     		str r1, [r0, r3]
 110 00ec FCD1     		bne neicunqinglingxunhuan
 111              	
 112              	@_systick:				@ systick定时器初始化
 113              	@
 114              	@	ldr r0, = 0xe000e010
 115              	@	ldr r1, = 0xffff
 116              	@	str r1, [r0, # 4]
 117              	@	str r1, [r0, # 8]
 118              	@	movs r1, # 0x07
 119              	@	str r1, [r0]
 120              	_waisheshizhong:		 @ 外设时钟
 121              		@ +0x14=RCC_AHBENR
 122              		@ 0=DMA @ 2=SRAM @ 4=FLITF@ 6=CRC @ 17=PA @ 18=PB @ 19=PC @ 20=PD @ 22=PF
 123 00ee 8E48     		ldr r0, = 0x40021000
 124 00f0 9349     		ldr r1, = 0x460005
 125 00f2 4161     		str r1, [r0, # 0x14]
 126              	
 127              		@ +0x18外设时钟使能寄存器 (RCC_APB2ENR)
 128              		@ 0=SYSCFG @ 5=USART6EN @ 9=ADC @ 11=TIM1 @ 12=SPI1 @ 14=USART1 @ 16=TIM15 @ 17=TIM16 @ 18=TIM17 @
 129 00f4 9349     		ldr r1, = 0xa00
 130 00f6 8161     		str r1, [r0, # 0x18]
 131              		@+0X1C=RCC_APB1ENR
 132              		@ 1=TIM3 @ 4=TIM6 @5=TIM7 @8=TIM14 @11=WWDG @14=SPI @17=USRT2 @18=USART3 @20=USART5 @21=I2C1 @22=I
 133 00f8 0221     		movs r1, # 0x02
 134 00fa C161     		str r1, [r0, # 0x1c]
 135              	io_she_zhi:
 136              	@@@@@@@@@@@@@@@@@@@@@@@@@@@@@@@@@@@@@@@@@@@@@@@@@@@@@@@@@@@@@@@@@@@@@@@@@@@@@@@@@@@@@@@@@@@@@@
 137              		@a(0x48000000)b(0x48000400)c(0x48000800)d(0x48000c00)f(0x48001400)
 138              		@ 输入（00），通用输出（01），复用功能（10），模拟（11）
 139              		@偏移0x4 = 端口输出类型 @ （0 推挽），（ 1 开漏）
 140              		@偏移0x8 = 输出速度  00低速， 01中速， 11高速
 141              		@偏移0xC = 上拉下拉 (00无上下拉，  01 上拉， 10下拉)
 142              		@偏移0x10 = 输入数据寄存器
 143              		@偏移0x14 = 输出数据寄存器
 144              		@偏移0x18 = 端口开  0-15置位 
 145              		@偏移0x28 = 端口关
 146              		@0X20 = 复用低
 147              		@GPIO口0（0-3位）每个IO口占用4位
 148              		@ AF0 = 0X0000, AF1 = 0X0001, AF2 = 0X0010 AF3 = 0X0011, AF4 = 0X0100
 149              		@ AF5 = 0X0101, AF6 = 0X0111, AF7 = 0X1000
 150              		@0x24 = 复用高
 151              		@GPIO口8 （0-3位）每个IO口占用4位
 152              		@ AF0 = 0X0000, AF1 = 0X0001, AF2 = 0X0010 AF3 = 0X0011, AF4 = 0X0100
 153              		@ AF5 = 0X0101, AF6 = 0X0111, AF7 = 0X1000
 154              	@@@@@@@@@@@@@@@@@@@@@@@@@@@@@@@@@@@@@@@@@@@@@@@@@@@@@@@@@@@@@@@@@@@@@@@@@@@@@@@@@@@@@@@@@@@@@@
 155              	
 156 00fc 9248     		ldr r0, = 0x48000000
 157 00fe 9349     		ldr r1, = 0x2800540f
 158 0100 0160     		str r1, [r0]
 159              	
ARM GAS  1.s 			page 4


 160 0102 9349     		ldr r1, = 0x200
 161 0104 4162     		str r1, [r0, # 0x24]
 162              	tim3chushihua:				@ 48M
 163 0106 9348     		ldr r0, = 0x40000400 @ tim3_cr1
 164 0108 9349     		ldr r1, =  0
 165 010a 8162     		str r1, [r0, # 0x28] @ psc
 166 010c 9349     		ldr r1, = 6
 167 010e C162     		str r1, [r0, # 0x2c] @ ARR
 168 0110 9349     		ldr r1, =   0x3800
 169 0112 C161     		str r1, [r0, # 0x1c] @ ccmr2
 170 0114 9349     		ldr r1, = 9999
 171 0116 0162     		str r1, [r0, # 0x20] @ ccer
 172 0118 9049     		ldr r1, = 6
 173 011a 0164     		str r1, [r0, # 0x40] @ ccr4
 174 011c 7021     		movs r1, # 0x70
 175 011e 4160     		str r1, [r0, # 0x04]
 176 0120 8121     		movs r1, # 0x81
 177 0122 0160     		str r1, [r0]
 178              	dmachushihua:
 179              		@+0=LSR,+4=IFCR,
 180              		@+8=CCR1,+c=CNDTR1,+10=CPAR1+14=CMAR1,
 181              		@+1c=CCR2,+20=CNDTR2,+24=CPAR2,+28=CMAR2
 182              		@+30=CCR3,+34=CNDTR3,+38=CPAR2,+3c=CMAR3
 183              		@+44=CCR4,+48=CNDTR4,+4c=CPAR4,+50=CMAR4
 184              		@+58=CCR5,+5c=CNDTR5,+60=CPAR5,+64=CMAR5
 185              		@+6C=CCR6,+70=CNDTR6,+74=CPAR6,+78=CMAR6
 186              		@+80=CCR7,+84=CNDTR7,+88=CPAR7,+8c=CMAR7
 187              		@ tim1DMA
 188              		@ adc dma
 189 0124 9048     		ldr r0, = 0x40020000
 190 0126 9149     		ldr r1, = 0x40012440
 191 0128 0161     		str r1, [r0, # 0x10]
 192 012a 9149     		ldr r1, = dianyabiao
 193 012c 4161     		str r1, [r0, # 0x14]
 194 012e 9149     		ldr r1, =  2
 195 0130 C160     		str r1, [r0, # 0x0c]
 196 0132 9149     		ldr r1, = 0xaa1
 197 0134 8160     		str r1, [r0, # 0x08]
 198              	
 199              	_adcchushihua:
 200 0136 9148     		ldr r0, = 0x40012400  @ adc基地址
 201 0138 9149     		ldr r1, = 0x80000000
 202 013a 8160     		str r1, [r0, # 0x08]  @ ADC 控制寄存器 (ADC_CR)  @adc校准
 203              	_dengadcjiaozhun:
 204 013c 8168     		ldr r1, [r0, # 0x08]
 205 013e 0900     		 movs r1, r1
 206 0140 FCD4     		bmi _dengadcjiaozhun   @ 等ADC校准
 207              	_kaiadc:
 208 0142 8168     		ldr r1, [r0, # 0x08]
 209 0144 0122     		movs r2, # 0x01
 210 0146 1143     		orrs r1, r1, r2
 211 0148 8160     		str r1, [r0, # 0x08]
 212              	_dengdaiadcwending:
 213 014a 0168     		ldr r1, [r0]
 214 014c C907     		lsls r1, r1, # 31
 215 014e FCD5     		bpl _dengdaiadcwending @ 等ADC稳定
 216              	_tongdaoxuanze:
ARM GAS  1.s 			page 5


 217 0150 8C49     		ldr r1, = 0x03
 218 0152 8162     		str r1, [r0, # 0x28]    @ 通道选择寄存器 (ADC_CHSELR)
 219 0154 8C49     		ldr r1, = 0xcc3         @ tim3触发ADC
 220              	@	ldr r1, = 0x3001
 221 0156 C160     		str r1, [r0, # 0x0c]    @ 配置寄存器 1 (ADC_CFGR1)
 222 0158 0021     		movs r1, # 0       
 223 015a 4161     		str r1, [r0, # 0x14]    @ ADC 采样时间寄存器 (ADC_SMPR)
 224 015c 8168     		ldr r1, [r0, # 0x08]
 225 015e 8B4A     		ldr r2, = 0x04         @ 开始转换
 226 0160 1143     		orrs r1, r1, r2
 227 0162 8160     		str r1, [r0, # 0x08]    @ 控制寄存器 (ADC_CR)
 228              	
 229              	
 230              		
 231              	_waishezhongduan:		@外设中断
 232              		@0xE000E100    0-31  写1开，写0没效
 233              		@0XE000E180    0-31 写1关，写0没效
 234              		@0XE000E200    0-31 挂起，写0没效
 235              		@0XE000E280    0-31 清除， 写0没效
 236              	
 237 0164 7A4E     		ldr r6, = 512
 238              	denglvboqiman:
 239 0166 8A48     	        ldr r0, = lvboqihuanchong1
 240 0168 7949     	        ldr r1, = 512
 241 016a 814B     	        ldr r3, = dianyabiao
 242 016c 0433     	        adds r3, r3, # 4
 243 016e 894A     	        ldr r2, = lvboqizhizhen1
 244 0170 1B68     	        ldr r3, [r3]
 245 0172 00F0BDF8 	        bl _lvboqi1
 246              		
 247 0176 8848     	        ldr r0, = lvboqihuanchong
 248 0178 7549     	        ldr r1, = 512
 249 017a 7D4B     	        ldr r3, = dianyabiao
 250 017c 874A     	        ldr r2, = lvboqizhizhen
 251 017e 1B68     	        ldr r3, [r3]
 252 0180 00F0A2F8 	        bl _lvboqi
 253 0184 013E     		subs r6, r6, # 1
 254 0186 EED1     		bne denglvboqiman
 255              	
 256              		
 257              	ting:
 258 0188 8148     	        ldr r0, = lvboqihuanchong1
 259 018a 7149     	        ldr r1, = 512
 260 018c 784B     	        ldr r3, = dianyabiao
 261 018e 0433     		adds r3, r3, # 4
 262 0190 804A     	        ldr r2, = lvboqizhizhen1
 263 0192 1B68     	        ldr r3, [r3]
 264 0194 00F0ACF8 	        bl _lvboqi1
 265 0198 0646     		mov r6, r0
 266              	
 267 019a 7F48     		ldr r0, = lvboqihuanchong
 268 019c 6C49     		ldr r1, = 512
 269 019e 744B     		ldr r3, = dianyabiao
 270 01a0 7E4A     		ldr r2, = lvboqizhizhen
 271 01a2 1B68     		ldr r3, [r3]
 272 01a4 00F090F8 		bl _lvboqi
 273 01a8 7D49     		ldr r1, = 3300
ARM GAS  1.s 			page 6


 274 01aa 4843     		muls r0, r0, r1
 275 01ac 000B     		lsrs r0, r0, # 12
 276 01ae 00F008F8 		bl __wendubuchang1
 277 01b2 614A     		ldr r2, = shumaguanma
 278 01b4 0821     		movs r1, # 8
 279 01b6 00F02DF8 		bl _zhuanshumaguanma
 280 01ba 0820     		movs r0, # 8
 281 01bc 00F03CF8 		bl _xieshumaguan
 282 01c0 E2E7     		b ting
 283              		
 284              	__wendubuchang1:
 285 01c2 7EB5     		push {r1-r6,lr}
 286 01c4 7749     		ldr r1, = wendubuchangbiao1
 287 01c6 0022     		movs r2, # 0
 288 01c8 0F23     		movs r3, # 15
 289 01ca 9B00     		lsls r3, r3, # 2
 290 01cc 0424     		movs r4, # 4
 291 01ce A400     		lsls r4, r4, # 2
 292              	__gaowenbuchang:
 293 01d0 8D58     		ldr r5, [r1, r2]
 294 01d2 B542     		cmp r5, r6
 295 01d4 09D2     		bcs __gaowenbuchangfanhui
 296 01d6 0432     		adds r2, r2, # 4
 297 01d8 9A42     		cmp r2, r3
 298 01da FFD1     		bne __diwenbuchang
 299              	__diwenbuchang:
 300 01dc 8D5A     		ldrh r5, [r1, r2]
 301 01de B542     		cmp r5, r6
 302 01e0 06D2     		bcs __diwenbuchangfanhui
 303 01e2 0432     		adds r2, r2, # 4
 304 01e4 9A42     		cmp r2, r3
 305 01e6 F9D1     		bne __diwenbuchang
 306 01e8 7EBD     		pop {r1-r6,pc}
 307              	__gaowenbuchangfanhui:
 308 01ea 9208     		lsrs r2, r2, # 2
 309 01ec 1044     		add r0, r0, r2
 310 01ee 7EBD     		pop {r1-r6,pc}
 311              	__diwenbuchangfanhui:
 312 01f0 9208     		lsrs  r2, r2, # 2
 313 01f2 801A     		subs r0, r0, r2
 314 01f4 7EBD     		pop {r1-r6,pc}
 315              		
 316              		
 317              		
 318              	
 319              	
 320              	
 321              	
 322              		
 323              	__wendubuchang:
 324 01f6 FEB5     		push {r1-r7,lr}
 325 01f8 6B49     		ldr r1, = wendubuchangbiao
 326 01fa 5D4B     		ldr r3, = dianyabiao
 327 01fc 0E68     		ldr r6, [r1]
 328 01fe 8C5B     		ldrh r4, [r1, r6]
 329              	@	ldrh r5, [r3, # 0x04]
 330 0200 8442     		cmp r4, r0
ARM GAS  1.s 			page 7


 331 0202 06D2     		bcs __buchangfanhui
 332 0204 3746     		mov r7, r6
 333 0206 0437     		adds r7, r7, # 4
 334 0208 C853     		strh r0, [r1, r7]
 335 020a 0237     		adds r7, r7, # 2
 336 020c CD53     		strh r5, [r1, r7]
 337 020e 0436     		adds r6, r6, # 4
 338 0210 0E60     		str r6, [r1]
 339              	__buchangfanhui:
 340 0212 FEBD     		pop {r1-r7,pc}
 341              		
 342              		
 343              		
 344              	_zhuanshumaguanma:@ 16进制转数码管码
 345              			@ R0要转的数据， R1长度，R2结果表首地址
 346 0214 FFB5     		push {r0-r7,lr}
 347 0216 654F     		ldr r7, = shumaguanmabiao
 348 0218 0546     		mov r5, r0
 349 021a 0E46     		mov r6, r1
 350 021c 0A21     		movs r1, # 10
 351              	_xunhuanqiuma:
 352 021e 00F040F8 		bl _chufa
 353 0222 0446     		mov r4, r0
 354 0224 4C43     		muls r4, r1
 355 0226 2B1B     		subs r3, r5, r4
 356 0228 9B00     		lsls r3, # 2
 357 022a FC58     		ldr r4, [r7, r3]
 358 022c 1460     		str r4, [r2]
 359 022e 0546     		mov r5, r0
 360 0230 0432     		adds r2, r2, # 4
 361 0232 013E     		subs r6, # 1
 362 0234 F3D1     		bne _xunhuanqiuma
 363 0236 FFBD     		pop {r0-r7,pc}
 364              	_xieshumaguan: @ r0=位数 @数码管码
 365 0238 FFB5     		push {r0-r7,lr}
 366 023a 8000     		lsls r0, r0, # 2
 367 023c 0027     		movs r7, # 0
 368 023e 0646     		mov r6, r0
 369 0240 3D4D     		ldr r5, = shumaguanma
 370 0242 5B4A     		ldr r2, = shumaguanshuaxinbiao
 371              	_shumaguanshuaxin:
 372 0244 EB59     		ldr r3, [r5, r7]
 373 0246 D459     		ldr r4, [r2, r7]
 374 0248 1C43     		orrs r4, r4, r3
 375 024a 2046     		mov r0, r4
 376 024c 00F004F8 		bl _xie595
 377 0250 0437     		adds  r7, r7, # 4
 378 0252 B742     		cmp r7, r6
 379 0254 F6D9     		bls _shumaguanshuaxin
 380 0256 FFBD     		pop {r0-r7,pc}
 381              		
 382              	_xie595: @ R0=要写的数据
 383 0258 FFB5     		push {r0-r7,lr}
 384 025a 0546     		mov r5, r0
 385 025c 4020     		movs r0, # 0x40
 386 025e 8027     		movs r7, # 0x80 
 387 0260 2026     		movs r6, # 0x20 
ARM GAS  1.s 			page 8


 388 0262 1023     		movs r3, # 16   @16位
 389 0264 384A     		ldr r2, = 0x48000000 @ gpioa
 390 0266 0121     		movs r1, # 0x01
 391              	_xunhuan595:
 392 0268 9761     		str r7, [r2, # 0x18]
 393 026a 00F014F8 		bl _yanshi
 394 026e 0D42     		tst r5, r1
 395 0270 01D1     		bne _xie595_0
 396 0272 9062     		str r0, [r2, # 0x28]
 397 0274 00E0     		b _suocun595
 398              	_xie595_0:
 399 0276 9061     		str r0, [r2, # 0x18]
 400              	_suocun595:
 401 0278 00F00DF8 		bl _yanshi
 402 027c 6D08     		lsrs r5, # 1
 403 027e 9762     		str r7, [r2, # 0x28]
 404 0280 00F009F8 		bl _yanshi
 405 0284 013B     		subs r3, r3, # 1
 406 0286 EFD1     		bne _xunhuan595
 407 0288 9661     		str r6, [r2, # 0x18]
 408 028a 00F004F8 		bl _yanshi
 409 028e 9662     		str r6, [r2, # 0x28]
 410 0290 00F001F8 		bl _yanshi
 411 0294 FFBD     		pop {r0-r7,pc}
 412              	
 413              	
 414              	_yanshi:
 415 0296 80B4     		push {r7}
 416 0298 464F     		ldr r7, = 30
 417              	_yanshi11:
 418 029a 013F     		subs r7, # 1
 419 029c FDD1     		bne _yanshi11
 420 029e 80BC     		pop {r7}
 421 02a0 7047     		bx lr
 422              	_chufa:			@软件除法
 423              		@ r0 除以 r1 等于 商(r0)余数R1
 424 02a2 1EB5     		push {r1-r4,lr}
 425 02a4 0028     		cmp r0, # 0
 426 02a6 0ED0     		beq _chufafanhui
 427 02a8 0029     		cmp r1, # 0
 428 02aa 0CD0     		beq _chufafanhui
 429 02ac 0246     		mov r2, r0
 430 02ae 0123     		movs r3, # 1
 431 02b0 DB07     		lsls r3, r3, # 31
 432 02b2 0020     		movs r0, # 0
 433 02b4 0446     		mov r4, r0
 434              	_chufaxunhuan:
 435 02b6 5200     		lsls r2, r2, # 1
 436 02b8 6441     		adcs r4, r4, r4
 437 02ba 8C42     		cmp r4, r1
 438 02bc 01D3     		bcc _chufaweishubudao0
 439 02be C018     		adds r0, r0, r3
 440 02c0 641A     		subs r4, r4, r1
 441              	_chufaweishubudao0:
 442 02c2 5B08     		lsrs r3, r3, # 1
 443 02c4 F7D1     		bne _chufaxunhuan
 444              	_chufafanhui:
ARM GAS  1.s 			page 9


 445 02c6 1EBD     		pop {r1-r4,pc}
 446              	
 447              	
 448              	_lvboqi:
 449              				@滤波器
 450              				@R0=地址，R1=长度,r2=表指针地址,r3=ADC数值
 451              				@出R0=结果
 452 02c8 FEB5     		push {r1-r7,lr}	
 453 02ca 1568     		ldr r5, [r2]		@读出表指针
 454 02cc 4E00     		lsls r6, r1, # 1	
 455 02ce 4353     		strh r3, [r0, r5]	@数值写到滤波器缓冲区
 456 02d0 0235     		adds r5, r5, # 2
 457 02d2 B542     		cmp r5, r6
 458 02d4 00D1     		bne _lvboqimeidaohuanchongquding
 459 02d6 0025     		movs r5, # 0
 460              	_lvboqimeidaohuanchongquding:
 461 02d8 1560     		str r5, [r2]
 462 02da 0027     		movs r7, # 0
 463              	_lvboqixunhuan:
 464 02dc B542     		cmp r5, r6
 465 02de 00D1     		bne _lvbozonghe
 466 02e0 0025     		movs r5, # 0
 467              	_lvbozonghe:
 468 02e2 445B     		ldrh r4, [r0, r5]
 469 02e4 0235     		adds r5, r5, # 2
 470 02e6 3F19     		adds r7, r7, r4
 471 02e8 0139     		subs r1, r1, # 1
 472 02ea F7D1     		bne _lvboqixunhuan
 473 02ec 7812     		asrs r0, r7, # 9	@修改
 474 02ee FEBD     		pop {r1-r7,pc}
 475              	
 476              	_lvboqi1:
 477              	                        @滤波器
 478              	                        @R0=地址，R1=长度,r2=表指针地址,r3=ADC数值
 479              	                        @出R0=结果
 480 02f0 FEB5     		push {r1-r7,lr}
 481 02f2 1568     		ldr r5, [r2]            @读出表指针
 482 02f4 4E00     	        lsls r6, r1, # 1
 483 02f6 4353     	        strh r3, [r0, r5]       @数值写到滤波器缓冲区
 484 02f8 0235     	        adds r5, r5, # 2
 485 02fa B542     	        cmp r5, r6
 486 02fc 00D1     		bne _lvboqimeidaohuanchongquding1
 487 02fe 0025     	        movs r5, # 0
 488              	_lvboqimeidaohuanchongquding1:
 489 0300 1560     		str r5, [r2]
 490 0302 0027     	        movs r7, # 0
 491              	_lvboqixunhuan1:
 492 0304 B542     	        cmp r5, r6
 493 0306 00D1     	        bne _lvbozonghe1
 494 0308 0025     	        movs r5, # 0
 495              	_lvbozonghe1:
 496 030a 445B     		ldrh r4, [r0, r5]
 497 030c 0235     		adds r5, r5, # 2
 498 030e 3F19     	        adds r7, r7, r4
 499 0310 0139     	        subs r1, r1, # 1
 500 0312 F7D1     	        bne _lvboqixunhuan1
 501 0314 3812     	        asrs r0, r7, # 8       @修改
ARM GAS  1.s 			page 10


 502 0316 FEBD     	        pop {r1-r7,pc}
 503              	
 504              	
 505              	
 506              	
 507              	_nmi_handler:
 508 0318 7047     		bx lr
 509              	_hard_fault:
 510 031a 7047     		bx lr
 511              	_svc_handler:
 512 031c 7047     		bx lr
 513              	_pendsv_handler:
 514 031e 7047     		bx lr
 515              	_systickzhongduan:
 516              	aaa:
 517 0320 70470000 		bx lr
 517      00200240 
 517      00100240 
 517      01000100 
 517      02001100 
ARM GAS  1.s 			page 11


DEFINED SYMBOLS
                 1.s:9      .data:0000000000000000 wendubuchangbiao1
                 1.s:11     .data:000000000000004c shumaguanmabiao
                 1.s:13     .data:0000000000000074 shumaguanshuaxinbiao
                 1.s:15     *ABS*:0000000020001000 STACKINIT
                 1.s:16     *ABS*:0000000020000000 shumaguanma
                 1.s:17     *ABS*:0000000020000024 dianyabiao
                 1.s:18     *ABS*:000000002000002c lvboqizhizhen
                 1.s:19     *ABS*:0000000020000030 lvboqihuanchong
                 1.s:20     *ABS*:0000000020000530 lvboqizhizhen1
                 1.s:21     *ABS*:0000000020000534 lvboqihuanchong1
                 1.s:22     *ABS*:0000000020000950 wendubuchangbiao
                 1.s:24     .text:0000000000000000 vectors
                 1.s:69     .text:00000000000000b0 _start
                 1.s:507    .text:0000000000000318 _nmi_handler
                 1.s:509    .text:000000000000031a _hard_fault
                 1.s:511    .text:000000000000031c _svc_handler
                 1.s:513    .text:000000000000031e _pendsv_handler
                 1.s:516    .text:0000000000000320 aaa
                 1.s:70     .text:00000000000000b0 shizhong
                            .text:0000000000000000 $d
                 1.s:71     .text:00000000000000b0 $t
                 1.s:77     .text:00000000000000bc denghse
                 1.s:81     .text:00000000000000c2 dengpllguan
                 1.s:91     .text:00000000000000d2 dengpll
                 1.s:98     .text:00000000000000dc dengdai14mshizhongwending
                 1.s:103    .text:00000000000000e2 neicunqingling
                 1.s:107    .text:00000000000000e8 neicunqinglingxunhuan
                 1.s:120    .text:00000000000000ee _waisheshizhong
                 1.s:135    .text:00000000000000fc io_she_zhi
                 1.s:162    .text:0000000000000106 tim3chushihua
                 1.s:178    .text:0000000000000124 dmachushihua
                 1.s:199    .text:0000000000000136 _adcchushihua
                 1.s:203    .text:000000000000013c _dengadcjiaozhun
                 1.s:207    .text:0000000000000142 _kaiadc
                 1.s:212    .text:000000000000014a _dengdaiadcwending
                 1.s:216    .text:0000000000000150 _tongdaoxuanze
                 1.s:231    .text:0000000000000164 _waishezhongduan
                 1.s:238    .text:0000000000000166 denglvboqiman
                 1.s:476    .text:00000000000002f0 _lvboqi1
                 1.s:448    .text:00000000000002c8 _lvboqi
                 1.s:257    .text:0000000000000188 ting
                 1.s:284    .text:00000000000001c2 __wendubuchang1
                 1.s:344    .text:0000000000000214 _zhuanshumaguanma
                 1.s:364    .text:0000000000000238 _xieshumaguan
                 1.s:292    .text:00000000000001d0 __gaowenbuchang
                 1.s:307    .text:00000000000001ea __gaowenbuchangfanhui
                 1.s:299    .text:00000000000001dc __diwenbuchang
                 1.s:311    .text:00000000000001f0 __diwenbuchangfanhui
                 1.s:323    .text:00000000000001f6 __wendubuchang
                 1.s:339    .text:0000000000000212 __buchangfanhui
                 1.s:351    .text:000000000000021e _xunhuanqiuma
                 1.s:422    .text:00000000000002a2 _chufa
                 1.s:371    .text:0000000000000244 _shumaguanshuaxin
                 1.s:382    .text:0000000000000258 _xie595
                 1.s:391    .text:0000000000000268 _xunhuan595
                 1.s:414    .text:0000000000000296 _yanshi
ARM GAS  1.s 			page 12


                 1.s:398    .text:0000000000000276 _xie595_0
                 1.s:400    .text:0000000000000278 _suocun595
                 1.s:417    .text:000000000000029a _yanshi11
                 1.s:444    .text:00000000000002c6 _chufafanhui
                 1.s:434    .text:00000000000002b6 _chufaxunhuan
                 1.s:441    .text:00000000000002c2 _chufaweishubudao0
                 1.s:460    .text:00000000000002d8 _lvboqimeidaohuanchongquding
                 1.s:463    .text:00000000000002dc _lvboqixunhuan
                 1.s:467    .text:00000000000002e2 _lvbozonghe
                 1.s:488    .text:0000000000000300 _lvboqimeidaohuanchongquding1
                 1.s:491    .text:0000000000000304 _lvboqixunhuan1
                 1.s:495    .text:000000000000030a _lvbozonghe1
                 1.s:515    .text:0000000000000320 _systickzhongduan
                 1.s:517    .text:0000000000000322 $d
                 1.s:517    .text:0000000000000324 $d

NO UNDEFINED SYMBOLS
