ARM GAS  1.s 			page 1


   1              	
   2              		@ mcu:stm32f030f4p6 
   3              		@ 温度控制
   4              		@2017-10-29
   5              		 .thumb                 
   6              	         .syntax unified
   7              	.section .data
   8              		.equ fjiesuo,           0x1fffef62
   9              		.equ ojiesuo,           0x1fffef6e
  10              		.equ quanca,            0x1fffeff8
  11              		.equ yeca,              0x1fffefda
  12              		.equ zica,              0x1ffff020
  13              		.equ xieflash,          0x1fffef9a
  14              		.equ zixie,             0x1ffff048
  15              		.equ xiebaohu,          0x1ffff0a6
  16              		.equ jiancedubaohu,     0x1ffff124
  17              		.equ flashmang,         0x1fffef7a
  18              	        .equ STACKINIT,         0x20001000
  19              		.equ shumaguanma,	0x20000000
  20              		.equ anjianma,		0x20000020
  21              		.equ mubiaowendu,	0x20000024
  22              		.equ dangqianwendu,	0x20000028
  23              		.equ dangqianchan,      0x2000002c
  24              		.equ shangcichan,       0x20000030
  25              		.equ ilishi,		0x20000034
  26              		.equ kp,		0x20000038
  27              		.equ ki,		0x2000003c
  28              		.equ kd,		0x20000040
  29              	shumaguanmabiao:
  30 0000 FC000000 		.int 0xfc,0x60,0xda,0xf2,0x66,0xb6,0xbe,0xe0,0xfe,0xf6
  30      60000000 
  30      DA000000 
  30      F2000000 
  30      66000000 
  31              	shumaguanshuaxinbiao:
  32 0028 00FE0000 		.int 0xfe00,0xfd00,0xfb00,0xf700,0xef00,0xdf00,0xbf00,0x7f00,0
  32      00FD0000 
  32      00FB0000 
  32      00F70000 
  32      00EF0000 
  33              	wendubiao:
  34 004c D8090000 		.int 2520,2500,2460,2430,2410,2370,2340,2310,2260,2230,2200,2160,2130,2090,2050,2010,1980,1940,191
  34      C4090000 
  34      9C090000 
  34      7E090000 
  34      6A090000 
  35              		.align 2
  36              	anjian:
  37 022c 35010000 		.word _caidan1 + 1,_anjian2 + 1, _anjian3 + 1, _adcwendu + 1
  37      75010000 
  37      89010000 
  37      C7000000 
  38              	pshezhi:
  39 023c 3D010000 		.word _caidan2 +1, _anjian4 +1, _anjian5 +1, _caidan1 +1
  39      9D010000 
  39      B3010000 
  39      35010000 
ARM GAS  1.s 			page 2


  40              	ishezhi:
  41 024c 43010000 		.word _caidan3 +1, _anjian6 +1, _anjian7 +1, _caidan2 +1
  41      C9010000 
  41      DF010000 
  41      3D010000 
  42              	dshezhi:
  43 025c 49010000 		.word _baocun +1, _anjian8 +1, _anjian9 +1, _caidan3 +1
  43      F5010000 
  43      0B020000 
  43      43010000 
  44              	.section .text
  45              	vectors:        
  46 0000 00100020 	        .word STACKINIT         
  47 0004 1D000000 	        .word _start + 1        
  48 0008 E3030000 	        .word _nmi_handler + 1  
  49 000c E5030000 	        .word _hard_fault  + 1  
  50 0010 E7030000 	        .word _memory_fault + 1 
  51 0014 E9030000 	        .word _bus_fault + 1    
  52 0018 EB030000 	        .word _usage_fault + 1 
  53              	
  54              	_start:
  55              	_shizhong:
  56 001c F34A     		ldr r2, = 0x40022000   @FLASH访问控制
  57 001e 3221     		movs r1, # 0x32
  58 0020 1160     		str r1, [r2]
  59 0022 F348     		ldr r0, = 0x40021000 @ rcc
  60              		@0x34时钟控制寄存器 2 (RCC_CR2)
  61 0024 0121     		movs r1, # 0x01
  62 0026 4163     		str r1, [r0, # 0x34]  @ HSI开14M时钟
  63              	_dengdai14mshizhongwending:
  64 0028 416B     		ldr r1, [r0, # 0x34]
  65 002a 8907     		lsls r1, r1, # 30     @ 左移30位
  66 002c FCD5     		bpl _dengdai14mshizhongwending  @ 等待14M时钟稳定
  67              	
  68              	_neicunqingling:
  69 002e F148     		ldr r0, = 0x20000000
  70 0030 0021     		movs r1, # 0
  71 0032 F14B     		ldr r3, = 0x1000
  72              	_neicunqinglingxunhuan:
  73 0034 043B     		subs r3, # 4
  74 0036 C150     		str r1, [r0, r3]
  75 0038 FCD1     		bne _neicunqinglingxunhuan
  76              		
  77              	
  78              	_chushihuaquanjubianliang:
  79 003a F048     		ldr r0, = 0x8004000
  80 003c 0368     		ldr r3, [r0]
  81 003e F04C     		ldr r4, = 0xffffffff
  82 0040 A342     		cmp r3, r4
  83 0042 00D1     		bne _quchumubiaowendu
  84 0044 C4E1     		b _chushihuamubiaowendu 
  85              	_quchumubiaowendu:	
  86 0046 EF49     		ldr r1, = mubiaowendu
  87 0048 0268     		ldr r2, [r0]
  88 004a 0A60     		str r2, [r1]
  89 004c 4268     		ldr r2, [r0, # 0x04]
  90 004e EE49     		ldr r1, = kp
ARM GAS  1.s 			page 3


  91 0050 0A60     		str r2, [r1]
  92 0052 8268     		ldr r2, [r0, # 0x08]
  93 0054 4A60     		str r2, [r1, # 0x04]
  94 0056 C268     		ldr r2, [r0, # 0x0c]
  95 0058 8A60     		str r2, [r1, # 0x08]
  96              	
  97              	_waisheshizhong:		 @ 外设时钟
  98              		@+0x14=RCC_AHBENR
  99              		@0=DMA @2=SRAM @4=FLITF @6=CRC @17=PA @18=PB @19=PC @20=PD @22=PF
 100 005a E548     		ldr r0, = 0x40021000
 101 005c EB49     		ldr r1, = 0x460005
 102 005e 4161     		str r1, [r0, # 0x14]
 103              	
 104              		@+0x18外设时钟使能寄存器 (RCC_APB2ENR)
 105              		@0=SYSCFG @5=USART6EN @9=ADC @11=TIM1 @12=SPI1 @14=USART1 @16=TIM15 @17=TIM16 @18=TIM17 @22=DBGMCU
 106 0060 EB49     		ldr r1, = 0x200
 107 0062 8161     		str r1, [r0, # 0x18]
 108              		@+0X1C=RCC_APB1ENR
 109              		@1=TIM3 @4=TIM6 @5=TIM7 @8=TIM14 @11=WWDG @14=SPI @17=USRT2 @18=USART3 @20=USART5 @21=I2C1 @22=I2C
 110 0064 EB49     		ldr r1, = 0x100
 111 0066 C161     		str r1, [r0, # 0x1c]
 112              	
 113              	_adcchushihua:
 114 0068 EB48     		ldr r0, = 0x40012400  @ adc基地址
 115 006a EC49     		ldr r1, = 0x80000000
 116 006c 8160     		str r1, [r0, # 0x08]  @ ADC 控制寄存器 (ADC_CR)  @adc校准
 117              	_dengadcjiaozhun:
 118 006e 8168     		ldr r1, [r0, # 0x08]
 119 0070 0900     		 movs r1, r1
 120 0072 FCD4     		bmi _dengadcjiaozhun   @ 等ADC校准
 121              	_kaiadc:
 122 0074 8168     		ldr r1, [r0, # 0x08]
 123 0076 0122     		movs r2, # 0x01
 124 0078 1143     		orrs r1, r1, r2
 125 007a 8160     		str r1, [r0, # 0x08]
 126              	_dengdaiadcwending:
 127 007c 0168     		ldr r1, [r0]
 128 007e C907     		lsls r1, r1, # 31
 129 0080 FCD5     		bpl _dengdaiadcwending @ 等ADC稳定
 130              	_tongdaoxuanze:
 131 0082 E749     		ldr r1, = 0x01
 132 0084 8162     		str r1, [r0, # 0x28]    @ 通道选择寄存器 (ADC_CHSELR)
 133 0086 E749     		ldr r1, = 0x2000        @ 13 连续转换
 134 0088 C160     		str r1, [r0, # 0x0c]    @ 配置寄存器 1 (ADC_CFGR1)
 135 008a 0521     		movs r1, # 0x05         @
 136 008c 4161     		str r1, [r0, # 0x14]    @ ADC 采样时间寄存器 (ADC_SMPR)
 137 008e 8168     		ldr r1, [r0, # 0x08]
 138 0090 0422     		movs r2, # 0x04         @ 开始转换
 139 0092 1143     		orrs r1, r1, r2
 140 0094 8160     		str r1, [r0, # 0x08]    @ 控制寄存器 (ADC_CR)
 141              		
 142              		
 143              	_io_she_zhi:
 144              	@@@@@@@@@@@@@@@@@@@@@@@@@@@@@@@@@@@@@@@@@@@@@@@@@@@@@@@@@@@@@@@@@@@@@@@@@@@@@@@@@@@@@@@@@@@@@@
 145              		@a(0x48000000)b(0x48000400)c(0x48000800)d(0x48000c00)f(0x48001400)
 146              		@ 输入（00），通用输出（01），复用功能（10），模拟（11）
 147              		@偏移0x4 = 端口输出类型 @ （0 推挽），（ 1 开漏）
ARM GAS  1.s 			page 4


 148              		@偏移0x8 = 输出速度  00低速， 01中速， 11高速
 149              		@偏移0xC = 上拉下拉 00无上下拉，  01 上拉， 10下拉
 150              		@偏移0x10 = 输入数据寄存器
 151              		@偏移0x14 = 输出数据寄存器
 152              		@偏移0x18 = 端口开  0-15置位 
 153              		@偏移0x28 = 端口关
 154              		@0X20 = 复用低
 155              		@GPIO口0（0-3位）每个IO口占用4位
 156              		@ AF0 = 0X0000, AF1 = 0X0001, AF2 = 0X0010 AF3 = 0X0011, AF4 = 0X0100
 157              		@ AF5 = 0X0101, AF6 = 0X0111, AF7 = 0X1000
 158              		@0x24 = 复用高
 159              		@GPIO口8 （0-3位）每个IO口占用4位
 160              		@ AF0 = 0X0000, AF1 = 0X0001, AF2 = 0X0010 AF3 = 0X0011, AF4 = 0X0100
 161              		@ AF5 = 0X0101, AF6 = 0X0111, AF7 = 0X1000
 162              	@@@@@@@@@@@@@@@@@@@@@@@@@@@@@@@@@@@@@@@@@@@@@@@@@@@@@@@@@@@@@@@@@@@@@@@@@@@@@@@@@@@@@@@@@@@@@@
 163 0096 E448     		ldr r0, = 0x48000000
 164 0098 E449     		ldr r1, = 0x28005403
 165 009a 0160     		str r1, [r0]
 166              	
 167 009c E448     		ldr r0, = 0x48000400
 168 009e 0821     		movs r1, # 0x08
 169 00a0 0160     		str r1, [r0]
 170              		
 171              		
 172 00a2 E448     		ldr r0, = 0x48001400
 173 00a4 0021     		movs r1, # 0
 174 00a6 0160     		str r1, [r0]
 175 00a8 0521     		movs r1, # 0x05
 176 00aa C160     		str r1, [r0, # 0x0c]
 177              	_tim14chushihua:
 178 00ac E248     		ldr r0, = 0x40002000
 179 00ae E349     		ldr r1, = 16000
 180 00b0 8162     		str r1, [r0, # 0x28]  @psc
 181 00b2 E349     		ldr r1, = 5000
 182 00b4 C162     		str r1, [r0, # 0x2c]  @arr
 183 00b6 E349     		ldr r1, = 0x60
 184 00b8 8161     		str r1, [r0, # 0x18]
 185 00ba D949     		ldr r1, = 0x01
 186 00bc 0162     		str r1, [r0, # 0x20]
 187 00be E249     		ldr r1, = 0
 188 00c0 4163     		str r1, [r0, # 0x34]
 189 00c2 E249     		ldr r1, = 0x81
 190 00c4 0160     		str r1, [r0]
 191              	
 192              	
 193              	
 194              	_adcwendu:
 195 00c6 E24F     		ldr r7, = 0xff
 196 00c8 0022     		movs r2, # 0
 197              	_adcpingjun:
 198 00ca E248     		ldr r0, = 0x40012440
 199 00cc 0168     		ldr r1, [r0]
 200 00ce 5218     		adds r2, r2, r1
 201 00d0 013F     		subs r7, # 1
 202 00d2 FAD1     		bne _adcpingjun
 203 00d4 100A     		lsrs r0, r2, # 8
 204 00d6 E049     		ldr r1, = 3300
ARM GAS  1.s 			page 5


 205 00d8 4843     		muls r0, r1
 206 00da C749     		ldr r1, = 4096
 207 00dc 00F068F9 		bl _chufa
 208 00e0 DE4A     		ldr r2, = wendubiao
 209 00e2 0024     		movs r4, # 0
 210              	_panduanwendu:
 211 00e4 1359     		ldr r3, [r2, r4]
 212 00e6 8342     		cmp r3, r0
 213 00e8 04D9     		bls _dedaowendu
 214 00ea 0434     		adds r4, r4, # 4
 215 00ec DC4D     		ldr r5, = 480
 216 00ee AC42     		cmp r4, r5
 217 00f0 F8D9     		bls _panduanwendu
 218 00f2 0024     		movs r4, # 0
 219              	_dedaowendu:
 220 00f4 A408     		lsrs r4, # 2
 221 00f6 DB48     		ldr r0, = dangqianwendu
 222 00f8 0460     		str r4, [r0]
 223 00fa C248     		ldr r0, = mubiaowendu
 224 00fc 0168     		ldr r1, [r0]
 225 00fe DA4A     		ldr r2, = 100000
 226 0100 4A43     		muls r2, r1
 227 0102 1219     		adds r2, r4
 228 0104 1046     		mov r0, r2
 229 0106 D949     		ldr r1, = 8
 230 0108 BA4A     		ldr r2, = shumaguanma
 231 010a 00F0F0F8 		bl _zhuanshumaguanma
 232 010e 0820     		movs r0, # 8
 233 0110 8000     		lsls r0, # 2
 234 0112 00F0FEF8 		bl _xieshumaguan
 235 0116 00F083F8 		bl _pid
 236 011a D548     		        ldr r0, = 0x48001410
 237 011c 0168     		ldr r1, [r0]
 238 011e 0029     		cmp r1, # 0
 239 0120 02D1     		bne _tiaoguoanjian1_1
 240 0122 D44D     		ldr r5, = 0x55555
 241              	_anjian1yanshi1:
 242 0124 013D     		subs r5, # 1
 243 0126 FDD1     		bne _anjian1yanshi1
 244              	_tiaoguoanjian1_1:
 245 0128 D34A     		ldr r2, = anjian
 246 012a D068     		ldr r0, [r2, # 0x0c]
 247 012c 8646     		mov lr, r0
 248 012e 8900     		lsls r1, # 2
 249 0130 5058     		ldr r0, [r2, r1]
 250 0132 8746     		mov pc, r0
 251              	
 252              	_caidan1:
 253 0134 B44A     		ldr r2, = kp
 254 0136 1168     		ldr r1, [r2]
 255 0138 D04F     		ldr r7, = pshezhi
 256 013a 06E0     		b _candanxunhuan
 257              	_caidan2:
 258 013c D04A     		ldr r2, = ki
 259 013e D14F     		ldr r7, = ishezhi
 260 0140 03E0     		b _candanxunhuan
 261              	_caidan3:
ARM GAS  1.s 			page 6


 262 0142 D14A     		ldr r2, = kd
 263 0144 D14F     		ldr r7, = dshezhi
 264 0146 00E0     		b _candanxunhuan
 265              	_baocun:
 266 0148 92E0     		b _xieflash
 267              	_candanxunhuan:		 @ r0 @
 268 014a 1068     		ldr r0, [r2]
 269 014c C749     		ldr r1, = 8
 270 014e A94A     		ldr r2, = shumaguanma
 271 0150 00F0CDF8 		bl _zhuanshumaguanma
 272 0154 0820     		movs r0, # 8
 273 0156 8000     		lsls r0, # 2
 274 0158 00F0DBF8 		bl _xieshumaguan
 275 015c C448     		        ldr r0, = 0x48001410
 276 015e 0168     		        ldr r1, [r0]
 277 0160 0029     		cmp r1, # 0
 278 0162 02D1     		bne _tiaoguoanjian1
 279 0164 C34D     		ldr r5, = 0x55555
 280              	_anjian1yanshi:
 281 0166 013D     		subs r5, # 1
 282 0168 FDD1     		bne _anjian1yanshi
 283              	
 284              	_tiaoguoanjian1:
 285 016a F868     		ldr r0, [r7, # 0x0c]
 286 016c 8646     	        mov lr, r0
 287 016e 8900     		lsls r1, # 2
 288 0170 7858     	        ldr r0, [r7, r1]
 289 0172 8746     	        mov pc, r0
 290              	
 291              	_anjian2:
 292 0174 03B4     		push {r0-r1}
 293 0176 A348     		ldr r0, = mubiaowendu
 294 0178 0168     		ldr r1, [r0]
 295 017a 0131     		adds r1, # 1
 296 017c 7829     		cmp r1, # 120
 297 017e 00D9     		bls _anjianfanhui
 298 0180 7821     		movs r1, # 120
 299              	_anjianfanhui:
 300 0182 0160     		str r1, [r0]
 301 0184 03BC     		pop {r0-r1}
 302 0186 7047     		bx lr
 303              	_anjian3:
 304 0188 03B4     		push {r0-r1}
 305 018a 9E48     		ldr r0, = mubiaowendu
 306 018c 0168     	        ldr r1, [r0]
 307 018e 0139     	        subs r1, # 1
 308 0190 7829     	        cmp r1, # 120
 309 0192 00D9     	        bls _anjianfanhui1
 310 0194 0021     	        movs r1, # 0
 311              	_anjianfanhui1:
 312 0196 0160     	        str r1, [r0]
 313 0198 03BC     		pop {r0-r1}
 314 019a 7047     		bx lr
 315              	
 316              	_anjian4:
 317 019c 07B4     		push {r0-r2}
 318 019e 9A48     		ldr r0, = kp
ARM GAS  1.s 			page 7


 319 01a0 0168     		ldr r1, [r0]
 320 01a2 0131     		adds r1, # 1
 321 01a4 A64A     		ldr r2, = 5000
 322 01a6 9142     		cmp r1, r2
 323 01a8 00D9     		bls _anjianfanhui4
 324 01aa A549     		ldr r1, = 5000
 325              	_anjianfanhui4:
 326 01ac 0160     		str r1, [r0]
 327 01ae 07BC     		pop {r0-r2}
 328 01b0 7047     		bx lr
 329              	_anjian5:
 330 01b2 07B4     		push {r0-r2}
 331 01b4 9448     		ldr r0, = kp
 332 01b6 0168     		ldr r1, [r0]
 333 01b8 0139     		subs r1, # 1
 334 01ba A14A     		ldr r2, = 5000
 335 01bc 9142     		cmp r1, r2
 336 01be 00D9     		bls _anjianfanhui5
 337 01c0 0021     		movs r1, # 0
 338              	_anjianfanhui5:
 339 01c2 0160     		str r1, [r0]
 340 01c4 07BC     		pop {r0-r2}
 341 01c6 7047     		bx lr
 342              	
 343              	_anjian6:
 344 01c8 07B4     		push {r0-r2}
 345 01ca AD48     		ldr r0, = ki
 346 01cc 0168     		ldr r1, [r0]
 347 01ce 0131     		adds r1, # 1
 348 01d0 9B4A     		ldr r2, = 5000
 349 01d2 9142     		cmp r1, r2
 350 01d4 00D9     		bls _anjianfanhui6
 351 01d6 9A49     		ldr r1, = 5000
 352              	_anjianfanhui6:
 353 01d8 0160     		str r1, [r0]
 354 01da 07BC     		pop {r0-r2}
 355 01dc 7047     		bx lr
 356              	_anjian7:
 357 01de 07B4     		push {r0-r2}
 358 01e0 A748     		ldr r0, = ki
 359 01e2 0168     		ldr r1, [r0]
 360 01e4 0139     		subs r1, # 1
 361 01e6 964A     		ldr r2, = 5000
 362 01e8 9142     		cmp r1, r2
 363 01ea 00D9     		bls _anjianfanhui7
 364 01ec 0021     		movs r1, # 0
 365              	_anjianfanhui7:
 366 01ee 0160     		str r1, [r0]
 367 01f0 07BC     		pop {r0-r2}
 368 01f2 7047     		bx lr
 369              	
 370              	_anjian8:
 371 01f4 07B4     		push {r0-r2}
 372 01f6 A448     		ldr r0, = kd
 373 01f8 0168     		ldr r1, [r0]
 374 01fa 0131     		adds r1, # 1
 375 01fc 904A     		ldr r2, = 5000
ARM GAS  1.s 			page 8


 376 01fe 9142     		cmp r1, r2
 377 0200 00D9     		bls _anjianfanhui8
 378 0202 8F4A     		ldr r2, = 5000
 379              	_anjianfanhui8:
 380 0204 0160     		str r1, [r0]
 381 0206 07BC     		pop {r0-r2}
 382 0208 7047     		bx lr
 383              	_anjian9:
 384 020a 07B4     		push {r0-r2}
 385 020c 9E48     		ldr r0, = kd
 386 020e 0168     		ldr r1, [r0]
 387 0210 0139     		subs r1, # 1
 388 0212 8B4A     		ldr r2, = 5000
 389 0214 9142     		cmp r1, r2
 390 0216 00D9     		bls _anjianfanhui9
 391 0218 0021     		movs r1, # 0
 392              	_anjianfanhui9:
 393 021a 0160     		str r1, [r0]
 394 021c 07BC     		pop {r0-r2}
 395 021e 7047     		bx lr
 396              	
 397              	
 398              	
 399              	_pid:
 400 0220 FFB4     		push {r0-r7}
 401 0222 7848     		ldr r0, = mubiaowendu
 402 0224 0168     		ldr r1, [r0]
 403 0226 4268     		ldr r2, [r0, # 0x04]
 404 0228 891A     		subs r1, r1, r2
 405 022a 8268     		ldr r2, [r0, # 0x08]
 406 022c C260     		str r2, [r0, # 0x0c]    @ -1
 407 022e 8160     		str r1, [r0, # 0x08]    @ 0
 408              	_ppp:
 409 0230 754B     		ldr r3, = kp
 410 0232 1B68     		ldr r3, [r3]
 411 0234 0C46     		mov r4, r1
 412 0236 5C43     		muls r4, r4, r3
 413              	_iii:
 414 0238 914B     		ldr r3, = ki
 415 023a 1B68     		ldr r3, [r3]
 416 023c 0D46     		mov r5, r1
 417 023e 5D43     		muls r5, r5, r3
 418 0240 0369     		ldr r3, [r0, # 0x10]
 419 0242 ED18     		adds r5, r5, r3
 420 0244 0023     		movs r3, # 0
 421 0246 924E     		ldr r6, = 500
 422 0248 9B1B     		subs r3, r3, r6
 423 024a 9D42     		cmp r5, r3
 424 024c 00D8     		bhi _cunchuiii
 425 024e 1D46     		mov r5, r3
 426              	_cunchuiii:
 427 0250 B542     		cmp r5, r6
 428 0252 00D9     		bls _chucuniii1
 429 0254 3500     		movs r5, r6
 430              	_chucuniii1:
 431 0256 0561     		str r5, [r0, # 0x10]
 432              	
ARM GAS  1.s 			page 9


 433              	_ddd:
 434 0258 8B4B     		ldr r3, = kd
 435 025a 1B68     		ldr r3, [r3]
 436 025c 891A     		subs r1, r1, r2
 437 025e 4B43     		muls r3, r1
 438              	
 439 0260 6419     		adds r4, r4, r5
 440 0262 E418     		adds r4, r4, r3
 441 0264 00D5     		bpl _buxiaoyu0
 442 0266 0024     		movs r4, # 0
 443              	_buxiaoyu0:
 444 0268 8A48     		ldr r0, = 0x40002034 @ tim14cr1
 445 026a 0460     		str r4, [r0]
 446 026c FFBC     		pop {r0-r7}
 447 026e 7047     		bx lr
 448              	
 449              	_xieflash:
 450 0270 72B6     		cpsid i  @关中断
 451              		       @ FPEC解锁
 452 0272 894C     		ldr r4, = fjiesuo
 453 0274 0325     		movs r5, # 3
 454 0276 7D44     		add r5, pc
 455 0278 AE46     		mov lr, r5
 456 027a A746     		mov pc, r4
 457              	
 458              		@ OPTWRE解锁
 459 027c 874C     		ldr r4, = ojiesuo
 460 027e 0325     		movs r5, # 3
 461 0280 7D44     		add r5, pc
 462 0282 AE46     		mov lr, r5
 463 0284 A746     		mov pc, r4
 464              		@ 擦除
 465 0286 864C     		ldr r4, = yeca
 466 0288 5C48     		ldr r0, = 0x8004000
 467 028a 0325     		movs r5, # 3
 468 028c 7D44     		add r5, pc
 469 028e AE46     		mov lr, r5
 470 0290 A746     		mov pc, r4
 471              	
 472 0292 844C     		ldr r4, = xieflash
 473 0294 5948     		ldr r0, = 0x8004000
 474 0296 5B4D     		ldr r5, = mubiaowendu
 475 0298 2968     		ldr r1, [r5]
 476 029a 0325     		movs r5, # 3
 477 029c 7D44     		add r5, pc
 478 029e AE46     		mov lr, r5
 479 02a0 A746     		mov pc, r4
 480              	
 481 02a2 804C     		ldr r4, = xieflash
 482 02a4 8048     		ldr r0, = 0x8004004
 483 02a6 584D     		ldr r5, = kp
 484 02a8 2968     		ldr r1, [r5]
 485 02aa 0325     		movs r5, # 3
 486 02ac 7D44     		add r5, pc
 487 02ae AE46     		mov lr, r5
 488 02b0 A746     		mov pc, r4
 489              	
ARM GAS  1.s 			page 10


 490 02b2 7C4C     		        ldr r4, = xieflash
 491 02b4 7D48     		ldr r0, = 0x8004008
 492 02b6 724D     		ldr r5, = ki
 493 02b8 2968     		ldr r1, [r5]
 494 02ba 0325     		movs r5, # 3
 495 02bc 7D44     		add r5, pc
 496 02be AE46     		mov lr, r5
 497 02c0 A746     		mov pc, r4
 498              	
 499 02c2 784C     		ldr r4, = xieflash
 500 02c4 7A48     		ldr r0, = 0x800400c
 501 02c6 704D     		ldr r5, = kd
 502 02c8 2968     		ldr r1, [r5]
 503 02ca 0325     		movs r5, # 3
 504 02cc 7D44     		add r5, pc
 505 02ce AE46     		mov lr, r5
 506 02d0 A746     		mov pc, r4
 507              	
 508 02d2 7848     		ldr r0, = 0xe000ed0c
 509 02d4 7849     		ldr r1, = 0x05fa0004
 510 02d6 0160     		str r1, [r0] 		@复位
 511              	
 512              	_tingxia:
 513 02d8 FEE7     		b _tingxia
 514              		
 515              	
 516              	_tingting:
 517 02da 7848     		ldr r0, = 12345678
 518 02dc 0821     		movs r1, # 8
 519 02de 454A     		ldr r2, = shumaguanma
 520 02e0 00F005F8 		bl _zhuanshumaguanma
 521 02e4 0820     		movs r0, # 8
 522 02e6 8000     		lsls r0, r0, # 2
 523 02e8 00F013F8 		bl _xieshumaguan	
 524 02ec F5E7     		b _tingting
 525              		
 526              		
 527              		
 528              	
 529              		
 530              	_zhuanshumaguanma:			@ 16进制转数码管码
 531              			@ R0要转的数据， R1长度，R2结果表首地址
 532 02ee FFB5     		push {r0-r7,lr}
 533 02f0 734F     		ldr r7, = shumaguanmabiao
 534 02f2 0546     		mov r5, r0
 535 02f4 0E46     		mov r6, r1
 536 02f6 0A21     		movs r1, # 10
 537              	_xunhuanqiuma:
 538 02f8 00F05AF8 		bl _chufa
 539 02fc 0446     		mov r4, r0
 540 02fe 4C43     		muls r4, r1
 541 0300 2B1B     		subs r3, r5, r4
 542 0302 9B00     		lsls r3, # 2
 543 0304 FC58     		ldr r4, [r7, r3]
 544 0306 1460     		str r4, [r2]
 545 0308 0546     		mov r5, r0
 546 030a 0432     		adds r2, r2, # 4
ARM GAS  1.s 			page 11


 547 030c 013E     		subs r6, # 1
 548 030e F3D1     		bne _xunhuanqiuma
 549 0310 FFBD     		pop {r0-r7,pc}
 550              	_xieshumaguan:			 @ r0=位数 @数码管码
 551 0312 FFB5     		push {r0-r7,lr}
 552 0314 0027     		movs r7, # 0
 553 0316 0646     		mov r6, r0
 554 0318 364D     		ldr r5, = shumaguanma
 555 031a 6A4A     		ldr r2, = shumaguanshuaxinbiao
 556              	_shumaguanshuaxin:
 557 031c EB59     		ldr r3, [r5, r7]
 558 031e D459     		ldr r4, [r2, r7]
 559 0320 1C43     		orrs r4, r4, r3
 560 0322 2046     		mov r0, r4
 561 0324 00F004F8 		bl _xie595
 562 0328 0437     		adds  r7, r7, # 4
 563 032a B742     		cmp r7, r6
 564 032c F6D9     		bls _shumaguanshuaxin
 565 032e FFBD     		pop {r0-r7,pc}
 566              	_xie595:		 @ R0=要写的数据
 567 0330 FFB5     		push {r0-r7,lr}
 568 0332 0546     		mov r5, r0
 569 0334 4020     		movs r0, # 0x40
 570 0336 8027     		movs r7, # 0x80
 571 0338 2026     		movs r6, # 0x20
 572 033a 1023     		movs r3, # 16   @16位
 573 033c 3A4A     		ldr r2, = 0x48000000 @ gpioa
 574 033e 0121     		movs r1, # 0x01
 575              	_xunhuan595:
 576 0340 9761     		str r7, [r2, # 0x18]
 577 0342 00F014F8 		bl _yanshi
 578 0346 0D42     		tst r5, r1
 579 0348 01D1     		bne _xie595_0
 580 034a 9062     		str r0, [r2, # 0x28]
 581 034c 00E0     		b _suocun595
 582              	_xie595_0:
 583 034e 9061     		str r0, [r2, # 0x18]
 584              	_suocun595:
 585 0350 00F00DF8 		bl _yanshi
 586 0354 6D08     		lsrs r5, # 1
 587 0356 9762     		str r7, [r2, # 0x28]
 588 0358 00F009F8 		bl _yanshi
 589 035c 013B     		subs r3, r3, # 1
 590 035e EFD1     		bne _xunhuan595
 591 0360 9661     		str r6, [r2, # 0x18]
 592 0362 00F004F8 		bl _yanshi
 593 0366 9662     		str r6, [r2, # 0x28]
 594 0368 00F001F8 		bl _yanshi
 595 036c FFBD     		pop {r0-r7,pc}
 596              	
 597              	_yanshi:
 598 036e 80B5     		push {r7,lr}
 599 0370 554F     		ldr r7, = 30
 600              	_yanshi11:
 601 0372 013F     		subs r7, # 1
 602 0374 FDD1     		bne _yanshi11
 603 0376 80BD     		pop {r7,pc}
ARM GAS  1.s 			page 12


 604              	
 605              	
 606              	_chufa64:		@64位除以32位软件除法
 607              		@ r0-r1除以r2等于R0-R1余数R2
 608 0378 F8B5     		push {r3-r7,lr}
 609 037a 0346     		mov r3, r0
 610 037c 0E46     		mov r6, r1
 611 037e 0124     		movs r4, # 1
 612 0380 2746     		mov r7, r4
 613 0382 E407     		lsls r4, r4, # 31
 614 0384 0020     		movs r0, # 0
 615 0386 0546     		mov r5, r0
 616              	_chufaxunhuan64:
 617 0388 5B00     		lsls r3, r3, # 1
 618 038a 6D41     		adcs r5, r5, r5
 619 038c 9542     		cmp r5, r2
 620 038e 01D3     		bcc _chufaweishubudao64
 621 0390 0019     		adds r0, r0, r4
 622 0392 AD1A     		subs r5, r5, r2
 623              	_chufaweishubudao64:
 624 0394 6408     		lsrs r4, r4, # 1
 625 0396 F7D1     		bne _chufaxunhuan64
 626 0398 01B4     		push {r0}
 627 039a FF07     		lsls r7, r7, # 31
 628 039c 03D5     		bpl _chufafanhui64
 629 039e 3C46     		mov r4, r7
 630 03a0 3346     		mov r3, r6
 631 03a2 0020     		movs r0, # 0
 632 03a4 F0E7     		b _chufaxunhuan64
 633              	_chufafanhui64:
 634 03a6 0146     		mov r1, r0
 635 03a8 2A46     		mov r2, r5
 636 03aa 01BC     		pop {r0}
 637 03ac 01BC     		pop {r0}
 638 03ae F8BD     		pop {r3-r7,pc}
 639              	
 640              	_chufa:		@软件除法
 641              		@ r0 除以 r1 等于 商(r0)不要余数(r1)
 642 03b0 FEB5     		push {r1-r7,lr}
 643 03b2 0246     		mov r2, r0
 644 03b4 0123     		movs r3, # 1
 645 03b6 DB07     		lsls r3, r3, # 31
 646 03b8 0020     		movs r0, # 0
 647 03ba 0446     		mov r4, r0
 648              	_chufaxunhuan:
 649 03bc 5200     		lsls r2, r2, # 1
 650 03be 6441     		adcs r4, r4, r4
 651 03c0 8C42     		cmp r4, r1
 652 03c2 01D3     		bcc _chufaweishubudao0
 653 03c4 C018     		adds r0, r0, r3
 654 03c6 641A     		subs r4, r4, r1
 655              	_chufaweishubudao0:
 656 03c8 5B08     		lsrs r3, r3, # 1
 657 03ca F7D1     		bne _chufaxunhuan
 658 03cc 2146     		mov r1, r4
 659 03ce FEBD     		pop {r1-r7,pc}
 660              	
ARM GAS  1.s 			page 13


 661              	_chushihuamubiaowendu:
 662 03d0 0C48     		ldr r0, = mubiaowendu
 663 03d2 0021     		movs r1, # 0
 664 03d4 0160     		str r1, [r0]
 665 03d6 0C48     		ldr r0, = kp
 666 03d8 0160     		str r1, [r0]
 667 03da 4160     		str r1, [r0, # 0x04]
 668 03dc 8160     		str r1, [r0, # 0x08]
 669 03de FFF747FF 		bl _xieflash
 670              		
 671              	_nmi_handler:
 672 03e2 7047     		bx lr
 673              	_hard_fault:
 674 03e4 7047     		bx lr
 675              	_memory_fault:
 676 03e6 7047     		bx lr
 677              	_bus_fault:
 678 03e8 7047     		bx lr
 679              	_usage_fault:
 680 03ea 7047     	 	bx lr
 681 03ec 00200240 		
 681      00100240 
 681      00000020 
 681      00100000 
 681      00400008 
ARM GAS  1.s 			page 14


DEFINED SYMBOLS
                 1.s:8      *ABS*:000000001fffef62 fjiesuo
                 1.s:9      *ABS*:000000001fffef6e ojiesuo
                 1.s:10     *ABS*:000000001fffeff8 quanca
                 1.s:11     *ABS*:000000001fffefda yeca
                 1.s:12     *ABS*:000000001ffff020 zica
                 1.s:13     *ABS*:000000001fffef9a xieflash
                 1.s:14     *ABS*:000000001ffff048 zixie
                 1.s:15     *ABS*:000000001ffff0a6 xiebaohu
                 1.s:16     *ABS*:000000001ffff124 jiancedubaohu
                 1.s:17     *ABS*:000000001fffef7a flashmang
                 1.s:18     *ABS*:0000000020001000 STACKINIT
                 1.s:19     *ABS*:0000000020000000 shumaguanma
                 1.s:20     *ABS*:0000000020000020 anjianma
                 1.s:21     *ABS*:0000000020000024 mubiaowendu
                 1.s:22     *ABS*:0000000020000028 dangqianwendu
                 1.s:23     *ABS*:000000002000002c dangqianchan
                 1.s:24     *ABS*:0000000020000030 shangcichan
                 1.s:25     *ABS*:0000000020000034 ilishi
                 1.s:26     *ABS*:0000000020000038 kp
                 1.s:27     *ABS*:000000002000003c ki
                 1.s:28     *ABS*:0000000020000040 kd
                 1.s:29     .data:0000000000000000 shumaguanmabiao
                 1.s:31     .data:0000000000000028 shumaguanshuaxinbiao
                 1.s:33     .data:000000000000004c wendubiao
                 1.s:35     .data:000000000000022c $d
                 1.s:36     .data:000000000000022c anjian
                 1.s:252    .text:0000000000000134 _caidan1
                 1.s:291    .text:0000000000000174 _anjian2
                 1.s:303    .text:0000000000000188 _anjian3
                 1.s:194    .text:00000000000000c6 _adcwendu
                 1.s:38     .data:000000000000023c pshezhi
                 1.s:257    .text:000000000000013c _caidan2
                 1.s:316    .text:000000000000019c _anjian4
                 1.s:329    .text:00000000000001b2 _anjian5
                 1.s:40     .data:000000000000024c ishezhi
                 1.s:261    .text:0000000000000142 _caidan3
                 1.s:343    .text:00000000000001c8 _anjian6
                 1.s:356    .text:00000000000001de _anjian7
                 1.s:42     .data:000000000000025c dshezhi
                 1.s:265    .text:0000000000000148 _baocun
                 1.s:370    .text:00000000000001f4 _anjian8
                 1.s:383    .text:000000000000020a _anjian9
                 1.s:45     .text:0000000000000000 vectors
                 1.s:54     .text:000000000000001c _start
                 1.s:671    .text:00000000000003e2 _nmi_handler
                 1.s:673    .text:00000000000003e4 _hard_fault
                 1.s:675    .text:00000000000003e6 _memory_fault
                 1.s:677    .text:00000000000003e8 _bus_fault
                 1.s:679    .text:00000000000003ea _usage_fault
                 1.s:55     .text:000000000000001c _shizhong
                            .text:0000000000000000 $d
                 1.s:56     .text:000000000000001c $t
                 1.s:63     .text:0000000000000028 _dengdai14mshizhongwending
                 1.s:68     .text:000000000000002e _neicunqingling
                 1.s:72     .text:0000000000000034 _neicunqinglingxunhuan
                 1.s:78     .text:000000000000003a _chushihuaquanjubianliang
ARM GAS  1.s 			page 15


                 1.s:85     .text:0000000000000046 _quchumubiaowendu
                 1.s:661    .text:00000000000003d0 _chushihuamubiaowendu
                 1.s:97     .text:000000000000005a _waisheshizhong
                 1.s:113    .text:0000000000000068 _adcchushihua
                 1.s:117    .text:000000000000006e _dengadcjiaozhun
                 1.s:121    .text:0000000000000074 _kaiadc
                 1.s:126    .text:000000000000007c _dengdaiadcwending
                 1.s:130    .text:0000000000000082 _tongdaoxuanze
                 1.s:143    .text:0000000000000096 _io_she_zhi
                 1.s:177    .text:00000000000000ac _tim14chushihua
                 1.s:197    .text:00000000000000ca _adcpingjun
                 1.s:640    .text:00000000000003b0 _chufa
                 1.s:210    .text:00000000000000e4 _panduanwendu
                 1.s:219    .text:00000000000000f4 _dedaowendu
                 1.s:530    .text:00000000000002ee _zhuanshumaguanma
                 1.s:550    .text:0000000000000312 _xieshumaguan
                 1.s:399    .text:0000000000000220 _pid
                 1.s:244    .text:0000000000000128 _tiaoguoanjian1_1
                 1.s:241    .text:0000000000000124 _anjian1yanshi1
                 1.s:267    .text:000000000000014a _candanxunhuan
                 1.s:449    .text:0000000000000270 _xieflash
                 1.s:284    .text:000000000000016a _tiaoguoanjian1
                 1.s:280    .text:0000000000000166 _anjian1yanshi
                 1.s:299    .text:0000000000000182 _anjianfanhui
                 1.s:311    .text:0000000000000196 _anjianfanhui1
                 1.s:325    .text:00000000000001ac _anjianfanhui4
                 1.s:338    .text:00000000000001c2 _anjianfanhui5
                 1.s:352    .text:00000000000001d8 _anjianfanhui6
                 1.s:365    .text:00000000000001ee _anjianfanhui7
                 1.s:379    .text:0000000000000204 _anjianfanhui8
                 1.s:392    .text:000000000000021a _anjianfanhui9
                 1.s:408    .text:0000000000000230 _ppp
                 1.s:413    .text:0000000000000238 _iii
                 1.s:426    .text:0000000000000250 _cunchuiii
                 1.s:430    .text:0000000000000256 _chucuniii1
                 1.s:433    .text:0000000000000258 _ddd
                 1.s:443    .text:0000000000000268 _buxiaoyu0
                 1.s:512    .text:00000000000002d8 _tingxia
                 1.s:516    .text:00000000000002da _tingting
                 1.s:537    .text:00000000000002f8 _xunhuanqiuma
                 1.s:556    .text:000000000000031c _shumaguanshuaxin
                 1.s:566    .text:0000000000000330 _xie595
                 1.s:575    .text:0000000000000340 _xunhuan595
                 1.s:597    .text:000000000000036e _yanshi
                 1.s:582    .text:000000000000034e _xie595_0
                 1.s:584    .text:0000000000000350 _suocun595
                 1.s:600    .text:0000000000000372 _yanshi11
                 1.s:606    .text:0000000000000378 _chufa64
                 1.s:616    .text:0000000000000388 _chufaxunhuan64
                 1.s:623    .text:0000000000000394 _chufaweishubudao64
                 1.s:633    .text:00000000000003a6 _chufafanhui64
                 1.s:648    .text:00000000000003bc _chufaxunhuan
                 1.s:655    .text:00000000000003c8 _chufaweishubudao0
                 1.s:681    .text:00000000000003ec $d

NO UNDEFINED SYMBOLS
